ARM GAS  C:\Users\Mathieu\AppData\Local\Temp\ccqdbTbw.s 			page 1


   1              		.syntax unified
   2              		.cpu cortex-m4
   3              		.eabi_attribute 27, 1
   4              		.fpu fpv4-sp-d16
   5              		.eabi_attribute 20, 1
   6              		.eabi_attribute 21, 1
   7              		.eabi_attribute 23, 3
   8              		.eabi_attribute 24, 1
   9              		.eabi_attribute 25, 1
  10              		.eabi_attribute 26, 1
  11              		.eabi_attribute 30, 1
  12              		.eabi_attribute 34, 1
  13              		.eabi_attribute 18, 4
  14              		.thumb
  15              		.syntax unified
  16              		.file	"interface.c"
  17              		.text
  18              	.Ltext0:
  19              		.cfi_sections	.debug_frame
  20              		.section	.text.UpdateDisplay,"ax",%progbits
  21              		.align	2
  22              		.global	UpdateDisplay
  23              		.thumb
  24              		.thumb_func
  25              		.type	UpdateDisplay, %function
  26              	UpdateDisplay:
  27              	.LFB660:
  28              		.file 1 "interface.c"
   1:interface.c   **** /* ========================================
   2:interface.c   ****  *
   3:interface.c   ****  * Copyright YOUR COMPANY, THE YEAR
   4:interface.c   ****  * All Rights Reserved
   5:interface.c   ****  * UNPUBLISHED, LICENSED SOFTWARE.
   6:interface.c   ****  *
   7:interface.c   ****  * CONFIDENTIAL AND PROPRIETARY INFORMATION
   8:interface.c   ****  * WHICH IS THE PROPERTY OF your company.
   9:interface.c   ****  *
  10:interface.c   ****  * ========================================
  11:interface.c   **** */
  12:interface.c   **** #include "interface.h"
  13:interface.c   **** #include "project.h"
  14:interface.c   **** #include "communication.h"
  15:interface.c   **** 
  16:interface.c   **** volatile int SPO2 = 0;
  17:interface.c   **** volatile int HR = 0;
  18:interface.c   **** volatile int Current_LED1 = 0x20; 
  19:interface.c   **** volatile int Current_LED2 = 0x20; 
  20:interface.c   **** volatile int HR_min_alarm = 40; 
  21:interface.c   **** volatile int HR_max_alarm = 100;
  22:interface.c   **** volatile int SPO2_min_alarm = 90;
  23:interface.c   **** 
  24:interface.c   **** uint8 imageBufferCache[CY_EINK_FRAME_SIZE] = {0};
  25:interface.c   **** 
  26:interface.c   **** /*******************************************************************************
  27:interface.c   **** * Function Name: void UpdateDisplay(cy_eink_update_t updateMethod, bool powerCycle)
  28:interface.c   **** ********************************************************************************
  29:interface.c   **** *
ARM GAS  C:\Users\Mathieu\AppData\Local\Temp\ccqdbTbw.s 			page 2


  30:interface.c   **** * Summary: This function updates the eink display with the buffer
  31:interface.c   **** *
  32:interface.c   **** * Parameters:
  33:interface.c   **** *  cy_eink_update_t updateMethod
  34:interface.c   **** *  bool powerCycle
  35:interface.c   **** *
  36:interface.c   **** * Return:
  37:interface.c   **** *  None
  38:interface.c   **** *
  39:interface.c   **** *******************************************************************************/
  40:interface.c   **** void UpdateDisplay(cy_eink_update_t updateMethod, bool powerCycle)
  41:interface.c   **** {
  29              		.loc 1 41 0
  30              		.cfi_startproc
  31              		@ args = 0, pretend = 0, frame = 0
  32              		@ frame_needed = 0, uses_anonymous_args = 0
  33              	.LVL0:
  34 0000 F8B5     		push	{r3, r4, r5, r6, r7, lr}
  35              		.cfi_def_cfa_offset 24
  36              		.cfi_offset 3, -24
  37              		.cfi_offset 4, -20
  38              		.cfi_offset 5, -16
  39              		.cfi_offset 6, -12
  40              		.cfi_offset 7, -8
  41              		.cfi_offset 14, -4
  42 0002 0646     		mov	r6, r0
  43 0004 0F46     		mov	r7, r1
  42:interface.c   ****     cy_eink_frame_t* pEmwinBuffer;
  43:interface.c   **** 
  44:interface.c   ****     /* Get the pointer to Emwin's display buffer */
  45:interface.c   ****     pEmwinBuffer = (cy_eink_frame_t*)LCD_GetDisplayBuffer();
  44              		.loc 1 45 0
  45 0006 FFF7FEFF 		bl	LCD_GetDisplayBuffer
  46              	.LVL1:
  47 000a 0546     		mov	r5, r0
  48              	.LVL2:
  46:interface.c   **** 
  47:interface.c   ****     /* Update the EInk display */
  48:interface.c   ****     Cy_EINK_ShowFrame(imageBufferCache, pEmwinBuffer, updateMethod, powerCycle);
  49              		.loc 1 48 0
  50 000c 064C     		ldr	r4, .L3
  51 000e 3B46     		mov	r3, r7
  52 0010 3246     		mov	r2, r6
  53 0012 0146     		mov	r1, r0
  54 0014 2046     		mov	r0, r4
  55              	.LVL3:
  56 0016 FFF7FEFF 		bl	Cy_EINK_ShowFrame
  57              	.LVL4:
  49:interface.c   **** 
  50:interface.c   ****     /* Copy the EmWin display buffer to the imageBuffer cache*/
  51:interface.c   ****     memcpy(imageBufferCache, pEmwinBuffer, CY_EINK_FRAME_SIZE);
  58              		.loc 1 51 0
  59 001a 41F2B062 		movw	r2, #5808
  60 001e 2946     		mov	r1, r5
  61 0020 2046     		mov	r0, r4
  62 0022 FFF7FEFF 		bl	memcpy
  63              	.LVL5:
ARM GAS  C:\Users\Mathieu\AppData\Local\Temp\ccqdbTbw.s 			page 3


  64 0026 F8BD     		pop	{r3, r4, r5, r6, r7, pc}
  65              	.LVL6:
  66              	.L4:
  67              		.align	2
  68              	.L3:
  69 0028 00000000 		.word	.LANCHOR0
  70              		.cfi_endproc
  71              	.LFE660:
  72              		.size	UpdateDisplay, .-UpdateDisplay
  73              		.section	.text.ClearScreen,"ax",%progbits
  74              		.align	2
  75              		.global	ClearScreen
  76              		.thumb
  77              		.thumb_func
  78              		.type	ClearScreen, %function
  79              	ClearScreen:
  80              	.LFB661:
  52:interface.c   **** }
  53:interface.c   **** 
  54:interface.c   **** /*******************************************************************************
  55:interface.c   **** * Function Name: void ClearScreen(void)
  56:interface.c   **** ********************************************************************************
  57:interface.c   **** *
  58:interface.c   **** * Summary: This function clears the screen
  59:interface.c   **** *
  60:interface.c   **** * Parameters:
  61:interface.c   **** *  None
  62:interface.c   **** *
  63:interface.c   **** * Return:
  64:interface.c   **** *  None
  65:interface.c   **** *
  66:interface.c   **** *******************************************************************************/
  67:interface.c   **** void ClearScreen(void)
  68:interface.c   **** {
  81              		.loc 1 68 0
  82              		.cfi_startproc
  83              		@ args = 0, pretend = 0, frame = 0
  84              		@ frame_needed = 0, uses_anonymous_args = 0
  85 0000 08B5     		push	{r3, lr}
  86              		.cfi_def_cfa_offset 8
  87              		.cfi_offset 3, -8
  88              		.cfi_offset 14, -4
  69:interface.c   ****     GUI_SetColor(GUI_BLACK);
  89              		.loc 1 69 0
  90 0002 0020     		movs	r0, #0
  91 0004 FFF7FEFF 		bl	GUI_SetColor
  92              	.LVL7:
  70:interface.c   ****     GUI_SetBkColor(GUI_WHITE);
  93              		.loc 1 70 0
  94 0008 6FF07F40 		mvn	r0, #-16777216
  95 000c FFF7FEFF 		bl	GUI_SetBkColor
  96              	.LVL8:
  71:interface.c   ****     GUI_Clear();
  97              		.loc 1 71 0
  98 0010 FFF7FEFF 		bl	GUI_Clear
  99              	.LVL9:
  72:interface.c   ****     UpdateDisplay(CY_EINK_FULL_4STAGE, true);
ARM GAS  C:\Users\Mathieu\AppData\Local\Temp\ccqdbTbw.s 			page 4


 100              		.loc 1 72 0
 101 0014 0121     		movs	r1, #1
 102 0016 0846     		mov	r0, r1
 103 0018 FFF7FEFF 		bl	UpdateDisplay
 104              	.LVL10:
 105 001c 08BD     		pop	{r3, pc}
 106              		.cfi_endproc
 107              	.LFE661:
 108              		.size	ClearScreen, .-ClearScreen
 109 001e 00BF     		.section	.text.DrawSignal,"ax",%progbits
 110              		.align	2
 111              		.global	DrawSignal
 112              		.thumb
 113              		.thumb_func
 114              		.type	DrawSignal, %function
 115              	DrawSignal:
 116              	.LFB662:
  73:interface.c   **** }
  74:interface.c   **** 
  75:interface.c   **** /*******************************************************************************
  76:interface.c   **** * Function Name: void DrawSignal(uint32_t *signal)
  77:interface.c   **** ********************************************************************************
  78:interface.c   **** *
  79:interface.c   **** * Summary: Fonction de dessin du signal
  80:interface.c   **** *
  81:interface.c   **** * Parameters:
  82:interface.c   **** *  uint32_t *signal
  83:interface.c   **** *
  84:interface.c   **** * Return:
  85:interface.c   **** *  None
  86:interface.c   **** *
  87:interface.c   **** *******************************************************************************/
  88:interface.c   **** void DrawSignal(uint32_t *signal)
  89:interface.c   **** {
 117              		.loc 1 89 0
 118              		.cfi_startproc
 119              		@ args = 0, pretend = 0, frame = 0
 120              		@ frame_needed = 0, uses_anonymous_args = 0
 121              	.LVL11:
 122 0000 2DE9F041 		push	{r4, r5, r6, r7, r8, lr}
 123              		.cfi_def_cfa_offset 24
 124              		.cfi_offset 4, -24
 125              		.cfi_offset 5, -20
 126              		.cfi_offset 6, -16
 127              		.cfi_offset 7, -12
 128              		.cfi_offset 8, -8
 129              		.cfi_offset 14, -4
 130 0004 0746     		mov	r7, r0
 131              	.LVL12:
 132              	.LBB10:
  90:interface.c   ****     //Espace du graphique : GUI_DrawRect(7,28,257,128) --> 250x100
  91:interface.c   ****     
  92:interface.c   ****     //Max et min du signal
  93:interface.c   ****     uint32_t max = 0;
  94:interface.c   ****     uint32_t min = 300000;
  95:interface.c   **** 
  96:interface.c   ****     for(int i = 0; i<2000;i++)
ARM GAS  C:\Users\Mathieu\AppData\Local\Temp\ccqdbTbw.s 			page 5


 133              		.loc 1 96 0
 134 0006 0023     		movs	r3, #0
 135              	.LBE10:
  94:interface.c   **** 
 136              		.loc 1 94 0
 137 0008 1A4D     		ldr	r5, .L17
  93:interface.c   ****     uint32_t min = 300000;
 138              		.loc 1 93 0
 139 000a 9846     		mov	r8, r3
 140              	.LBB11:
 141              		.loc 1 96 0
 142 000c 08E0     		b	.L8
 143              	.LVL13:
 144              	.L11:
  97:interface.c   ****     {
  98:interface.c   ****       if(max< signal[i])
 145              		.loc 1 98 0
 146 000e 57F82320 		ldr	r2, [r7, r3, lsl #2]
 147 0012 9045     		cmp	r8, r2
 148 0014 00D2     		bcs	.L9
  99:interface.c   ****       {
 100:interface.c   ****          max = signal[i];
 149              		.loc 1 100 0
 150 0016 9046     		mov	r8, r2
 151              	.LVL14:
 152              	.L9:
 101:interface.c   ****       }
 102:interface.c   ****       if(min > signal[i])
 153              		.loc 1 102 0
 154 0018 9542     		cmp	r5, r2
 155 001a 00D9     		bls	.L10
 103:interface.c   ****       {
 104:interface.c   ****          min = signal[i];
 156              		.loc 1 104 0
 157 001c 1546     		mov	r5, r2
 158              	.LVL15:
 159              	.L10:
  96:interface.c   ****     {
 160              		.loc 1 96 0 discriminator 2
 161 001e 0133     		adds	r3, r3, #1
 162              	.LVL16:
 163              	.L8:
  96:interface.c   ****     {
 164              		.loc 1 96 0 is_stmt 0 discriminator 1
 165 0020 B3F5FA6F 		cmp	r3, #2000
 166 0024 F3DB     		blt	.L11
 167 0026 0024     		movs	r4, #0
 168 0028 0826     		movs	r6, #8
 169 002a 1EE0     		b	.L12
 170              	.LVL17:
 171              	.L13:
 172              	.LBE11:
 173              	.LBB12:
 105:interface.c   ****       }
 106:interface.c   ****     }
 107:interface.c   ****     
 108:interface.c   ****     //On affiche un échantillon sur 8 
ARM GAS  C:\Users\Mathieu\AppData\Local\Temp\ccqdbTbw.s 			page 6


 109:interface.c   ****     int k = 8;
 110:interface.c   ****     for (int j =0;j<249;j++)
 111:interface.c   ****     {
 112:interface.c   ****        GUI_DrawLine(j+7,124 - (124-32)*(signal[k-8]-min)/(max-min),j+8,124 - (124-32)*(signal[k]-mi
 174              		.loc 1 112 0 is_stmt 1 discriminator 3
 175 002c 06F18043 		add	r3, r6, #1073741824
 176 0030 083B     		subs	r3, r3, #8
 177 0032 57F82310 		ldr	r1, [r7, r3, lsl #2]
 178 0036 491B     		subs	r1, r1, r5
 179 0038 5C22     		movs	r2, #92
 180 003a 02FB01F1 		mul	r1, r2, r1
 181 003e C5EB0803 		rsb	r3, r5, r8
 182 0042 B1FBF3F1 		udiv	r1, r1, r3
 183 0046 57F82600 		ldr	r0, [r7, r6, lsl #2]
 184 004a 401B     		subs	r0, r0, r5
 185 004c 02FB00F2 		mul	r2, r2, r0
 186 0050 B2FBF3F3 		udiv	r3, r2, r3
 187 0054 C3F17C03 		rsb	r3, r3, #124
 188 0058 04F10802 		add	r2, r4, #8
 189 005c C1F17C01 		rsb	r1, r1, #124
 190 0060 E01D     		adds	r0, r4, #7
 191 0062 FFF7FEFF 		bl	GUI_DrawLine
 192              	.LVL18:
 113:interface.c   ****        k+=8;
 193              		.loc 1 113 0 discriminator 3
 194 0066 0836     		adds	r6, r6, #8
 195              	.LVL19:
 110:interface.c   ****     {
 196              		.loc 1 110 0 discriminator 3
 197 0068 0134     		adds	r4, r4, #1
 198              	.LVL20:
 199              	.L12:
 110:interface.c   ****     {
 200              		.loc 1 110 0 is_stmt 0 discriminator 1
 201 006a F82C     		cmp	r4, #248
 202 006c DEDD     		ble	.L13
 203              	.LBE12:
 114:interface.c   ****     }   
 115:interface.c   **** }
 204              		.loc 1 115 0 is_stmt 1
 205 006e BDE8F081 		pop	{r4, r5, r6, r7, r8, pc}
 206              	.LVL21:
 207              	.L18:
 208 0072 00BF     		.align	2
 209              	.L17:
 210 0074 E0930400 		.word	300000
 211              		.cfi_endproc
 212              	.LFE662:
 213              		.size	DrawSignal, .-DrawSignal
 214              		.section	.text.drawWaiting,"ax",%progbits
 215              		.align	2
 216              		.global	drawWaiting
 217              		.thumb
 218              		.thumb_func
 219              		.type	drawWaiting, %function
 220              	drawWaiting:
 221              	.LFB663:
ARM GAS  C:\Users\Mathieu\AppData\Local\Temp\ccqdbTbw.s 			page 7


 116:interface.c   **** 
 117:interface.c   **** /*******************************************************************************
 118:interface.c   **** * Function Name: void drawWaiting(void)
 119:interface.c   **** ********************************************************************************
 120:interface.c   **** *
 121:interface.c   **** * Summary: Affichage d'un écran d'attente
 122:interface.c   **** *
 123:interface.c   **** * Parameters:
 124:interface.c   **** *  None
 125:interface.c   **** *
 126:interface.c   **** * Return:
 127:interface.c   **** *  None
 128:interface.c   **** *
 129:interface.c   **** *******************************************************************************/
 130:interface.c   **** void drawWaiting(void)
 131:interface.c   **** {
 222              		.loc 1 131 0
 223              		.cfi_startproc
 224              		@ args = 0, pretend = 0, frame = 0
 225              		@ frame_needed = 0, uses_anonymous_args = 0
 226 0000 08B5     		push	{r3, lr}
 227              		.cfi_def_cfa_offset 8
 228              		.cfi_offset 3, -8
 229              		.cfi_offset 14, -4
 132:interface.c   ****   
 133:interface.c   ****     GUI_Clear();
 230              		.loc 1 133 0
 231 0002 FFF7FEFF 		bl	GUI_Clear
 232              	.LVL22:
 134:interface.c   ****     GUI_SetFont(GUI_FONT_13B_1);
 233              		.loc 1 134 0
 234 0006 2448     		ldr	r0, .L21
 235 0008 FFF7FEFF 		bl	GUI_SetFont
 236              	.LVL23:
 135:interface.c   ****     GUI_SetPenSize(2);
 237              		.loc 1 135 0
 238 000c 0220     		movs	r0, #2
 239 000e FFF7FEFF 		bl	GUI_SetPenSize
 240              	.LVL24:
 136:interface.c   ****     
 137:interface.c   ****     GUI_DrawRect(42,4,222,24);  // Nature
 241              		.loc 1 137 0
 242 0012 1823     		movs	r3, #24
 243 0014 DE22     		movs	r2, #222
 244 0016 0421     		movs	r1, #4
 245 0018 2A20     		movs	r0, #42
 246 001a FFF7FEFF 		bl	GUI_DrawRect
 247              	.LVL25:
 138:interface.c   ****     GUI_DispStringAt("Courbe :", 70, 8);
 248              		.loc 1 138 0
 249 001e 0822     		movs	r2, #8
 250 0020 4621     		movs	r1, #70
 251 0022 1E48     		ldr	r0, .L21+4
 252 0024 FFF7FEFF 		bl	GUI_DispStringAt
 253              	.LVL26:
 139:interface.c   ****     GUI_DispStringAt("R", 140, 8);
 254              		.loc 1 139 0
ARM GAS  C:\Users\Mathieu\AppData\Local\Temp\ccqdbTbw.s 			page 8


 255 0028 0822     		movs	r2, #8
 256 002a 8C21     		movs	r1, #140
 257 002c 1C48     		ldr	r0, .L21+8
 258 002e FFF7FEFF 		bl	GUI_DispStringAt
 259              	.LVL27:
 140:interface.c   ****     GUI_DispStringAt("IR", 200, 8);
 260              		.loc 1 140 0
 261 0032 0822     		movs	r2, #8
 262 0034 C821     		movs	r1, #200
 263 0036 1B48     		ldr	r0, .L21+12
 264 0038 FFF7FEFF 		bl	GUI_DispStringAt
 265              	.LVL28:
 141:interface.c   ****     
 142:interface.c   ****     GUI_DrawRect(7,28,257,128); //graphique
 266              		.loc 1 142 0
 267 003c 8023     		movs	r3, #128
 268 003e 40F20112 		movw	r2, #257
 269 0042 1C21     		movs	r1, #28
 270 0044 0720     		movs	r0, #7
 271 0046 FFF7FEFF 		bl	GUI_DrawRect
 272              	.LVL29:
 143:interface.c   ****     GUI_DispStringAt("Mettez votre doigt sur le capteur ", 20,50);
 273              		.loc 1 143 0
 274 004a 3222     		movs	r2, #50
 275 004c 1421     		movs	r1, #20
 276 004e 1648     		ldr	r0, .L21+16
 277 0050 FFF7FEFF 		bl	GUI_DispStringAt
 278              	.LVL30:
 144:interface.c   ****     GUI_DispStringAt("Veuillez patienter....", 20, 90);
 279              		.loc 1 144 0
 280 0054 5A22     		movs	r2, #90
 281 0056 1421     		movs	r1, #20
 282 0058 1448     		ldr	r0, .L21+20
 283 005a FFF7FEFF 		bl	GUI_DispStringAt
 284              	.LVL31:
 145:interface.c   ****     
 146:interface.c   ****     GUI_DrawRect(7,132,132,172); //HR
 285              		.loc 1 146 0
 286 005e AC23     		movs	r3, #172
 287 0060 8422     		movs	r2, #132
 288 0062 1146     		mov	r1, r2
 289 0064 0720     		movs	r0, #7
 290 0066 FFF7FEFF 		bl	GUI_DrawRect
 291              	.LVL32:
 147:interface.c   ****     GUI_DispStringAt("HR (BPM) : ", 36, 138);
 292              		.loc 1 147 0
 293 006a 8A22     		movs	r2, #138
 294 006c 2421     		movs	r1, #36
 295 006e 1048     		ldr	r0, .L21+24
 296 0070 FFF7FEFF 		bl	GUI_DispStringAt
 297              	.LVL33:
 148:interface.c   ****     
 149:interface.c   ****     GUI_DrawRect(137,132,257,172); //SPO2
 298              		.loc 1 149 0
 299 0074 AC23     		movs	r3, #172
 300 0076 40F20112 		movw	r2, #257
 301 007a 8421     		movs	r1, #132
ARM GAS  C:\Users\Mathieu\AppData\Local\Temp\ccqdbTbw.s 			page 9


 302 007c 8920     		movs	r0, #137
 303 007e FFF7FEFF 		bl	GUI_DrawRect
 304              	.LVL34:
 150:interface.c   ****     GUI_DispStringAt("SpO2 (%) : ", 167, 138);
 305              		.loc 1 150 0
 306 0082 8A22     		movs	r2, #138
 307 0084 A721     		movs	r1, #167
 308 0086 0B48     		ldr	r0, .L21+28
 309 0088 FFF7FEFF 		bl	GUI_DispStringAt
 310              	.LVL35:
 151:interface.c   ****        
 152:interface.c   ****     
 153:interface.c   ****     UpdateDisplay(CY_EINK_FULL_4STAGE, true);
 311              		.loc 1 153 0
 312 008c 0121     		movs	r1, #1
 313 008e 0846     		mov	r0, r1
 314 0090 FFF7FEFF 		bl	UpdateDisplay
 315              	.LVL36:
 316 0094 08BD     		pop	{r3, pc}
 317              	.L22:
 318 0096 00BF     		.align	2
 319              	.L21:
 320 0098 00000000 		.word	GUI_Font13B_1
 321 009c 00000000 		.word	.LC0
 322 00a0 0C000000 		.word	.LC1
 323 00a4 10000000 		.word	.LC2
 324 00a8 14000000 		.word	.LC3
 325 00ac 38000000 		.word	.LC4
 326 00b0 50000000 		.word	.LC5
 327 00b4 5C000000 		.word	.LC6
 328              		.cfi_endproc
 329              	.LFE663:
 330              		.size	drawWaiting, .-drawWaiting
 331              		.section	.text.drawAffichageCourbe,"ax",%progbits
 332              		.align	2
 333              		.global	drawAffichageCourbe
 334              		.thumb
 335              		.thumb_func
 336              		.type	drawAffichageCourbe, %function
 337              	drawAffichageCourbe:
 338              	.LFB664:
 154:interface.c   **** 
 155:interface.c   **** }
 156:interface.c   **** 
 157:interface.c   **** /*******************************************************************************
 158:interface.c   **** * Function Name: void drawAffichageCourbe(void)
 159:interface.c   **** ********************************************************************************
 160:interface.c   **** *
 161:interface.c   **** * Summary: Affichage de la courbe choisie et des paramètres vitaux 
 162:interface.c   **** *
 163:interface.c   **** * Parameters:
 164:interface.c   **** *  None
 165:interface.c   **** *
 166:interface.c   **** * Return:
 167:interface.c   **** *  None
 168:interface.c   **** *
 169:interface.c   **** *******************************************************************************/
ARM GAS  C:\Users\Mathieu\AppData\Local\Temp\ccqdbTbw.s 			page 10


 170:interface.c   **** void drawAffichageCourbe(void)
 171:interface.c   **** {
 339              		.loc 1 171 0
 340              		.cfi_startproc
 341              		@ args = 0, pretend = 0, frame = 40
 342              		@ frame_needed = 0, uses_anonymous_args = 0
 343 0000 30B5     		push	{r4, r5, lr}
 344              		.cfi_def_cfa_offset 12
 345              		.cfi_offset 4, -12
 346              		.cfi_offset 5, -8
 347              		.cfi_offset 14, -4
 348 0002 8BB0     		sub	sp, sp, #44
 349              		.cfi_def_cfa_offset 56
 172:interface.c   ****     
 173:interface.c   ****     GUI_Clear();
 350              		.loc 1 173 0
 351 0004 FFF7FEFF 		bl	GUI_Clear
 352              	.LVL37:
 174:interface.c   ****     GUI_SetFont(GUI_FONT_13B_1);
 353              		.loc 1 174 0
 354 0008 3E48     		ldr	r0, .L27
 355 000a FFF7FEFF 		bl	GUI_SetFont
 356              	.LVL38:
 175:interface.c   ****     GUI_SetPenSize(2);
 357              		.loc 1 175 0
 358 000e 0220     		movs	r0, #2
 359 0010 FFF7FEFF 		bl	GUI_SetPenSize
 360              	.LVL39:
 176:interface.c   ****     
 177:interface.c   ****     GUI_DrawRect(42,4,222,24);  // Nature
 361              		.loc 1 177 0
 362 0014 1823     		movs	r3, #24
 363 0016 DE22     		movs	r2, #222
 364 0018 0421     		movs	r1, #4
 365 001a 2A20     		movs	r0, #42
 366 001c FFF7FEFF 		bl	GUI_DrawRect
 367              	.LVL40:
 178:interface.c   ****     GUI_DispStringAt("Courbe :", 70, 8);
 368              		.loc 1 178 0
 369 0020 0822     		movs	r2, #8
 370 0022 4621     		movs	r1, #70
 371 0024 3848     		ldr	r0, .L27+4
 372 0026 FFF7FEFF 		bl	GUI_DispStringAt
 373              	.LVL41:
 179:interface.c   ****     GUI_DispStringAt("R", 140, 8);
 374              		.loc 1 179 0
 375 002a 0822     		movs	r2, #8
 376 002c 8C21     		movs	r1, #140
 377 002e 3748     		ldr	r0, .L27+8
 378 0030 FFF7FEFF 		bl	GUI_DispStringAt
 379              	.LVL42:
 180:interface.c   ****     GUI_DispStringAt("IR", 200, 8);
 380              		.loc 1 180 0
 381 0034 0822     		movs	r2, #8
 382 0036 C821     		movs	r1, #200
 383 0038 3548     		ldr	r0, .L27+12
 384 003a FFF7FEFF 		bl	GUI_DispStringAt
ARM GAS  C:\Users\Mathieu\AppData\Local\Temp\ccqdbTbw.s 			page 11


 385              	.LVL43:
 181:interface.c   ****    
 182:interface.c   ****     //Sélecteur de courbe
 183:interface.c   ****     if(FLAG_RED ==1)
 386              		.loc 1 183 0
 387 003e 354B     		ldr	r3, .L27+16
 388 0040 1B68     		ldr	r3, [r3]
 389 0042 012B     		cmp	r3, #1
 390 0044 0FD1     		bne	.L24
 184:interface.c   ****     {
 185:interface.c   ****         GUI_FillRect(127,10,135,18);
 391              		.loc 1 185 0
 392 0046 1223     		movs	r3, #18
 393 0048 8722     		movs	r2, #135
 394 004a 0A21     		movs	r1, #10
 395 004c 7F20     		movs	r0, #127
 396 004e FFF7FEFF 		bl	GUI_FillRect
 397              	.LVL44:
 186:interface.c   ****         GUI_DrawRect(187,10,195,18);
 398              		.loc 1 186 0
 399 0052 1223     		movs	r3, #18
 400 0054 C322     		movs	r2, #195
 401 0056 0A21     		movs	r1, #10
 402 0058 BB20     		movs	r0, #187
 403 005a FFF7FEFF 		bl	GUI_DrawRect
 404              	.LVL45:
 187:interface.c   ****         
 188:interface.c   ****         DrawSignal(&RED_data);//Affichage du signal non-filtré R
 405              		.loc 1 188 0
 406 005e 2E48     		ldr	r0, .L27+20
 407 0060 FFF7FEFF 		bl	DrawSignal
 408              	.LVL46:
 409 0064 0EE0     		b	.L25
 410              	.L24:
 189:interface.c   ****         
 190:interface.c   ****     }
 191:interface.c   ****     else
 192:interface.c   ****     {
 193:interface.c   ****         GUI_DrawRect(127,10,135,18);
 411              		.loc 1 193 0
 412 0066 1223     		movs	r3, #18
 413 0068 8722     		movs	r2, #135
 414 006a 0A21     		movs	r1, #10
 415 006c 7F20     		movs	r0, #127
 416 006e FFF7FEFF 		bl	GUI_DrawRect
 417              	.LVL47:
 194:interface.c   ****         GUI_FillRect(187,10,195,18);
 418              		.loc 1 194 0
 419 0072 1223     		movs	r3, #18
 420 0074 C322     		movs	r2, #195
 421 0076 0A21     		movs	r1, #10
 422 0078 BB20     		movs	r0, #187
 423 007a FFF7FEFF 		bl	GUI_FillRect
 424              	.LVL48:
 195:interface.c   ****         DrawSignal(&IR_data); //Affichage du signal non-filtré IR
 425              		.loc 1 195 0
 426 007e 2748     		ldr	r0, .L27+24
ARM GAS  C:\Users\Mathieu\AppData\Local\Temp\ccqdbTbw.s 			page 12


 427 0080 FFF7FEFF 		bl	DrawSignal
 428              	.LVL49:
 429              	.L25:
 196:interface.c   ****     }
 197:interface.c   ****     
 198:interface.c   ****     GUI_DrawRect(7,28,257,128); //graphique
 430              		.loc 1 198 0
 431 0084 8023     		movs	r3, #128
 432 0086 40F20112 		movw	r2, #257
 433 008a 1C21     		movs	r1, #28
 434 008c 0720     		movs	r0, #7
 435 008e FFF7FEFF 		bl	GUI_DrawRect
 436              	.LVL50:
 199:interface.c   ****     
 200:interface.c   ****     GUI_DrawRect(7,132,132,172); //HR
 437              		.loc 1 200 0
 438 0092 AC23     		movs	r3, #172
 439 0094 8422     		movs	r2, #132
 440 0096 1146     		mov	r1, r2
 441 0098 0720     		movs	r0, #7
 442 009a FFF7FEFF 		bl	GUI_DrawRect
 443              	.LVL51:
 201:interface.c   ****     GUI_DispStringAt("HR (BPM) : ", 36, 138);
 444              		.loc 1 201 0
 445 009e 8A22     		movs	r2, #138
 446 00a0 2421     		movs	r1, #36
 447 00a2 1F48     		ldr	r0, .L27+28
 448 00a4 FFF7FEFF 		bl	GUI_DispStringAt
 449              	.LVL52:
 202:interface.c   ****     
 203:interface.c   ****     GUI_DrawRect(137,132,257,172); //SPO2
 450              		.loc 1 203 0
 451 00a8 AC23     		movs	r3, #172
 452 00aa 40F20112 		movw	r2, #257
 453 00ae 8421     		movs	r1, #132
 454 00b0 8920     		movs	r0, #137
 455 00b2 FFF7FEFF 		bl	GUI_DrawRect
 456              	.LVL53:
 204:interface.c   ****     GUI_DispStringAt("SpO2 (%) : ", 167, 138);
 457              		.loc 1 204 0
 458 00b6 8A22     		movs	r2, #138
 459 00b8 A721     		movs	r1, #167
 460 00ba 1A48     		ldr	r0, .L27+32
 461 00bc FFF7FEFF 		bl	GUI_DispStringAt
 462              	.LVL54:
 205:interface.c   ****         
 206:interface.c   ****     //Valeur des paramètres
 207:interface.c   ****     GUI_SetFont(GUI_FONT_13_1);
 463              		.loc 1 207 0
 464 00c0 1948     		ldr	r0, .L27+36
 465 00c2 FFF7FEFF 		bl	GUI_SetFont
 466              	.LVL55:
 208:interface.c   ****     char str_param[40];
 209:interface.c   ****     sprintf(str_param,"%d",HR);
 467              		.loc 1 209 0
 468 00c6 194D     		ldr	r5, .L27+40
 469 00c8 D5F8B825 		ldr	r2, [r5, #1464]
ARM GAS  C:\Users\Mathieu\AppData\Local\Temp\ccqdbTbw.s 			page 13


 470 00cc 184C     		ldr	r4, .L27+44
 471 00ce 2146     		mov	r1, r4
 472 00d0 6846     		mov	r0, sp
 473 00d2 FFF7FEFF 		bl	sprintf
 474              	.LVL56:
 210:interface.c   ****     GUI_DispStringAt(str_param, 36, 154);
 475              		.loc 1 210 0
 476 00d6 9A22     		movs	r2, #154
 477 00d8 2421     		movs	r1, #36
 478 00da 6846     		mov	r0, sp
 479 00dc FFF7FEFF 		bl	GUI_DispStringAt
 480              	.LVL57:
 211:interface.c   ****     sprintf(str_param,"%d",SPO2);
 481              		.loc 1 211 0
 482 00e0 D5F8BC25 		ldr	r2, [r5, #1468]
 483 00e4 2146     		mov	r1, r4
 484 00e6 6846     		mov	r0, sp
 485 00e8 FFF7FEFF 		bl	sprintf
 486              	.LVL58:
 212:interface.c   ****     GUI_DispStringAt(str_param, 167, 154);
 487              		.loc 1 212 0
 488 00ec 9A22     		movs	r2, #154
 489 00ee A721     		movs	r1, #167
 490 00f0 6846     		mov	r0, sp
 491 00f2 FFF7FEFF 		bl	GUI_DispStringAt
 492              	.LVL59:
 213:interface.c   ****     
 214:interface.c   ****     UpdateDisplay(CY_EINK_FULL_4STAGE, true);
 493              		.loc 1 214 0
 494 00f6 0121     		movs	r1, #1
 495 00f8 0846     		mov	r0, r1
 496 00fa FFF7FEFF 		bl	UpdateDisplay
 497              	.LVL60:
 215:interface.c   **** }
 498              		.loc 1 215 0
 499 00fe 0BB0     		add	sp, sp, #44
 500              		.cfi_def_cfa_offset 12
 501              		@ sp needed
 502 0100 30BD     		pop	{r4, r5, pc}
 503              	.L28:
 504 0102 00BF     		.align	2
 505              	.L27:
 506 0104 00000000 		.word	GUI_Font13B_1
 507 0108 00000000 		.word	.LC0
 508 010c 0C000000 		.word	.LC1
 509 0110 10000000 		.word	.LC2
 510 0114 00000000 		.word	FLAG_RED
 511 0118 00000000 		.word	RED_data
 512 011c 00000000 		.word	IR_data
 513 0120 50000000 		.word	.LC5
 514 0124 5C000000 		.word	.LC6
 515 0128 00000000 		.word	GUI_Font13_1
 516 012c F8100000 		.word	.LANCHOR1
 517 0130 68000000 		.word	.LC7
 518              		.cfi_endproc
 519              	.LFE664:
 520              		.size	drawAffichageCourbe, .-drawAffichageCourbe
ARM GAS  C:\Users\Mathieu\AppData\Local\Temp\ccqdbTbw.s 			page 14


 521              		.section	.text.draw_MenuPrincipal,"ax",%progbits
 522              		.align	2
 523              		.global	draw_MenuPrincipal
 524              		.thumb
 525              		.thumb_func
 526              		.type	draw_MenuPrincipal, %function
 527              	draw_MenuPrincipal:
 528              	.LFB665:
 216:interface.c   **** 
 217:interface.c   **** /*******************************************************************************
 218:interface.c   **** * Function Name:void draw_MenuPrincipal(void)
 219:interface.c   **** ********************************************************************************
 220:interface.c   **** *
 221:interface.c   **** * Summary: Affichage du menu principal
 222:interface.c   **** *
 223:interface.c   **** * Parameters:
 224:interface.c   **** *  None
 225:interface.c   **** *
 226:interface.c   **** * Return:
 227:interface.c   **** *  None
 228:interface.c   **** *
 229:interface.c   **** *******************************************************************************/
 230:interface.c   **** void draw_MenuPrincipal(void)
 231:interface.c   **** {
 529              		.loc 1 231 0
 530              		.cfi_startproc
 531              		@ args = 0, pretend = 0, frame = 0
 532              		@ frame_needed = 0, uses_anonymous_args = 0
 533 0000 08B5     		push	{r3, lr}
 534              		.cfi_def_cfa_offset 8
 535              		.cfi_offset 3, -8
 536              		.cfi_offset 14, -4
 232:interface.c   ****     GUI_Clear();
 537              		.loc 1 232 0
 538 0002 FFF7FEFF 		bl	GUI_Clear
 539              	.LVL61:
 233:interface.c   ****     
 234:interface.c   ****     GUI_SetPenSize(2);
 540              		.loc 1 234 0
 541 0006 0220     		movs	r0, #2
 542 0008 FFF7FEFF 		bl	GUI_SetPenSize
 543              	.LVL62:
 235:interface.c   ****     GUI_SetFont(GUI_FONT_13B_1);
 544              		.loc 1 235 0
 545 000c 5848     		ldr	r0, .L39
 546 000e FFF7FEFF 		bl	GUI_SetFont
 547              	.LVL63:
 236:interface.c   ****     
 237:interface.c   ****     GUI_DrawRect(82,4,182,24);  // MENU
 548              		.loc 1 237 0
 549 0012 1823     		movs	r3, #24
 550 0014 B622     		movs	r2, #182
 551 0016 0421     		movs	r1, #4
 552 0018 5220     		movs	r0, #82
 553 001a FFF7FEFF 		bl	GUI_DrawRect
 554              	.LVL64:
 238:interface.c   ****     GUI_DispStringAt("MENU", 118, 8);
ARM GAS  C:\Users\Mathieu\AppData\Local\Temp\ccqdbTbw.s 			page 15


 555              		.loc 1 238 0
 556 001e 0822     		movs	r2, #8
 557 0020 7621     		movs	r1, #118
 558 0022 5448     		ldr	r0, .L39+4
 559 0024 FFF7FEFF 		bl	GUI_DispStringAt
 560              	.LVL65:
 239:interface.c   ****     
 240:interface.c   ****     GUI_DrawRect(7,28,257,48);
 561              		.loc 1 240 0
 562 0028 3023     		movs	r3, #48
 563 002a 40F20112 		movw	r2, #257
 564 002e 1C21     		movs	r1, #28
 565 0030 0720     		movs	r0, #7
 566 0032 FFF7FEFF 		bl	GUI_DrawRect
 567              	.LVL66:
 241:interface.c   ****     GUI_DrawRect(10,32,30,44);
 568              		.loc 1 241 0
 569 0036 2C23     		movs	r3, #44
 570 0038 1E22     		movs	r2, #30
 571 003a 2021     		movs	r1, #32
 572 003c 0A20     		movs	r0, #10
 573 003e FFF7FEFF 		bl	GUI_DrawRect
 574              	.LVL67:
 242:interface.c   ****     GUI_DispStringAt("Choix de la courbe (R/IR)", 60, 32);
 575              		.loc 1 242 0
 576 0042 2022     		movs	r2, #32
 577 0044 3C21     		movs	r1, #60
 578 0046 4C48     		ldr	r0, .L39+8
 579 0048 FFF7FEFF 		bl	GUI_DispStringAt
 580              	.LVL68:
 243:interface.c   ****    
 244:interface.c   ****     GUI_DrawRect(7,52,257,72);
 581              		.loc 1 244 0
 582 004c 4823     		movs	r3, #72
 583 004e 40F20112 		movw	r2, #257
 584 0052 3421     		movs	r1, #52
 585 0054 0720     		movs	r0, #7
 586 0056 FFF7FEFF 		bl	GUI_DrawRect
 587              	.LVL69:
 245:interface.c   ****     GUI_DrawRect(10,56,30,68);
 588              		.loc 1 245 0
 589 005a 4423     		movs	r3, #68
 590 005c 1E22     		movs	r2, #30
 591 005e 3821     		movs	r1, #56
 592 0060 0A20     		movs	r0, #10
 593 0062 FFF7FEFF 		bl	GUI_DrawRect
 594              	.LVL70:
 246:interface.c   ****     GUI_DispStringAt("Borne superieure HR", 60, 56);
 595              		.loc 1 246 0
 596 0066 3822     		movs	r2, #56
 597 0068 3C21     		movs	r1, #60
 598 006a 4448     		ldr	r0, .L39+12
 599 006c FFF7FEFF 		bl	GUI_DispStringAt
 600              	.LVL71:
 247:interface.c   ****     
 248:interface.c   ****     GUI_DrawRect(7,76,257,96);
 601              		.loc 1 248 0
ARM GAS  C:\Users\Mathieu\AppData\Local\Temp\ccqdbTbw.s 			page 16


 602 0070 6023     		movs	r3, #96
 603 0072 40F20112 		movw	r2, #257
 604 0076 4C21     		movs	r1, #76
 605 0078 0720     		movs	r0, #7
 606 007a FFF7FEFF 		bl	GUI_DrawRect
 607              	.LVL72:
 249:interface.c   ****     GUI_DrawRect(10,80,30,92);
 608              		.loc 1 249 0
 609 007e 5C23     		movs	r3, #92
 610 0080 1E22     		movs	r2, #30
 611 0082 5021     		movs	r1, #80
 612 0084 0A20     		movs	r0, #10
 613 0086 FFF7FEFF 		bl	GUI_DrawRect
 614              	.LVL73:
 250:interface.c   ****     GUI_DispStringAt("Borne inferieure HR", 60, 80);
 615              		.loc 1 250 0
 616 008a 5022     		movs	r2, #80
 617 008c 3C21     		movs	r1, #60
 618 008e 3C48     		ldr	r0, .L39+16
 619 0090 FFF7FEFF 		bl	GUI_DispStringAt
 620              	.LVL74:
 251:interface.c   ****     
 252:interface.c   ****     GUI_DrawRect(7,100,257,120);
 621              		.loc 1 252 0
 622 0094 7823     		movs	r3, #120
 623 0096 40F20112 		movw	r2, #257
 624 009a 6421     		movs	r1, #100
 625 009c 0720     		movs	r0, #7
 626 009e FFF7FEFF 		bl	GUI_DrawRect
 627              	.LVL75:
 253:interface.c   ****     GUI_DrawRect(10,104,30,116);
 628              		.loc 1 253 0
 629 00a2 7423     		movs	r3, #116
 630 00a4 1E22     		movs	r2, #30
 631 00a6 6821     		movs	r1, #104
 632 00a8 0A20     		movs	r0, #10
 633 00aa FFF7FEFF 		bl	GUI_DrawRect
 634              	.LVL76:
 254:interface.c   ****     GUI_DispStringAt("Borne inferieure SPO2", 60, 104);
 635              		.loc 1 254 0
 636 00ae 6822     		movs	r2, #104
 637 00b0 3C21     		movs	r1, #60
 638 00b2 3448     		ldr	r0, .L39+20
 639 00b4 FFF7FEFF 		bl	GUI_DispStringAt
 640              	.LVL77:
 255:interface.c   ****     
 256:interface.c   ****     GUI_DrawRect(7,124,257,144);
 641              		.loc 1 256 0
 642 00b8 9023     		movs	r3, #144
 643 00ba 40F20112 		movw	r2, #257
 644 00be 7C21     		movs	r1, #124
 645 00c0 0720     		movs	r0, #7
 646 00c2 FFF7FEFF 		bl	GUI_DrawRect
 647              	.LVL78:
 257:interface.c   ****     GUI_DrawRect(10,128,30,140);
 648              		.loc 1 257 0
 649 00c6 8C23     		movs	r3, #140
ARM GAS  C:\Users\Mathieu\AppData\Local\Temp\ccqdbTbw.s 			page 17


 650 00c8 1E22     		movs	r2, #30
 651 00ca 8021     		movs	r1, #128
 652 00cc 0A20     		movs	r0, #10
 653 00ce FFF7FEFF 		bl	GUI_DrawRect
 654              	.LVL79:
 258:interface.c   ****     GUI_DispStringAt("Courant de la DEL 1 (Rouge)", 60, 128);
 655              		.loc 1 258 0
 656 00d2 8022     		movs	r2, #128
 657 00d4 3C21     		movs	r1, #60
 658 00d6 2C48     		ldr	r0, .L39+24
 659 00d8 FFF7FEFF 		bl	GUI_DispStringAt
 660              	.LVL80:
 259:interface.c   ****     
 260:interface.c   ****     GUI_DrawRect(7,148,257,168);
 661              		.loc 1 260 0
 662 00dc A823     		movs	r3, #168
 663 00de 40F20112 		movw	r2, #257
 664 00e2 9421     		movs	r1, #148
 665 00e4 0720     		movs	r0, #7
 666 00e6 FFF7FEFF 		bl	GUI_DrawRect
 667              	.LVL81:
 261:interface.c   ****     GUI_DrawRect(10,152,30,164);
 668              		.loc 1 261 0
 669 00ea A423     		movs	r3, #164
 670 00ec 1E22     		movs	r2, #30
 671 00ee 9821     		movs	r1, #152
 672 00f0 0A20     		movs	r0, #10
 673 00f2 FFF7FEFF 		bl	GUI_DrawRect
 674              	.LVL82:
 262:interface.c   ****     GUI_DispStringAt("Courant de la DEL 2 (infrarouge)", 60, 152);
 675              		.loc 1 262 0
 676 00f6 9822     		movs	r2, #152
 677 00f8 3C21     		movs	r1, #60
 678 00fa 2448     		ldr	r0, .L39+28
 679 00fc FFF7FEFF 		bl	GUI_DispStringAt
 680              	.LVL83:
 263:interface.c   ****     
 264:interface.c   ****     //Choix de l'option 
 265:interface.c   ****        
 266:interface.c   ****     switch (FLAG_option)
 681              		.loc 1 266 0
 682 0100 234B     		ldr	r3, .L39+32
 683 0102 1B68     		ldr	r3, [r3]
 684 0104 013B     		subs	r3, r3, #1
 685 0106 052B     		cmp	r3, #5
 686 0108 2DD8     		bhi	.L30
 687 010a DFE803F0 		tbb	[pc, r3]
 688              	.L32:
 689 010e 03       		.byte	(.L31-.L32)/2
 690 010f 0A       		.byte	(.L33-.L32)/2
 691 0110 11       		.byte	(.L34-.L32)/2
 692 0111 18       		.byte	(.L35-.L32)/2
 693 0112 1F       		.byte	(.L36-.L32)/2
 694 0113 26       		.byte	(.L37-.L32)/2
 695              		.p2align 1
 696              	.L31:
 267:interface.c   ****     {
ARM GAS  C:\Users\Mathieu\AppData\Local\Temp\ccqdbTbw.s 			page 18


 268:interface.c   ****         case 1:
 269:interface.c   ****         GUI_FillRect(10,32,30,44);
 697              		.loc 1 269 0
 698 0114 2C23     		movs	r3, #44
 699 0116 1E22     		movs	r2, #30
 700 0118 2021     		movs	r1, #32
 701 011a 0A20     		movs	r0, #10
 702 011c FFF7FEFF 		bl	GUI_FillRect
 703              	.LVL84:
 270:interface.c   ****         break;
 704              		.loc 1 270 0
 705 0120 21E0     		b	.L30
 706              	.L33:
 271:interface.c   **** 
 272:interface.c   ****         case 2:
 273:interface.c   ****         GUI_FillRect(10,56,30,68);
 707              		.loc 1 273 0
 708 0122 4423     		movs	r3, #68
 709 0124 1E22     		movs	r2, #30
 710 0126 3821     		movs	r1, #56
 711 0128 0A20     		movs	r0, #10
 712 012a FFF7FEFF 		bl	GUI_FillRect
 713              	.LVL85:
 274:interface.c   ****         break;
 714              		.loc 1 274 0
 715 012e 1AE0     		b	.L30
 716              	.L34:
 275:interface.c   ****         
 276:interface.c   ****         case 3:
 277:interface.c   ****         GUI_FillRect(10,80,30,92);
 717              		.loc 1 277 0
 718 0130 5C23     		movs	r3, #92
 719 0132 1E22     		movs	r2, #30
 720 0134 5021     		movs	r1, #80
 721 0136 0A20     		movs	r0, #10
 722 0138 FFF7FEFF 		bl	GUI_FillRect
 723              	.LVL86:
 278:interface.c   ****         break;
 724              		.loc 1 278 0
 725 013c 13E0     		b	.L30
 726              	.L35:
 279:interface.c   ****         
 280:interface.c   ****         case 4:
 281:interface.c   ****         GUI_FillRect(10,104,30,116);
 727              		.loc 1 281 0
 728 013e 7423     		movs	r3, #116
 729 0140 1E22     		movs	r2, #30
 730 0142 6821     		movs	r1, #104
 731 0144 0A20     		movs	r0, #10
 732 0146 FFF7FEFF 		bl	GUI_FillRect
 733              	.LVL87:
 282:interface.c   ****         break;
 734              		.loc 1 282 0
 735 014a 0CE0     		b	.L30
 736              	.L36:
 283:interface.c   ****         
 284:interface.c   ****         case 5:
ARM GAS  C:\Users\Mathieu\AppData\Local\Temp\ccqdbTbw.s 			page 19


 285:interface.c   ****         GUI_FillRect(10,128,30,140);
 737              		.loc 1 285 0
 738 014c 8C23     		movs	r3, #140
 739 014e 1E22     		movs	r2, #30
 740 0150 8021     		movs	r1, #128
 741 0152 0A20     		movs	r0, #10
 742 0154 FFF7FEFF 		bl	GUI_FillRect
 743              	.LVL88:
 286:interface.c   ****         break;
 744              		.loc 1 286 0
 745 0158 05E0     		b	.L30
 746              	.L37:
 287:interface.c   ****         
 288:interface.c   ****         case 6:
 289:interface.c   ****         GUI_FillRect(10,152,30,164);
 747              		.loc 1 289 0
 748 015a A423     		movs	r3, #164
 749 015c 1E22     		movs	r2, #30
 750 015e 9821     		movs	r1, #152
 751 0160 0A20     		movs	r0, #10
 752 0162 FFF7FEFF 		bl	GUI_FillRect
 753              	.LVL89:
 754              	.L30:
 290:interface.c   ****         break;
 291:interface.c   **** 
 292:interface.c   ****     }
 293:interface.c   **** 
 294:interface.c   ****     UpdateDisplay(CY_EINK_FULL_4STAGE, true);
 755              		.loc 1 294 0
 756 0166 0121     		movs	r1, #1
 757 0168 0846     		mov	r0, r1
 758 016a FFF7FEFF 		bl	UpdateDisplay
 759              	.LVL90:
 760 016e 08BD     		pop	{r3, pc}
 761              	.L40:
 762              		.align	2
 763              	.L39:
 764 0170 00000000 		.word	GUI_Font13B_1
 765 0174 6C000000 		.word	.LC8
 766 0178 74000000 		.word	.LC9
 767 017c 90000000 		.word	.LC10
 768 0180 A4000000 		.word	.LC11
 769 0184 B8000000 		.word	.LC12
 770 0188 D0000000 		.word	.LC13
 771 018c EC000000 		.word	.LC14
 772 0190 00000000 		.word	FLAG_option
 773              		.cfi_endproc
 774              	.LFE665:
 775              		.size	draw_MenuPrincipal, .-draw_MenuPrincipal
 776              		.section	.text.draw_SousMenu,"ax",%progbits
 777              		.align	2
 778              		.global	draw_SousMenu
 779              		.thumb
 780              		.thumb_func
 781              		.type	draw_SousMenu, %function
 782              	draw_SousMenu:
 783              	.LFB666:
ARM GAS  C:\Users\Mathieu\AppData\Local\Temp\ccqdbTbw.s 			page 20


 295:interface.c   **** 
 296:interface.c   **** }
 297:interface.c   **** 
 298:interface.c   **** /*******************************************************************************
 299:interface.c   **** * Function Name:void draw_SousMenu(void)
 300:interface.c   **** ********************************************************************************
 301:interface.c   **** *
 302:interface.c   **** * Summary: Affichage des sous-menus
 303:interface.c   **** *
 304:interface.c   **** * Parameters:
 305:interface.c   **** *  None
 306:interface.c   **** *
 307:interface.c   **** * Return:
 308:interface.c   **** *  None
 309:interface.c   **** *
 310:interface.c   **** *******************************************************************************/
 311:interface.c   **** void draw_SousMenu(void)
 312:interface.c   **** {
 784              		.loc 1 312 0
 785              		.cfi_startproc
 786              		@ args = 0, pretend = 0, frame = 24
 787              		@ frame_needed = 0, uses_anonymous_args = 0
 788 0000 70B5     		push	{r4, r5, r6, lr}
 789              		.cfi_def_cfa_offset 16
 790              		.cfi_offset 4, -16
 791              		.cfi_offset 5, -12
 792              		.cfi_offset 6, -8
 793              		.cfi_offset 14, -4
 794 0002 86B0     		sub	sp, sp, #24
 795              		.cfi_def_cfa_offset 40
 313:interface.c   ****     GUI_Clear();
 796              		.loc 1 313 0
 797 0004 FFF7FEFF 		bl	GUI_Clear
 798              	.LVL91:
 314:interface.c   ****     int button0_pressed =0;
 315:interface.c   ****     int button1_pressed =0;
 316:interface.c   ****     int slider_pos = 0xFFFF;
 317:interface.c   ****     
 318:interface.c   ****     switch (FLAG_menu)
 799              		.loc 1 318 0
 800 0008 B84B     		ldr	r3, .L98
 801 000a 1B68     		ldr	r3, [r3]
 802 000c 023B     		subs	r3, r3, #2
 803 000e 052B     		cmp	r3, #5
 804 0010 00F2D483 		bhi	.L42
 805 0014 DFE813F0 		tbh	[pc, r3, lsl #1]
 806              	.L44:
 807 0018 0600     		.2byte	(.L43-.L44)/2
 808 001a 6600     		.2byte	(.L45-.L44)/2
 809 001c 0B01     		.2byte	(.L46-.L44)/2
 810 001e DB01     		.2byte	(.L47-.L44)/2
 811 0020 7302     		.2byte	(.L48-.L44)/2
 812 0022 3603     		.2byte	(.L49-.L44)/2
 813              		.p2align 1
 814              	.L43:
 815              	.LBB13:
 319:interface.c   ****     {
ARM GAS  C:\Users\Mathieu\AppData\Local\Temp\ccqdbTbw.s 			page 21


 320:interface.c   ****         case 2:
 321:interface.c   ****         
 322:interface.c   ****             GUI_DrawRect(22,4,242,30);
 816              		.loc 1 322 0
 817 0024 1E23     		movs	r3, #30
 818 0026 F222     		movs	r2, #242
 819 0028 0421     		movs	r1, #4
 820 002a 1620     		movs	r0, #22
 821 002c FFF7FEFF 		bl	GUI_DrawRect
 822              	.LVL92:
 323:interface.c   ****             GUI_SetFont(GUI_FONT_16B_1);
 823              		.loc 1 323 0
 824 0030 AF48     		ldr	r0, .L98+4
 825 0032 FFF7FEFF 		bl	GUI_SetFont
 826              	.LVL93:
 324:interface.c   ****             GUI_DispStringAt("Choix de la courbe (R/IR)", 50, 8);
 827              		.loc 1 324 0
 828 0036 0822     		movs	r2, #8
 829 0038 3221     		movs	r1, #50
 830 003a AE48     		ldr	r0, .L98+8
 831 003c FFF7FEFF 		bl	GUI_DispStringAt
 832              	.LVL94:
 325:interface.c   ****             GUI_SetFont(GUI_FONT_13_1);
 833              		.loc 1 325 0
 834 0040 AD48     		ldr	r0, .L98+12
 835 0042 FFF7FEFF 		bl	GUI_SetFont
 836              	.LVL95:
 326:interface.c   ****             GUI_DispStringAt("Bouton 0 : Changer | SW2 : Appliquer", 40, 34);
 837              		.loc 1 326 0
 838 0046 2222     		movs	r2, #34
 839 0048 2821     		movs	r1, #40
 840 004a AC48     		ldr	r0, .L98+16
 841 004c FFF7FEFF 		bl	GUI_DispStringAt
 842              	.LVL96:
 327:interface.c   ****             GUI_SetFont(GUI_FONT_13B_1);
 843              		.loc 1 327 0
 844 0050 AB48     		ldr	r0, .L98+20
 845 0052 FFF7FEFF 		bl	GUI_SetFont
 846              	.LVL97:
 328:interface.c   ****             GUI_DispStringAt("R", 105, 100);
 847              		.loc 1 328 0
 848 0056 6422     		movs	r2, #100
 849 0058 6921     		movs	r1, #105
 850 005a AA48     		ldr	r0, .L98+24
 851 005c FFF7FEFF 		bl	GUI_DispStringAt
 852              	.LVL98:
 329:interface.c   ****             GUI_DispStringAt("IR", 175, 100);
 853              		.loc 1 329 0
 854 0060 6422     		movs	r2, #100
 855 0062 AF21     		movs	r1, #175
 856 0064 A848     		ldr	r0, .L98+28
 857 0066 FFF7FEFF 		bl	GUI_DispStringAt
 858              	.LVL99:
 330:interface.c   ****       
 331:interface.c   ****             if(FLAG_RED ==1)
 859              		.loc 1 331 0
 860 006a A84B     		ldr	r3, .L98+32
ARM GAS  C:\Users\Mathieu\AppData\Local\Temp\ccqdbTbw.s 			page 22


 861 006c 1B68     		ldr	r3, [r3]
 862 006e 012B     		cmp	r3, #1
 863 0070 0CD1     		bne	.L50
 332:interface.c   ****             {
 333:interface.c   ****                 GUI_FillRect(92,102,100,110);
 864              		.loc 1 333 0
 865 0072 6E23     		movs	r3, #110
 866 0074 6422     		movs	r2, #100
 867 0076 6621     		movs	r1, #102
 868 0078 5C20     		movs	r0, #92
 869 007a FFF7FEFF 		bl	GUI_FillRect
 870              	.LVL100:
 334:interface.c   ****                 GUI_DrawRect(162,102,170,110);
 871              		.loc 1 334 0
 872 007e 6E23     		movs	r3, #110
 873 0080 AA22     		movs	r2, #170
 874 0082 6621     		movs	r1, #102
 875 0084 A220     		movs	r0, #162
 876 0086 FFF7FEFF 		bl	GUI_DrawRect
 877              	.LVL101:
 878 008a 0BE0     		b	.L51
 879              	.L50:
 335:interface.c   ****             }
 336:interface.c   ****             else
 337:interface.c   ****             {
 338:interface.c   ****                 GUI_DrawRect(92,102,100,110);
 880              		.loc 1 338 0
 881 008c 6E23     		movs	r3, #110
 882 008e 6422     		movs	r2, #100
 883 0090 6621     		movs	r1, #102
 884 0092 5C20     		movs	r0, #92
 885 0094 FFF7FEFF 		bl	GUI_DrawRect
 886              	.LVL102:
 339:interface.c   ****                 GUI_FillRect(162,102,170,110);
 887              		.loc 1 339 0
 888 0098 6E23     		movs	r3, #110
 889 009a AA22     		movs	r2, #170
 890 009c 6621     		movs	r1, #102
 891 009e A220     		movs	r0, #162
 892 00a0 FFF7FEFF 		bl	GUI_FillRect
 893              	.LVL103:
 894              	.L51:
 340:interface.c   ****             }
 341:interface.c   **** 
 342:interface.c   ****             UpdateDisplay(CY_EINK_FULL_4STAGE, true);
 895              		.loc 1 342 0
 896 00a4 0121     		movs	r1, #1
 897 00a6 0846     		mov	r0, r1
 898 00a8 FFF7FEFF 		bl	UpdateDisplay
 899              	.LVL104:
 900              	.LBE13:
 314:interface.c   ****     int button1_pressed =0;
 901              		.loc 1 314 0
 902 00ac 0024     		movs	r4, #0
 903              	.LBB14:
 343:interface.c   ****           
 344:interface.c   ****             while(button0_pressed == 0 && FLAG_menu > 0){
ARM GAS  C:\Users\Mathieu\AppData\Local\Temp\ccqdbTbw.s 			page 23


 904              		.loc 1 344 0
 905 00ae 0AE0     		b	.L53
 906              	.LVL105:
 907              	.L55:
 345:interface.c   ****                     
 346:interface.c   ****                 CapSense_ScanAllWidgets();
 908              		.loc 1 346 0
 909 00b0 FFF7FEFF 		bl	CapSense_ScanAllWidgets
 910              	.LVL106:
 347:interface.c   **** 
 348:interface.c   ****                 if(!CapSense_IsBusy())
 911              		.loc 1 348 0
 912 00b4 FFF7FEFF 		bl	CapSense_IsBusy
 913              	.LVL107:
 914 00b8 28B9     		cbnz	r0, .L53
 349:interface.c   ****                 {
 350:interface.c   ****                     CapSense_ProcessAllWidgets();
 915              		.loc 1 350 0
 916 00ba FFF7FEFF 		bl	CapSense_ProcessAllWidgets
 917              	.LVL108:
 351:interface.c   ****                     button0_pressed = CapSense_IsWidgetActive(CapSense_BUTTON0_WDGT_ID); 
 918              		.loc 1 351 0
 919 00be 0220     		movs	r0, #2
 920 00c0 FFF7FEFF 		bl	CapSense_IsWidgetActive
 921              	.LVL109:
 922 00c4 0446     		mov	r4, r0
 923              	.LVL110:
 924              	.L53:
 344:interface.c   ****                     
 925              		.loc 1 344 0
 926 00c6 1CB9     		cbnz	r4, .L54
 344:interface.c   ****                     
 927              		.loc 1 344 0 is_stmt 0 discriminator 1
 928 00c8 884B     		ldr	r3, .L98
 929 00ca 1B68     		ldr	r3, [r3]
 930 00cc 002B     		cmp	r3, #0
 931 00ce EFDC     		bgt	.L55
 932              	.L54:
 352:interface.c   ****                 }  
 353:interface.c   ****             } 
 354:interface.c   ****             
 355:interface.c   ****             if (button0_pressed)
 933              		.loc 1 355 0 is_stmt 1
 934 00d0 002C     		cmp	r4, #0
 935 00d2 00F07383 		beq	.L42
 356:interface.c   ****             {
 357:interface.c   ****                 FLAG_RED = !FLAG_RED;
 936              		.loc 1 357 0
 937 00d6 8D4A     		ldr	r2, .L98+32
 938 00d8 1368     		ldr	r3, [r2]
 939 00da B3FA83F3 		clz	r3, r3
 940 00de 5B09     		lsrs	r3, r3, #5
 941 00e0 1360     		str	r3, [r2]
 942 00e2 6BE3     		b	.L42
 943              	.LVL111:
 944              	.L45:
 358:interface.c   ****             }
ARM GAS  C:\Users\Mathieu\AppData\Local\Temp\ccqdbTbw.s 			page 24


 359:interface.c   ****        
 360:interface.c   ****         break;
 361:interface.c   ****                 
 362:interface.c   ****         case 3:
 363:interface.c   ****             
 364:interface.c   ****             GUI_DrawRect(22,4,242,30);
 945              		.loc 1 364 0
 946 00e4 1E23     		movs	r3, #30
 947 00e6 F222     		movs	r2, #242
 948 00e8 0421     		movs	r1, #4
 949 00ea 1620     		movs	r0, #22
 950 00ec FFF7FEFF 		bl	GUI_DrawRect
 951              	.LVL112:
 365:interface.c   ****             GUI_SetFont(GUI_FONT_16B_1);
 952              		.loc 1 365 0
 953 00f0 7F48     		ldr	r0, .L98+4
 954 00f2 FFF7FEFF 		bl	GUI_SetFont
 955              	.LVL113:
 366:interface.c   ****             GUI_DispStringAt("Borne superieure HR", 55, 8);
 956              		.loc 1 366 0
 957 00f6 0822     		movs	r2, #8
 958 00f8 3721     		movs	r1, #55
 959 00fa 8548     		ldr	r0, .L98+36
 960 00fc FFF7FEFF 		bl	GUI_DispStringAt
 961              	.LVL114:
 367:interface.c   ****             GUI_SetFont(GUI_FONT_13_1);
 962              		.loc 1 367 0
 963 0100 7D48     		ldr	r0, .L98+12
 964 0102 FFF7FEFF 		bl	GUI_SetFont
 965              	.LVL115:
 368:interface.c   ****             GUI_DispStringAt("Bouton 0 : Diminuer | Bouton 1 : Augmenter", 30, 34);
 966              		.loc 1 368 0
 967 0106 2222     		movs	r2, #34
 968 0108 1E21     		movs	r1, #30
 969 010a 8248     		ldr	r0, .L98+40
 970 010c FFF7FEFF 		bl	GUI_DispStringAt
 971              	.LVL116:
 369:interface.c   ****             GUI_DispStringAt("Slider : Diminuer/Augmenter | SW2: Appliquer", 20, 50);
 972              		.loc 1 369 0
 973 0110 3222     		movs	r2, #50
 974 0112 1421     		movs	r1, #20
 975 0114 8048     		ldr	r0, .L98+44
 976 0116 FFF7FEFF 		bl	GUI_DispStringAt
 977              	.LVL117:
 370:interface.c   ****           
 371:interface.c   ****             GUI_SetFont(GUI_FONT_13B_1);
 978              		.loc 1 371 0
 979 011a 7948     		ldr	r0, .L98+20
 980 011c FFF7FEFF 		bl	GUI_SetFont
 981              	.LVL118:
 372:interface.c   ****             GUI_DrawRect(32,95,232,110);
 982              		.loc 1 372 0
 983 0120 6E23     		movs	r3, #110
 984 0122 E822     		movs	r2, #232
 985 0124 5F21     		movs	r1, #95
 986 0126 2020     		movs	r0, #32
 987 0128 FFF7FEFF 		bl	GUI_DrawRect
ARM GAS  C:\Users\Mathieu\AppData\Local\Temp\ccqdbTbw.s 			page 25


 988              	.LVL119:
 373:interface.c   ****             GUI_DispStringAt("60 BPM", 28, 80);
 989              		.loc 1 373 0
 990 012c 5022     		movs	r2, #80
 991 012e 1C21     		movs	r1, #28
 992 0130 7A48     		ldr	r0, .L98+48
 993 0132 FFF7FEFF 		bl	GUI_DispStringAt
 994              	.LVL120:
 374:interface.c   ****             GUI_DispStringAt("120 BPM", 210, 80);
 995              		.loc 1 374 0
 996 0136 5022     		movs	r2, #80
 997 0138 D221     		movs	r1, #210
 998 013a 7948     		ldr	r0, .L98+52
 999 013c FFF7FEFF 		bl	GUI_DispStringAt
 1000              	.LVL121:
 375:interface.c   ****             GUI_FillRect(32,95,32+(HR_max_alarm-60)*200/60,110);
 1001              		.loc 1 375 0
 1002 0140 784C     		ldr	r4, .L98+56
 1003 0142 2368     		ldr	r3, [r4]
 1004 0144 A3F13C02 		sub	r2, r3, #60
 1005 0148 C823     		movs	r3, #200
 1006 014a 03FB02F3 		mul	r3, r3, r2
 1007 014e 764A     		ldr	r2, .L98+60
 1008 0150 82FB0312 		smull	r1, r2, r2, r3
 1009 0154 1A44     		add	r2, r2, r3
 1010 0156 DB17     		asrs	r3, r3, #31
 1011 0158 C3EB6212 		rsb	r2, r3, r2, asr #5
 1012 015c 6E23     		movs	r3, #110
 1013 015e 2032     		adds	r2, r2, #32
 1014 0160 5F21     		movs	r1, #95
 1015 0162 2020     		movs	r0, #32
 1016 0164 FFF7FEFF 		bl	GUI_FillRect
 1017              	.LVL122:
 376:interface.c   ****             
 377:interface.c   ****             GUI_SetFont(GUI_FONT_20B_1);
 1018              		.loc 1 377 0
 1019 0168 7048     		ldr	r0, .L98+64
 1020 016a FFF7FEFF 		bl	GUI_SetFont
 1021              	.LVL123:
 378:interface.c   ****             GUI_DrawRect(80,130,190,160);
 1022              		.loc 1 378 0
 1023 016e A023     		movs	r3, #160
 1024 0170 BE22     		movs	r2, #190
 1025 0172 8221     		movs	r1, #130
 1026 0174 5020     		movs	r0, #80
 1027 0176 FFF7FEFF 		bl	GUI_DrawRect
 1028              	.LVL124:
 379:interface.c   ****             
 380:interface.c   ****             char HR_max_alarm_str[20];
 381:interface.c   ****             sprintf(HR_max_alarm_str,"%d",HR_max_alarm);
 1029              		.loc 1 381 0
 1030 017a 2268     		ldr	r2, [r4]
 1031 017c 6C49     		ldr	r1, .L98+68
 1032 017e 01A8     		add	r0, sp, #4
 1033 0180 FFF7FEFF 		bl	sprintf
 1034              	.LVL125:
 382:interface.c   ****             GUI_DispStringAt(HR_max_alarm_str, 120 , 135);
ARM GAS  C:\Users\Mathieu\AppData\Local\Temp\ccqdbTbw.s 			page 26


 1035              		.loc 1 382 0
 1036 0184 8722     		movs	r2, #135
 1037 0186 7821     		movs	r1, #120
 1038 0188 01A8     		add	r0, sp, #4
 1039 018a FFF7FEFF 		bl	GUI_DispStringAt
 1040              	.LVL126:
 383:interface.c   ****             
 384:interface.c   ****             UpdateDisplay(CY_EINK_FULL_4STAGE, true);
 1041              		.loc 1 384 0
 1042 018e 0121     		movs	r1, #1
 1043 0190 0846     		mov	r0, r1
 1044 0192 FFF7FEFF 		bl	UpdateDisplay
 1045              	.LVL127:
 1046              	.LBE14:
 316:interface.c   ****     
 1047              		.loc 1 316 0
 1048 0196 4FF6FF74 		movw	r4, #65535
 315:interface.c   ****     int slider_pos = 0xFFFF;
 1049              		.loc 1 315 0
 1050 019a 0025     		movs	r5, #0
 314:interface.c   ****     int button1_pressed =0;
 1051              		.loc 1 314 0
 1052 019c 2E46     		mov	r6, r5
 1053              	.LBB15:
 385:interface.c   ****             
 386:interface.c   ****             while(slider_pos >=0xFFFF && button0_pressed == 0 && button1_pressed == 0 && FLAG_menu 
 1054              		.loc 1 386 0
 1055 019e 12E0     		b	.L58
 1056              	.LVL128:
 1057              	.L60:
 387:interface.c   ****                     
 388:interface.c   ****                 CapSense_ScanAllWidgets();
 1058              		.loc 1 388 0
 1059 01a0 FFF7FEFF 		bl	CapSense_ScanAllWidgets
 1060              	.LVL129:
 389:interface.c   **** 
 390:interface.c   ****                 if(!CapSense_IsBusy())
 1061              		.loc 1 390 0
 1062 01a4 FFF7FEFF 		bl	CapSense_IsBusy
 1063              	.LVL130:
 1064 01a8 68B9     		cbnz	r0, .L58
 391:interface.c   ****                 {
 392:interface.c   ****                     CapSense_ProcessAllWidgets();
 1065              		.loc 1 392 0
 1066 01aa FFF7FEFF 		bl	CapSense_ProcessAllWidgets
 1067              	.LVL131:
 393:interface.c   ****                     button0_pressed = CapSense_IsWidgetActive(CapSense_BUTTON0_WDGT_ID);
 1068              		.loc 1 393 0
 1069 01ae 0220     		movs	r0, #2
 1070 01b0 FFF7FEFF 		bl	CapSense_IsWidgetActive
 1071              	.LVL132:
 1072 01b4 0646     		mov	r6, r0
 1073              	.LVL133:
 394:interface.c   ****                     button1_pressed = CapSense_IsWidgetActive(CapSense_BUTTON1_WDGT_ID);
 1074              		.loc 1 394 0
 1075 01b6 0120     		movs	r0, #1
 1076              	.LVL134:
ARM GAS  C:\Users\Mathieu\AppData\Local\Temp\ccqdbTbw.s 			page 27


 1077 01b8 FFF7FEFF 		bl	CapSense_IsWidgetActive
 1078              	.LVL135:
 1079 01bc 0546     		mov	r5, r0
 1080              	.LVL136:
 395:interface.c   ****                     slider_pos = CapSense_GetCentroidPos(CapSense_LINEARSLIDER0_WDGT_ID);   
 1081              		.loc 1 395 0
 1082 01be 0020     		movs	r0, #0
 1083              	.LVL137:
 1084 01c0 FFF7FEFF 		bl	CapSense_GetCentroidPos
 1085              	.LVL138:
 1086 01c4 0446     		mov	r4, r0
 1087              	.LVL139:
 1088              	.L58:
 386:interface.c   ****                     
 1089              		.loc 1 386 0
 1090 01c6 4FF6FE73 		movw	r3, #65534
 1091 01ca 9C42     		cmp	r4, r3
 1092 01cc 05DD     		ble	.L59
 386:interface.c   ****                     
 1093              		.loc 1 386 0 is_stmt 0 discriminator 1
 1094 01ce 26B9     		cbnz	r6, .L59
 386:interface.c   ****                     
 1095              		.loc 1 386 0 discriminator 2
 1096 01d0 1DB9     		cbnz	r5, .L59
 386:interface.c   ****                     
 1097              		.loc 1 386 0 discriminator 3
 1098 01d2 464B     		ldr	r3, .L98
 1099 01d4 1B68     		ldr	r3, [r3]
 1100 01d6 002B     		cmp	r3, #0
 1101 01d8 E2DC     		bgt	.L60
 1102              	.L59:
 396:interface.c   ****                 }  
 397:interface.c   ****             } 
 398:interface.c   ****             
 399:interface.c   ****             if (button0_pressed)
 1103              		.loc 1 399 0 is_stmt 1
 1104 01da 1EB1     		cbz	r6, .L61
 400:interface.c   ****             {
 401:interface.c   ****                 HR_max_alarm -=1; 
 1105              		.loc 1 401 0
 1106 01dc 514A     		ldr	r2, .L98+56
 1107 01de 1368     		ldr	r3, [r2]
 1108 01e0 013B     		subs	r3, r3, #1
 1109 01e2 1360     		str	r3, [r2]
 1110              	.L61:
 402:interface.c   ****             }
 403:interface.c   ****             if (button1_pressed)
 1111              		.loc 1 403 0
 1112 01e4 1DB1     		cbz	r5, .L62
 404:interface.c   ****             {
 405:interface.c   ****                 HR_max_alarm +=1; 
 1113              		.loc 1 405 0
 1114 01e6 4F4A     		ldr	r2, .L98+56
 1115 01e8 1368     		ldr	r3, [r2]
 1116 01ea 0133     		adds	r3, r3, #1
 1117 01ec 1360     		str	r3, [r2]
 1118              	.L62:
ARM GAS  C:\Users\Mathieu\AppData\Local\Temp\ccqdbTbw.s 			page 28


 406:interface.c   ****             }
 407:interface.c   ****             
 408:interface.c   ****             if (slider_pos < 0xFFFF)
 1119              		.loc 1 408 0
 1120 01ee 4FF6FE73 		movw	r3, #65534
 1121 01f2 9C42     		cmp	r4, r3
 1122 01f4 0BDC     		bgt	.L63
 409:interface.c   ****             {
 410:interface.c   ****                 HR_max_alarm = 60 + slider_pos*60/100;
 1123              		.loc 1 410 0
 1124 01f6 C4EB0414 		rsb	r4, r4, r4, lsl #4
 1125              	.LVL140:
 1126 01fa A300     		lsls	r3, r4, #2
 1127 01fc 4D4A     		ldr	r2, .L98+72
 1128 01fe 82FB0312 		smull	r1, r2, r2, r3
 1129 0202 DB17     		asrs	r3, r3, #31
 1130 0204 C3EB6213 		rsb	r3, r3, r2, asr #5
 1131 0208 3C33     		adds	r3, r3, #60
 1132 020a 464A     		ldr	r2, .L98+56
 1133 020c 1360     		str	r3, [r2]
 1134              	.L63:
 411:interface.c   ****             }
 412:interface.c   ****             
 413:interface.c   ****             if(HR_max_alarm > 120)
 1135              		.loc 1 413 0
 1136 020e 454B     		ldr	r3, .L98+56
 1137 0210 1B68     		ldr	r3, [r3]
 1138 0212 782B     		cmp	r3, #120
 1139 0214 02DD     		ble	.L64
 414:interface.c   ****             {
 415:interface.c   ****             HR_max_alarm = 120;
 1140              		.loc 1 415 0
 1141 0216 7822     		movs	r2, #120
 1142 0218 424B     		ldr	r3, .L98+56
 1143 021a 1A60     		str	r2, [r3]
 1144              	.L64:
 416:interface.c   ****             }
 417:interface.c   ****             
 418:interface.c   ****             if(HR_max_alarm < 60)
 1145              		.loc 1 418 0
 1146 021c 414B     		ldr	r3, .L98+56
 1147 021e 1B68     		ldr	r3, [r3]
 1148 0220 3B2B     		cmp	r3, #59
 1149 0222 00F3CB82 		bgt	.L42
 419:interface.c   ****             {
 420:interface.c   ****             HR_max_alarm = 60;
 1150              		.loc 1 420 0
 1151 0226 3C22     		movs	r2, #60
 1152 0228 3E4B     		ldr	r3, .L98+56
 1153 022a 1A60     		str	r2, [r3]
 1154 022c C6E2     		b	.L42
 1155              	.LVL141:
 1156              	.L46:
 421:interface.c   ****             }
 422:interface.c   ****       
 423:interface.c   ****         break;
 424:interface.c   ****                 
ARM GAS  C:\Users\Mathieu\AppData\Local\Temp\ccqdbTbw.s 			page 29


 425:interface.c   ****         case 4:
 426:interface.c   ****             
 427:interface.c   ****             GUI_DrawRect(22,4,242,30);
 1157              		.loc 1 427 0
 1158 022e 1E23     		movs	r3, #30
 1159 0230 F222     		movs	r2, #242
 1160 0232 0421     		movs	r1, #4
 1161 0234 1620     		movs	r0, #22
 1162 0236 FFF7FEFF 		bl	GUI_DrawRect
 1163              	.LVL142:
 428:interface.c   ****             GUI_SetFont(GUI_FONT_16B_1);
 1164              		.loc 1 428 0
 1165 023a 2D48     		ldr	r0, .L98+4
 1166 023c FFF7FEFF 		bl	GUI_SetFont
 1167              	.LVL143:
 429:interface.c   ****             GUI_DispStringAt("Borne inferieure HR", 55, 8);
 1168              		.loc 1 429 0
 1169 0240 0822     		movs	r2, #8
 1170 0242 3721     		movs	r1, #55
 1171 0244 3C48     		ldr	r0, .L98+76
 1172 0246 FFF7FEFF 		bl	GUI_DispStringAt
 1173              	.LVL144:
 430:interface.c   ****             GUI_SetFont(GUI_FONT_13_1);
 1174              		.loc 1 430 0
 1175 024a 2B48     		ldr	r0, .L98+12
 1176 024c FFF7FEFF 		bl	GUI_SetFont
 1177              	.LVL145:
 431:interface.c   ****             GUI_DispStringAt("Bouton 0 : Diminuer | Bouton 1 : Augmenter", 30, 34);
 1178              		.loc 1 431 0
 1179 0250 2222     		movs	r2, #34
 1180 0252 1E21     		movs	r1, #30
 1181 0254 2F48     		ldr	r0, .L98+40
 1182 0256 FFF7FEFF 		bl	GUI_DispStringAt
 1183              	.LVL146:
 432:interface.c   ****             GUI_DispStringAt("Slider : Diminuer/Augmenter | SW2: Appliquer", 20, 50);
 1184              		.loc 1 432 0
 1185 025a 3222     		movs	r2, #50
 1186 025c 1421     		movs	r1, #20
 1187 025e 2E48     		ldr	r0, .L98+44
 1188 0260 FFF7FEFF 		bl	GUI_DispStringAt
 1189              	.LVL147:
 433:interface.c   ****           
 434:interface.c   ****             GUI_SetFont(GUI_FONT_13B_1);
 1190              		.loc 1 434 0
 1191 0264 2648     		ldr	r0, .L98+20
 1192 0266 FFF7FEFF 		bl	GUI_SetFont
 1193              	.LVL148:
 435:interface.c   ****             GUI_DrawRect(32,95,232,110);
 1194              		.loc 1 435 0
 1195 026a 6E23     		movs	r3, #110
 1196 026c E822     		movs	r2, #232
 1197 026e 5F21     		movs	r1, #95
 1198 0270 2020     		movs	r0, #32
 1199 0272 FFF7FEFF 		bl	GUI_DrawRect
 1200              	.LVL149:
 436:interface.c   ****             GUI_DispStringAt("30 BPM", 28, 80);
 1201              		.loc 1 436 0
ARM GAS  C:\Users\Mathieu\AppData\Local\Temp\ccqdbTbw.s 			page 30


 1202 0276 5022     		movs	r2, #80
 1203 0278 1C21     		movs	r1, #28
 1204 027a 3048     		ldr	r0, .L98+80
 1205 027c FFF7FEFF 		bl	GUI_DispStringAt
 1206              	.LVL150:
 437:interface.c   ****             GUI_DispStringAt("60 BPM", 210, 80);
 1207              		.loc 1 437 0
 1208 0280 5022     		movs	r2, #80
 1209 0282 D221     		movs	r1, #210
 1210 0284 2548     		ldr	r0, .L98+48
 1211 0286 FFF7FEFF 		bl	GUI_DispStringAt
 1212              	.LVL151:
 438:interface.c   ****             GUI_FillRect(32,95,32+(HR_min_alarm-30)*200/30,110);
 1213              		.loc 1 438 0
 1214 028a 264C     		ldr	r4, .L98+56
 1215 028c 6368     		ldr	r3, [r4, #4]
 1216 028e A3F11E02 		sub	r2, r3, #30
 1217 0292 C823     		movs	r3, #200
 1218 0294 03FB02F3 		mul	r3, r3, r2
 1219 0298 234A     		ldr	r2, .L98+60
 1220 029a 82FB0312 		smull	r1, r2, r2, r3
 1221 029e 1A44     		add	r2, r2, r3
 1222 02a0 DB17     		asrs	r3, r3, #31
 1223 02a2 C3EB2212 		rsb	r2, r3, r2, asr #4
 1224 02a6 6E23     		movs	r3, #110
 1225 02a8 2032     		adds	r2, r2, #32
 1226 02aa 5F21     		movs	r1, #95
 1227 02ac 2020     		movs	r0, #32
 1228 02ae FFF7FEFF 		bl	GUI_FillRect
 1229              	.LVL152:
 439:interface.c   ****             
 440:interface.c   ****             GUI_SetFont(GUI_FONT_20B_1);
 1230              		.loc 1 440 0
 1231 02b2 1E48     		ldr	r0, .L98+64
 1232 02b4 FFF7FEFF 		bl	GUI_SetFont
 1233              	.LVL153:
 441:interface.c   ****             GUI_DrawRect(80,130,190,160);
 1234              		.loc 1 441 0
 1235 02b8 A023     		movs	r3, #160
 1236 02ba BE22     		movs	r2, #190
 1237 02bc 8221     		movs	r1, #130
 1238 02be 5020     		movs	r0, #80
 1239 02c0 FFF7FEFF 		bl	GUI_DrawRect
 1240              	.LVL154:
 442:interface.c   ****             
 443:interface.c   ****             char HR_min_alarm_str[20];
 444:interface.c   ****             sprintf(HR_min_alarm_str,"%d",HR_min_alarm);
 1241              		.loc 1 444 0
 1242 02c4 6268     		ldr	r2, [r4, #4]
 1243 02c6 1A49     		ldr	r1, .L98+68
 1244 02c8 01A8     		add	r0, sp, #4
 1245 02ca FFF7FEFF 		bl	sprintf
 1246              	.LVL155:
 445:interface.c   ****             GUI_DispStringAt(HR_min_alarm_str, 120 , 135);
 1247              		.loc 1 445 0
 1248 02ce 8722     		movs	r2, #135
 1249 02d0 7821     		movs	r1, #120
ARM GAS  C:\Users\Mathieu\AppData\Local\Temp\ccqdbTbw.s 			page 31


 1250 02d2 01A8     		add	r0, sp, #4
 1251 02d4 FFF7FEFF 		bl	GUI_DispStringAt
 1252              	.LVL156:
 446:interface.c   ****             
 447:interface.c   ****             UpdateDisplay(CY_EINK_FULL_4STAGE, true);
 1253              		.loc 1 447 0
 1254 02d8 0121     		movs	r1, #1
 1255 02da 0846     		mov	r0, r1
 1256 02dc FFF7FEFF 		bl	UpdateDisplay
 1257              	.LVL157:
 1258              	.LBE15:
 316:interface.c   ****     
 1259              		.loc 1 316 0
 1260 02e0 4FF6FF74 		movw	r4, #65535
 315:interface.c   ****     int slider_pos = 0xFFFF;
 1261              		.loc 1 315 0
 1262 02e4 0025     		movs	r5, #0
 314:interface.c   ****     int button1_pressed =0;
 1263              		.loc 1 314 0
 1264 02e6 2E46     		mov	r6, r5
 1265              	.LBB16:
 448:interface.c   ****             
 449:interface.c   ****             while(slider_pos >=0xFFFF && button0_pressed == 0 && button1_pressed == 0 && FLAG_menu 
 1266              		.loc 1 449 0
 1267 02e8 3DE0     		b	.L66
 1268              	.L99:
 1269 02ea 00BF     		.align	2
 1270              	.L98:
 1271 02ec 00000000 		.word	FLAG_menu
 1272 02f0 00000000 		.word	GUI_Font16B_1
 1273 02f4 74000000 		.word	.LC9
 1274 02f8 00000000 		.word	GUI_Font13_1
 1275 02fc 10010000 		.word	.LC15
 1276 0300 00000000 		.word	GUI_Font13B_1
 1277 0304 0C000000 		.word	.LC1
 1278 0308 10000000 		.word	.LC2
 1279 030c 00000000 		.word	FLAG_RED
 1280 0310 90000000 		.word	.LC10
 1281 0314 38010000 		.word	.LC16
 1282 0318 64010000 		.word	.LC17
 1283 031c 94010000 		.word	.LC18
 1284 0320 9C010000 		.word	.LC19
 1285 0324 00000000 		.word	.LANCHOR2
 1286 0328 89888888 		.word	-2004318071
 1287 032c 00000000 		.word	GUI_Font20B_1
 1288 0330 68000000 		.word	.LC7
 1289 0334 1F85EB51 		.word	1374389535
 1290 0338 A4000000 		.word	.LC11
 1291 033c A4010000 		.word	.LC20
 1292              	.LVL158:
 1293              	.L68:
 450:interface.c   ****                     
 451:interface.c   ****                 CapSense_ScanAllWidgets();
 1294              		.loc 1 451 0
 1295 0340 FFF7FEFF 		bl	CapSense_ScanAllWidgets
 1296              	.LVL159:
 452:interface.c   **** 
ARM GAS  C:\Users\Mathieu\AppData\Local\Temp\ccqdbTbw.s 			page 32


 453:interface.c   ****                 if(!CapSense_IsBusy())
 1297              		.loc 1 453 0
 1298 0344 FFF7FEFF 		bl	CapSense_IsBusy
 1299              	.LVL160:
 1300 0348 68B9     		cbnz	r0, .L66
 454:interface.c   ****                 {
 455:interface.c   ****                     CapSense_ProcessAllWidgets();
 1301              		.loc 1 455 0
 1302 034a FFF7FEFF 		bl	CapSense_ProcessAllWidgets
 1303              	.LVL161:
 456:interface.c   ****                     button0_pressed = CapSense_IsWidgetActive(CapSense_BUTTON0_WDGT_ID);
 1304              		.loc 1 456 0
 1305 034e 0220     		movs	r0, #2
 1306 0350 FFF7FEFF 		bl	CapSense_IsWidgetActive
 1307              	.LVL162:
 1308 0354 0646     		mov	r6, r0
 1309              	.LVL163:
 457:interface.c   ****                     button1_pressed = CapSense_IsWidgetActive(CapSense_BUTTON1_WDGT_ID);
 1310              		.loc 1 457 0
 1311 0356 0120     		movs	r0, #1
 1312              	.LVL164:
 1313 0358 FFF7FEFF 		bl	CapSense_IsWidgetActive
 1314              	.LVL165:
 1315 035c 0546     		mov	r5, r0
 1316              	.LVL166:
 458:interface.c   ****                     slider_pos = CapSense_GetCentroidPos(CapSense_LINEARSLIDER0_WDGT_ID);   
 1317              		.loc 1 458 0
 1318 035e 0020     		movs	r0, #0
 1319              	.LVL167:
 1320 0360 FFF7FEFF 		bl	CapSense_GetCentroidPos
 1321              	.LVL168:
 1322 0364 0446     		mov	r4, r0
 1323              	.LVL169:
 1324              	.L66:
 449:interface.c   ****                     
 1325              		.loc 1 449 0
 1326 0366 4FF6FE73 		movw	r3, #65534
 1327 036a 9C42     		cmp	r4, r3
 1328 036c 05DD     		ble	.L67
 449:interface.c   ****                     
 1329              		.loc 1 449 0 is_stmt 0 discriminator 1
 1330 036e 26B9     		cbnz	r6, .L67
 449:interface.c   ****                     
 1331              		.loc 1 449 0 discriminator 2
 1332 0370 1DB9     		cbnz	r5, .L67
 449:interface.c   ****                     
 1333              		.loc 1 449 0 discriminator 3
 1334 0372 B24B     		ldr	r3, .L100
 1335 0374 1B68     		ldr	r3, [r3]
 1336 0376 002B     		cmp	r3, #0
 1337 0378 E2DC     		bgt	.L68
 1338              	.L67:
 459:interface.c   ****                 }  
 460:interface.c   ****             } 
 461:interface.c   ****             
 462:interface.c   ****             if (button0_pressed)
 1339              		.loc 1 462 0 is_stmt 1
ARM GAS  C:\Users\Mathieu\AppData\Local\Temp\ccqdbTbw.s 			page 33


 1340 037a 1EB1     		cbz	r6, .L69
 463:interface.c   ****             {
 464:interface.c   ****                 HR_min_alarm -=1; 
 1341              		.loc 1 464 0
 1342 037c B04A     		ldr	r2, .L100+4
 1343 037e 5368     		ldr	r3, [r2, #4]
 1344 0380 013B     		subs	r3, r3, #1
 1345 0382 5360     		str	r3, [r2, #4]
 1346              	.L69:
 465:interface.c   ****             }
 466:interface.c   ****             if (button1_pressed)
 1347              		.loc 1 466 0
 1348 0384 1DB1     		cbz	r5, .L70
 467:interface.c   ****             {
 468:interface.c   ****                 HR_min_alarm +=1; 
 1349              		.loc 1 468 0
 1350 0386 AE4A     		ldr	r2, .L100+4
 1351 0388 5368     		ldr	r3, [r2, #4]
 1352 038a 0133     		adds	r3, r3, #1
 1353 038c 5360     		str	r3, [r2, #4]
 1354              	.L70:
 469:interface.c   ****             }
 470:interface.c   ****             
 471:interface.c   ****             if (slider_pos < 0xFFFF)
 1355              		.loc 1 471 0
 1356 038e 4FF6FE73 		movw	r3, #65534
 1357 0392 9C42     		cmp	r4, r3
 1358 0394 0BDC     		bgt	.L71
 472:interface.c   ****             {
 473:interface.c   ****                 HR_min_alarm = 10 + slider_pos*30/100;
 1359              		.loc 1 473 0
 1360 0396 C4EB0414 		rsb	r4, r4, r4, lsl #4
 1361              	.LVL170:
 1362 039a 6300     		lsls	r3, r4, #1
 1363 039c A94A     		ldr	r2, .L100+8
 1364 039e 82FB0312 		smull	r1, r2, r2, r3
 1365 03a2 DB17     		asrs	r3, r3, #31
 1366 03a4 C3EB6213 		rsb	r3, r3, r2, asr #5
 1367 03a8 0A33     		adds	r3, r3, #10
 1368 03aa A54A     		ldr	r2, .L100+4
 1369 03ac 5360     		str	r3, [r2, #4]
 1370              	.L71:
 474:interface.c   ****             }
 475:interface.c   ****             
 476:interface.c   ****             if(HR_min_alarm > 60)
 1371              		.loc 1 476 0
 1372 03ae A44B     		ldr	r3, .L100+4
 1373 03b0 5B68     		ldr	r3, [r3, #4]
 1374 03b2 3C2B     		cmp	r3, #60
 1375 03b4 02DD     		ble	.L72
 477:interface.c   ****             {
 478:interface.c   ****                 HR_min_alarm = 60;
 1376              		.loc 1 478 0
 1377 03b6 3C22     		movs	r2, #60
 1378 03b8 A14B     		ldr	r3, .L100+4
 1379 03ba 5A60     		str	r2, [r3, #4]
 1380              	.L72:
ARM GAS  C:\Users\Mathieu\AppData\Local\Temp\ccqdbTbw.s 			page 34


 479:interface.c   ****             }
 480:interface.c   ****             
 481:interface.c   ****             if(HR_min_alarm < 30)
 1381              		.loc 1 481 0
 1382 03bc A04B     		ldr	r3, .L100+4
 1383 03be 5B68     		ldr	r3, [r3, #4]
 1384 03c0 1D2B     		cmp	r3, #29
 1385 03c2 00F3FB81 		bgt	.L42
 482:interface.c   ****             {
 483:interface.c   ****                 HR_min_alarm = 30;
 1386              		.loc 1 483 0
 1387 03c6 1E22     		movs	r2, #30
 1388 03c8 9D4B     		ldr	r3, .L100+4
 1389 03ca 5A60     		str	r2, [r3, #4]
 1390 03cc F6E1     		b	.L42
 1391              	.LVL171:
 1392              	.L47:
 484:interface.c   ****             }
 485:interface.c   ****       
 486:interface.c   ****         break;
 487:interface.c   ****                 
 488:interface.c   ****         case 5:
 489:interface.c   ****             
 490:interface.c   ****             GUI_DrawRect(22,4,242,30);
 1393              		.loc 1 490 0
 1394 03ce 1E23     		movs	r3, #30
 1395 03d0 F222     		movs	r2, #242
 1396 03d2 0421     		movs	r1, #4
 1397 03d4 1620     		movs	r0, #22
 1398 03d6 FFF7FEFF 		bl	GUI_DrawRect
 1399              	.LVL172:
 491:interface.c   ****             GUI_SetFont(GUI_FONT_16B_1);
 1400              		.loc 1 491 0
 1401 03da 9B48     		ldr	r0, .L100+12
 1402 03dc FFF7FEFF 		bl	GUI_SetFont
 1403              	.LVL173:
 492:interface.c   ****             GUI_DispStringAt("Borne inferieure SPO2", 55, 8);
 1404              		.loc 1 492 0
 1405 03e0 0822     		movs	r2, #8
 1406 03e2 3721     		movs	r1, #55
 1407 03e4 9948     		ldr	r0, .L100+16
 1408 03e6 FFF7FEFF 		bl	GUI_DispStringAt
 1409              	.LVL174:
 493:interface.c   ****             GUI_SetFont(GUI_FONT_13_1);
 1410              		.loc 1 493 0
 1411 03ea 9948     		ldr	r0, .L100+20
 1412 03ec FFF7FEFF 		bl	GUI_SetFont
 1413              	.LVL175:
 494:interface.c   ****             GUI_DispStringAt("Bouton 0 : Diminuer | Bouton 1 : Augmenter", 30, 34);
 1414              		.loc 1 494 0
 1415 03f0 2222     		movs	r2, #34
 1416 03f2 1E21     		movs	r1, #30
 1417 03f4 9748     		ldr	r0, .L100+24
 1418 03f6 FFF7FEFF 		bl	GUI_DispStringAt
 1419              	.LVL176:
 495:interface.c   ****             GUI_DispStringAt("Slider : Diminuer/Augmenter | SW2: Appliquer", 20, 50);
 1420              		.loc 1 495 0
ARM GAS  C:\Users\Mathieu\AppData\Local\Temp\ccqdbTbw.s 			page 35


 1421 03fa 3222     		movs	r2, #50
 1422 03fc 1421     		movs	r1, #20
 1423 03fe 9648     		ldr	r0, .L100+28
 1424 0400 FFF7FEFF 		bl	GUI_DispStringAt
 1425              	.LVL177:
 496:interface.c   ****           
 497:interface.c   ****             GUI_SetFont(GUI_FONT_13B_1);
 1426              		.loc 1 497 0
 1427 0404 9548     		ldr	r0, .L100+32
 1428 0406 FFF7FEFF 		bl	GUI_SetFont
 1429              	.LVL178:
 498:interface.c   ****             GUI_DrawRect(32,95,232,110);
 1430              		.loc 1 498 0
 1431 040a 6E23     		movs	r3, #110
 1432 040c E822     		movs	r2, #232
 1433 040e 5F21     		movs	r1, #95
 1434 0410 2020     		movs	r0, #32
 1435 0412 FFF7FEFF 		bl	GUI_DrawRect
 1436              	.LVL179:
 499:interface.c   ****             GUI_DispStringAt("0 %", 28, 80);
 1437              		.loc 1 499 0
 1438 0416 5022     		movs	r2, #80
 1439 0418 1C21     		movs	r1, #28
 1440 041a 9148     		ldr	r0, .L100+36
 1441 041c FFF7FEFF 		bl	GUI_DispStringAt
 1442              	.LVL180:
 500:interface.c   ****             GUI_DispStringAt("100 %", 210, 80);
 1443              		.loc 1 500 0
 1444 0420 5022     		movs	r2, #80
 1445 0422 D221     		movs	r1, #210
 1446 0424 8F48     		ldr	r0, .L100+40
 1447 0426 FFF7FEFF 		bl	GUI_DispStringAt
 1448              	.LVL181:
 501:interface.c   ****             GUI_FillRect(32,95,32+(SPO2_min_alarm)*200/100,110);
 1449              		.loc 1 501 0
 1450 042a 854C     		ldr	r4, .L100+4
 1451 042c A268     		ldr	r2, [r4, #8]
 1452 042e C823     		movs	r3, #200
 1453 0430 03FB02F3 		mul	r3, r3, r2
 1454 0434 834A     		ldr	r2, .L100+8
 1455 0436 82FB0312 		smull	r1, r2, r2, r3
 1456 043a DB17     		asrs	r3, r3, #31
 1457 043c C3EB6212 		rsb	r2, r3, r2, asr #5
 1458 0440 6E23     		movs	r3, #110
 1459 0442 2032     		adds	r2, r2, #32
 1460 0444 5F21     		movs	r1, #95
 1461 0446 2020     		movs	r0, #32
 1462 0448 FFF7FEFF 		bl	GUI_FillRect
 1463              	.LVL182:
 502:interface.c   ****             
 503:interface.c   ****             GUI_SetFont(GUI_FONT_20B_1);
 1464              		.loc 1 503 0
 1465 044c 8648     		ldr	r0, .L100+44
 1466 044e FFF7FEFF 		bl	GUI_SetFont
 1467              	.LVL183:
 504:interface.c   ****             GUI_DrawRect(80,130,190,160);
 1468              		.loc 1 504 0
ARM GAS  C:\Users\Mathieu\AppData\Local\Temp\ccqdbTbw.s 			page 36


 1469 0452 A023     		movs	r3, #160
 1470 0454 BE22     		movs	r2, #190
 1471 0456 8221     		movs	r1, #130
 1472 0458 5020     		movs	r0, #80
 1473 045a FFF7FEFF 		bl	GUI_DrawRect
 1474              	.LVL184:
 505:interface.c   ****             
 506:interface.c   ****             char SPO2_min_alarm_str[20];
 507:interface.c   ****             sprintf(SPO2_min_alarm_str,"%d",SPO2_min_alarm);
 1475              		.loc 1 507 0
 1476 045e A268     		ldr	r2, [r4, #8]
 1477 0460 8249     		ldr	r1, .L100+48
 1478 0462 01A8     		add	r0, sp, #4
 1479 0464 FFF7FEFF 		bl	sprintf
 1480              	.LVL185:
 508:interface.c   ****             GUI_DispStringAt(SPO2_min_alarm_str, 120 , 135);
 1481              		.loc 1 508 0
 1482 0468 8722     		movs	r2, #135
 1483 046a 7821     		movs	r1, #120
 1484 046c 01A8     		add	r0, sp, #4
 1485 046e FFF7FEFF 		bl	GUI_DispStringAt
 1486              	.LVL186:
 509:interface.c   ****             
 510:interface.c   ****             UpdateDisplay(CY_EINK_FULL_4STAGE, true);
 1487              		.loc 1 510 0
 1488 0472 0121     		movs	r1, #1
 1489 0474 0846     		mov	r0, r1
 1490 0476 FFF7FEFF 		bl	UpdateDisplay
 1491              	.LVL187:
 1492              	.LBE16:
 316:interface.c   ****     
 1493              		.loc 1 316 0
 1494 047a 4FF6FF74 		movw	r4, #65535
 315:interface.c   ****     int slider_pos = 0xFFFF;
 1495              		.loc 1 315 0
 1496 047e 0025     		movs	r5, #0
 314:interface.c   ****     int button1_pressed =0;
 1497              		.loc 1 314 0
 1498 0480 2E46     		mov	r6, r5
 1499              	.LBB17:
 511:interface.c   ****             
 512:interface.c   ****             while(slider_pos >=0xFFFF && button0_pressed == 0 && button1_pressed == 0 && FLAG_menu 
 1500              		.loc 1 512 0
 1501 0482 12E0     		b	.L74
 1502              	.LVL188:
 1503              	.L76:
 513:interface.c   ****                     
 514:interface.c   ****                 CapSense_ScanAllWidgets();
 1504              		.loc 1 514 0
 1505 0484 FFF7FEFF 		bl	CapSense_ScanAllWidgets
 1506              	.LVL189:
 515:interface.c   **** 
 516:interface.c   ****                 if(!CapSense_IsBusy())
 1507              		.loc 1 516 0
 1508 0488 FFF7FEFF 		bl	CapSense_IsBusy
 1509              	.LVL190:
 1510 048c 68B9     		cbnz	r0, .L74
ARM GAS  C:\Users\Mathieu\AppData\Local\Temp\ccqdbTbw.s 			page 37


 517:interface.c   ****                 {
 518:interface.c   ****                     CapSense_ProcessAllWidgets();
 1511              		.loc 1 518 0
 1512 048e FFF7FEFF 		bl	CapSense_ProcessAllWidgets
 1513              	.LVL191:
 519:interface.c   ****                     button0_pressed = CapSense_IsWidgetActive(CapSense_BUTTON0_WDGT_ID);
 1514              		.loc 1 519 0
 1515 0492 0220     		movs	r0, #2
 1516 0494 FFF7FEFF 		bl	CapSense_IsWidgetActive
 1517              	.LVL192:
 1518 0498 0646     		mov	r6, r0
 1519              	.LVL193:
 520:interface.c   ****                     button1_pressed = CapSense_IsWidgetActive(CapSense_BUTTON1_WDGT_ID);
 1520              		.loc 1 520 0
 1521 049a 0120     		movs	r0, #1
 1522              	.LVL194:
 1523 049c FFF7FEFF 		bl	CapSense_IsWidgetActive
 1524              	.LVL195:
 1525 04a0 0546     		mov	r5, r0
 1526              	.LVL196:
 521:interface.c   ****                     slider_pos = CapSense_GetCentroidPos(CapSense_LINEARSLIDER0_WDGT_ID);   
 1527              		.loc 1 521 0
 1528 04a2 0020     		movs	r0, #0
 1529              	.LVL197:
 1530 04a4 FFF7FEFF 		bl	CapSense_GetCentroidPos
 1531              	.LVL198:
 1532 04a8 0446     		mov	r4, r0
 1533              	.LVL199:
 1534              	.L74:
 512:interface.c   ****                     
 1535              		.loc 1 512 0
 1536 04aa 4FF6FE73 		movw	r3, #65534
 1537 04ae 9C42     		cmp	r4, r3
 1538 04b0 05DD     		ble	.L75
 512:interface.c   ****                     
 1539              		.loc 1 512 0 is_stmt 0 discriminator 1
 1540 04b2 26B9     		cbnz	r6, .L75
 512:interface.c   ****                     
 1541              		.loc 1 512 0 discriminator 2
 1542 04b4 1DB9     		cbnz	r5, .L75
 512:interface.c   ****                     
 1543              		.loc 1 512 0 discriminator 3
 1544 04b6 614B     		ldr	r3, .L100
 1545 04b8 1B68     		ldr	r3, [r3]
 1546 04ba 002B     		cmp	r3, #0
 1547 04bc E2DC     		bgt	.L76
 1548              	.L75:
 522:interface.c   ****                 }  
 523:interface.c   ****             } 
 524:interface.c   ****             
 525:interface.c   ****             if (button0_pressed)
 1549              		.loc 1 525 0 is_stmt 1
 1550 04be 1EB1     		cbz	r6, .L77
 526:interface.c   ****             {
 527:interface.c   ****                 SPO2_min_alarm -=1; 
 1551              		.loc 1 527 0
 1552 04c0 5F4A     		ldr	r2, .L100+4
ARM GAS  C:\Users\Mathieu\AppData\Local\Temp\ccqdbTbw.s 			page 38


 1553 04c2 9368     		ldr	r3, [r2, #8]
 1554 04c4 013B     		subs	r3, r3, #1
 1555 04c6 9360     		str	r3, [r2, #8]
 1556              	.L77:
 528:interface.c   ****             }
 529:interface.c   ****             if (button1_pressed)
 1557              		.loc 1 529 0
 1558 04c8 1DB1     		cbz	r5, .L78
 530:interface.c   ****             {
 531:interface.c   ****                 SPO2_min_alarm +=1; 
 1559              		.loc 1 531 0
 1560 04ca 5D4A     		ldr	r2, .L100+4
 1561 04cc 9368     		ldr	r3, [r2, #8]
 1562 04ce 0133     		adds	r3, r3, #1
 1563 04d0 9360     		str	r3, [r2, #8]
 1564              	.L78:
 532:interface.c   ****             }
 533:interface.c   ****             
 534:interface.c   ****             if (slider_pos < 0xFFFF)
 1565              		.loc 1 534 0
 1566 04d2 4FF6FE73 		movw	r3, #65534
 1567 04d6 9C42     		cmp	r4, r3
 1568 04d8 01DC     		bgt	.L79
 535:interface.c   ****             {
 536:interface.c   ****                 SPO2_min_alarm = slider_pos;
 1569              		.loc 1 536 0
 1570 04da 594B     		ldr	r3, .L100+4
 1571 04dc 9C60     		str	r4, [r3, #8]
 1572              	.L79:
 537:interface.c   ****             }
 538:interface.c   ****             
 539:interface.c   ****             if(SPO2_min_alarm > 100)
 1573              		.loc 1 539 0
 1574 04de 584B     		ldr	r3, .L100+4
 1575 04e0 9B68     		ldr	r3, [r3, #8]
 1576 04e2 642B     		cmp	r3, #100
 1577 04e4 02DD     		ble	.L80
 540:interface.c   ****             {
 541:interface.c   ****                 SPO2_min_alarm = 100;
 1578              		.loc 1 541 0
 1579 04e6 6422     		movs	r2, #100
 1580 04e8 554B     		ldr	r3, .L100+4
 1581 04ea 9A60     		str	r2, [r3, #8]
 1582              	.L80:
 542:interface.c   ****             }
 543:interface.c   ****             
 544:interface.c   ****             if(SPO2_min_alarm < 0)
 1583              		.loc 1 544 0
 1584 04ec 544B     		ldr	r3, .L100+4
 1585 04ee 9B68     		ldr	r3, [r3, #8]
 1586 04f0 002B     		cmp	r3, #0
 1587 04f2 80F26381 		bge	.L42
 545:interface.c   ****             {
 546:interface.c   ****                 SPO2_min_alarm = 0;
 1588              		.loc 1 546 0
 1589 04f6 0022     		movs	r2, #0
 1590 04f8 514B     		ldr	r3, .L100+4
ARM GAS  C:\Users\Mathieu\AppData\Local\Temp\ccqdbTbw.s 			page 39


 1591 04fa 9A60     		str	r2, [r3, #8]
 1592 04fc 5EE1     		b	.L42
 1593              	.LVL200:
 1594              	.L48:
 547:interface.c   ****             }
 548:interface.c   ****       
 549:interface.c   ****        
 550:interface.c   ****         break;
 551:interface.c   ****                 
 552:interface.c   ****         case 6:
 553:interface.c   ****             GUI_DrawRect(22,4,242,30);
 1595              		.loc 1 553 0
 1596 04fe 1E23     		movs	r3, #30
 1597 0500 F222     		movs	r2, #242
 1598 0502 0421     		movs	r1, #4
 1599 0504 1620     		movs	r0, #22
 1600 0506 FFF7FEFF 		bl	GUI_DrawRect
 1601              	.LVL201:
 554:interface.c   ****             GUI_SetFont(GUI_FONT_16B_1);
 1602              		.loc 1 554 0
 1603 050a 4F48     		ldr	r0, .L100+12
 1604 050c FFF7FEFF 		bl	GUI_SetFont
 1605              	.LVL202:
 555:interface.c   ****             GUI_DispStringAt("Courant de la DEL 1 (Rouge)", 40, 8);
 1606              		.loc 1 555 0
 1607 0510 0822     		movs	r2, #8
 1608 0512 2821     		movs	r1, #40
 1609 0514 5648     		ldr	r0, .L100+52
 1610 0516 FFF7FEFF 		bl	GUI_DispStringAt
 1611              	.LVL203:
 556:interface.c   ****             GUI_SetFont(GUI_FONT_13_1);
 1612              		.loc 1 556 0
 1613 051a 4D48     		ldr	r0, .L100+20
 1614 051c FFF7FEFF 		bl	GUI_SetFont
 1615              	.LVL204:
 557:interface.c   ****             GUI_DispStringAt("Bouton 0 : Diminuer | Bouton 1 : Augmenter", 30, 34);
 1616              		.loc 1 557 0
 1617 0520 2222     		movs	r2, #34
 1618 0522 1E21     		movs	r1, #30
 1619 0524 4B48     		ldr	r0, .L100+24
 1620 0526 FFF7FEFF 		bl	GUI_DispStringAt
 1621              	.LVL205:
 558:interface.c   ****             GUI_DispStringAt("Slider : Diminuer/Augmenter | SW2: Appliquer", 20, 50);
 1622              		.loc 1 558 0
 1623 052a 3222     		movs	r2, #50
 1624 052c 1421     		movs	r1, #20
 1625 052e 4A48     		ldr	r0, .L100+28
 1626 0530 FFF7FEFF 		bl	GUI_DispStringAt
 1627              	.LVL206:
 559:interface.c   ****        
 560:interface.c   ****             GUI_SetFont(GUI_FONT_13B_1);
 1628              		.loc 1 560 0
 1629 0534 4948     		ldr	r0, .L100+32
 1630 0536 FFF7FEFF 		bl	GUI_SetFont
 1631              	.LVL207:
 561:interface.c   ****             GUI_DrawRect(32,110,232,130);
 1632              		.loc 1 561 0
ARM GAS  C:\Users\Mathieu\AppData\Local\Temp\ccqdbTbw.s 			page 40


 1633 053a 8223     		movs	r3, #130
 1634 053c E822     		movs	r2, #232
 1635 053e 6E21     		movs	r1, #110
 1636 0540 2020     		movs	r0, #32
 1637 0542 FFF7FEFF 		bl	GUI_DrawRect
 1638              	.LVL208:
 562:interface.c   ****             GUI_DispStringAt("0", 28, 90);
 1639              		.loc 1 562 0
 1640 0546 5A22     		movs	r2, #90
 1641 0548 1C21     		movs	r1, #28
 1642 054a 4A48     		ldr	r0, .L100+56
 1643 054c FFF7FEFF 		bl	GUI_DispStringAt
 1644              	.LVL209:
 563:interface.c   ****             GUI_DispStringAt("255", 222, 90);
 1645              		.loc 1 563 0
 1646 0550 5A22     		movs	r2, #90
 1647 0552 DE21     		movs	r1, #222
 1648 0554 4848     		ldr	r0, .L100+60
 1649 0556 FFF7FEFF 		bl	GUI_DispStringAt
 1650              	.LVL210:
 564:interface.c   ****             
 565:interface.c   ****             char str_Current_LED1[10];
 566:interface.c   ****             sprintf(str_Current_LED1,"%d / 255",Current_LED1);
 1651              		.loc 1 566 0
 1652 055a 394C     		ldr	r4, .L100+4
 1653 055c E268     		ldr	r2, [r4, #12]
 1654 055e 4749     		ldr	r1, .L100+64
 1655 0560 01A8     		add	r0, sp, #4
 1656 0562 FFF7FEFF 		bl	sprintf
 1657              	.LVL211:
 567:interface.c   ****             GUI_DispStringAt(str_Current_LED1, 106, 145);;
 1658              		.loc 1 567 0
 1659 0566 9122     		movs	r2, #145
 1660 0568 6A21     		movs	r1, #106
 1661 056a 01A8     		add	r0, sp, #4
 1662 056c FFF7FEFF 		bl	GUI_DispStringAt
 1663              	.LVL212:
 568:interface.c   ****             GUI_DrawRect(100,134,164,170);
 1664              		.loc 1 568 0
 1665 0570 AA23     		movs	r3, #170
 1666 0572 A422     		movs	r2, #164
 1667 0574 8621     		movs	r1, #134
 1668 0576 6420     		movs	r0, #100
 1669 0578 FFF7FEFF 		bl	GUI_DrawRect
 1670              	.LVL213:
 569:interface.c   ****             
 570:interface.c   ****             GUI_FillRect(32,110,32+200*Current_LED1/0xFF,130);
 1671              		.loc 1 570 0
 1672 057c E268     		ldr	r2, [r4, #12]
 1673 057e C823     		movs	r3, #200
 1674 0580 03FB02F3 		mul	r3, r3, r2
 1675 0584 3E4A     		ldr	r2, .L100+68
 1676 0586 82FB0312 		smull	r1, r2, r2, r3
 1677 058a 1A44     		add	r2, r2, r3
 1678 058c DB17     		asrs	r3, r3, #31
 1679 058e C3EBE212 		rsb	r2, r3, r2, asr #7
 1680 0592 8223     		movs	r3, #130
ARM GAS  C:\Users\Mathieu\AppData\Local\Temp\ccqdbTbw.s 			page 41


 1681 0594 2032     		adds	r2, r2, #32
 1682 0596 6E21     		movs	r1, #110
 1683 0598 2020     		movs	r0, #32
 1684 059a FFF7FEFF 		bl	GUI_FillRect
 1685              	.LVL214:
 571:interface.c   ****    
 572:interface.c   ****             UpdateDisplay(CY_EINK_FULL_4STAGE, true);
 1686              		.loc 1 572 0
 1687 059e 0121     		movs	r1, #1
 1688 05a0 0846     		mov	r0, r1
 1689 05a2 FFF7FEFF 		bl	UpdateDisplay
 1690              	.LVL215:
 1691              	.LBE17:
 316:interface.c   ****     
 1692              		.loc 1 316 0
 1693 05a6 4FF6FF74 		movw	r4, #65535
 315:interface.c   ****     int slider_pos = 0xFFFF;
 1694              		.loc 1 315 0
 1695 05aa 0025     		movs	r5, #0
 314:interface.c   ****     int button1_pressed =0;
 1696              		.loc 1 314 0
 1697 05ac 2E46     		mov	r6, r5
 1698              	.LBB18:
 573:interface.c   ****             
 574:interface.c   ****       
 575:interface.c   ****             while(slider_pos >=0xFFFF && button0_pressed == 0 && button1_pressed == 0 && FLAG_menu 
 1699              		.loc 1 575 0
 1700 05ae 12E0     		b	.L82
 1701              	.LVL216:
 1702              	.L84:
 576:interface.c   ****                     
 577:interface.c   ****                 CapSense_ScanAllWidgets();
 1703              		.loc 1 577 0
 1704 05b0 FFF7FEFF 		bl	CapSense_ScanAllWidgets
 1705              	.LVL217:
 578:interface.c   **** 
 579:interface.c   ****                 if(!CapSense_IsBusy())
 1706              		.loc 1 579 0
 1707 05b4 FFF7FEFF 		bl	CapSense_IsBusy
 1708              	.LVL218:
 1709 05b8 68B9     		cbnz	r0, .L82
 580:interface.c   ****                 {
 581:interface.c   ****                     CapSense_ProcessAllWidgets();
 1710              		.loc 1 581 0
 1711 05ba FFF7FEFF 		bl	CapSense_ProcessAllWidgets
 1712              	.LVL219:
 582:interface.c   ****                     button0_pressed = CapSense_IsWidgetActive(CapSense_BUTTON0_WDGT_ID);
 1713              		.loc 1 582 0
 1714 05be 0220     		movs	r0, #2
 1715 05c0 FFF7FEFF 		bl	CapSense_IsWidgetActive
 1716              	.LVL220:
 1717 05c4 0646     		mov	r6, r0
 1718              	.LVL221:
 583:interface.c   ****                     button1_pressed = CapSense_IsWidgetActive(CapSense_BUTTON1_WDGT_ID);
 1719              		.loc 1 583 0
 1720 05c6 0120     		movs	r0, #1
 1721              	.LVL222:
ARM GAS  C:\Users\Mathieu\AppData\Local\Temp\ccqdbTbw.s 			page 42


 1722 05c8 FFF7FEFF 		bl	CapSense_IsWidgetActive
 1723              	.LVL223:
 1724 05cc 0546     		mov	r5, r0
 1725              	.LVL224:
 584:interface.c   ****                     slider_pos = CapSense_GetCentroidPos(CapSense_LINEARSLIDER0_WDGT_ID);   
 1726              		.loc 1 584 0
 1727 05ce 0020     		movs	r0, #0
 1728              	.LVL225:
 1729 05d0 FFF7FEFF 		bl	CapSense_GetCentroidPos
 1730              	.LVL226:
 1731 05d4 0446     		mov	r4, r0
 1732              	.LVL227:
 1733              	.L82:
 575:interface.c   ****                     
 1734              		.loc 1 575 0
 1735 05d6 4FF6FE73 		movw	r3, #65534
 1736 05da 9C42     		cmp	r4, r3
 1737 05dc 05DD     		ble	.L83
 575:interface.c   ****                     
 1738              		.loc 1 575 0 is_stmt 0 discriminator 1
 1739 05de 26B9     		cbnz	r6, .L83
 575:interface.c   ****                     
 1740              		.loc 1 575 0 discriminator 2
 1741 05e0 1DB9     		cbnz	r5, .L83
 575:interface.c   ****                     
 1742              		.loc 1 575 0 discriminator 3
 1743 05e2 164B     		ldr	r3, .L100
 1744 05e4 1B68     		ldr	r3, [r3]
 1745 05e6 002B     		cmp	r3, #0
 1746 05e8 E2DC     		bgt	.L84
 1747              	.L83:
 585:interface.c   ****                 }  
 586:interface.c   ****             } 
 587:interface.c   ****             
 588:interface.c   ****             if (button0_pressed)
 1748              		.loc 1 588 0 is_stmt 1
 1749 05ea 1EB1     		cbz	r6, .L85
 589:interface.c   ****             {
 590:interface.c   ****                 Current_LED1 -=0x01; 
 1750              		.loc 1 590 0
 1751 05ec 144A     		ldr	r2, .L100+4
 1752 05ee D368     		ldr	r3, [r2, #12]
 1753 05f0 013B     		subs	r3, r3, #1
 1754 05f2 D360     		str	r3, [r2, #12]
 1755              	.L85:
 591:interface.c   ****             }
 592:interface.c   ****             if (button1_pressed)
 1756              		.loc 1 592 0
 1757 05f4 1DB1     		cbz	r5, .L86
 593:interface.c   ****             {
 594:interface.c   ****                 Current_LED1 +=0x01; 
 1758              		.loc 1 594 0
 1759 05f6 124A     		ldr	r2, .L100+4
 1760 05f8 D368     		ldr	r3, [r2, #12]
 1761 05fa 0133     		adds	r3, r3, #1
 1762 05fc D360     		str	r3, [r2, #12]
 1763              	.L86:
ARM GAS  C:\Users\Mathieu\AppData\Local\Temp\ccqdbTbw.s 			page 43


 595:interface.c   ****             }
 596:interface.c   ****             if (slider_pos < 0xFFFF)
 1764              		.loc 1 596 0
 1765 05fe 4FF6FE73 		movw	r3, #65534
 1766 0602 9C42     		cmp	r4, r3
 1767 0604 09DC     		bgt	.L87
 597:interface.c   ****             {
 598:interface.c   ****                 Current_LED1 = slider_pos*0xFF/100;
 1768              		.loc 1 598 0
 1769 0606 C4EB0424 		rsb	r4, r4, r4, lsl #8
 1770              	.LVL228:
 1771 060a 0E4B     		ldr	r3, .L100+8
 1772 060c 83FB0423 		smull	r2, r3, r3, r4
 1773 0610 E417     		asrs	r4, r4, #31
 1774 0612 C4EB6314 		rsb	r4, r4, r3, asr #5
 1775 0616 0A4B     		ldr	r3, .L100+4
 1776 0618 DC60     		str	r4, [r3, #12]
 1777              	.L87:
 599:interface.c   ****             }
 600:interface.c   ****             
 601:interface.c   ****             if (Current_LED1 > 0xFF)
 1778              		.loc 1 601 0
 1779 061a 094B     		ldr	r3, .L100+4
 1780 061c DB68     		ldr	r3, [r3, #12]
 1781 061e FF2B     		cmp	r3, #255
 1782 0620 02DD     		ble	.L88
 602:interface.c   ****             {
 603:interface.c   ****                 Current_LED1 = 0xFF;
 1783              		.loc 1 603 0
 1784 0622 FF22     		movs	r2, #255
 1785 0624 064B     		ldr	r3, .L100+4
 1786 0626 DA60     		str	r2, [r3, #12]
 1787              	.L88:
 604:interface.c   ****             }
 605:interface.c   ****             
 606:interface.c   ****             if (Current_LED1 < 0x00)
 1788              		.loc 1 606 0
 1789 0628 054B     		ldr	r3, .L100+4
 1790 062a DB68     		ldr	r3, [r3, #12]
 1791 062c 002B     		cmp	r3, #0
 1792 062e 80F2C580 		bge	.L42
 607:interface.c   ****             {
 608:interface.c   ****                 Current_LED1 = 0x00;
 1793              		.loc 1 608 0
 1794 0632 0022     		movs	r2, #0
 1795 0634 024B     		ldr	r3, .L100+4
 1796 0636 DA60     		str	r2, [r3, #12]
 1797 0638 C0E0     		b	.L42
 1798              	.L101:
 1799 063a 00BF     		.align	2
 1800              	.L100:
 1801 063c 00000000 		.word	FLAG_menu
 1802 0640 00000000 		.word	.LANCHOR2
 1803 0644 1F85EB51 		.word	1374389535
 1804 0648 00000000 		.word	GUI_Font16B_1
 1805 064c B8000000 		.word	.LC12
 1806 0650 00000000 		.word	GUI_Font13_1
ARM GAS  C:\Users\Mathieu\AppData\Local\Temp\ccqdbTbw.s 			page 44


 1807 0654 38010000 		.word	.LC16
 1808 0658 64010000 		.word	.LC17
 1809 065c 00000000 		.word	GUI_Font13B_1
 1810 0660 AC010000 		.word	.LC21
 1811 0664 B0010000 		.word	.LC22
 1812 0668 00000000 		.word	GUI_Font20B_1
 1813 066c 68000000 		.word	.LC7
 1814 0670 D0000000 		.word	.LC13
 1815 0674 B8010000 		.word	.LC23
 1816 0678 BC010000 		.word	.LC24
 1817 067c C0010000 		.word	.LC25
 1818 0680 81808080 		.word	-2139062143
 1819              	.LVL229:
 1820              	.L49:
 609:interface.c   ****             }
 610:interface.c   **** 
 611:interface.c   ****         break;
 612:interface.c   ****         
 613:interface.c   ****         case 7:
 614:interface.c   ****             GUI_DrawRect(22,4,242,30);
 1821              		.loc 1 614 0
 1822 0684 1E23     		movs	r3, #30
 1823 0686 F222     		movs	r2, #242
 1824 0688 0421     		movs	r1, #4
 1825 068a 1620     		movs	r0, #22
 1826 068c FFF7FEFF 		bl	GUI_DrawRect
 1827              	.LVL230:
 615:interface.c   ****             GUI_SetFont(GUI_FONT_16B_1);
 1828              		.loc 1 615 0
 1829 0690 4D48     		ldr	r0, .L102
 1830 0692 FFF7FEFF 		bl	GUI_SetFont
 1831              	.LVL231:
 616:interface.c   ****             GUI_DispStringAt("Courant de la DEL 2 (infrarouge)", 32, 8);
 1832              		.loc 1 616 0
 1833 0696 0822     		movs	r2, #8
 1834 0698 2021     		movs	r1, #32
 1835 069a 4C48     		ldr	r0, .L102+4
 1836 069c FFF7FEFF 		bl	GUI_DispStringAt
 1837              	.LVL232:
 617:interface.c   ****              GUI_SetFont(GUI_FONT_13_1);
 1838              		.loc 1 617 0
 1839 06a0 4B48     		ldr	r0, .L102+8
 1840 06a2 FFF7FEFF 		bl	GUI_SetFont
 1841              	.LVL233:
 618:interface.c   ****             GUI_DispStringAt("Bouton 0 : Diminuer | Bouton 1 : Augmenter", 30, 34);
 1842              		.loc 1 618 0
 1843 06a6 2222     		movs	r2, #34
 1844 06a8 1E21     		movs	r1, #30
 1845 06aa 4A48     		ldr	r0, .L102+12
 1846 06ac FFF7FEFF 		bl	GUI_DispStringAt
 1847              	.LVL234:
 619:interface.c   ****             GUI_DispStringAt("Slider : Diminuer/Augmenter | SW2: Appliquer", 20, 50);
 1848              		.loc 1 619 0
 1849 06b0 3222     		movs	r2, #50
 1850 06b2 1421     		movs	r1, #20
 1851 06b4 4848     		ldr	r0, .L102+16
 1852 06b6 FFF7FEFF 		bl	GUI_DispStringAt
ARM GAS  C:\Users\Mathieu\AppData\Local\Temp\ccqdbTbw.s 			page 45


 1853              	.LVL235:
 620:interface.c   ****        
 621:interface.c   ****             GUI_SetFont(GUI_FONT_13B_1);
 1854              		.loc 1 621 0
 1855 06ba 4848     		ldr	r0, .L102+20
 1856 06bc FFF7FEFF 		bl	GUI_SetFont
 1857              	.LVL236:
 622:interface.c   ****             GUI_DrawRect(32,110,232,130);
 1858              		.loc 1 622 0
 1859 06c0 8223     		movs	r3, #130
 1860 06c2 E822     		movs	r2, #232
 1861 06c4 6E21     		movs	r1, #110
 1862 06c6 2020     		movs	r0, #32
 1863 06c8 FFF7FEFF 		bl	GUI_DrawRect
 1864              	.LVL237:
 623:interface.c   ****             GUI_DispStringAt("0", 28, 90);
 1865              		.loc 1 623 0
 1866 06cc 5A22     		movs	r2, #90
 1867 06ce 1C21     		movs	r1, #28
 1868 06d0 4348     		ldr	r0, .L102+24
 1869 06d2 FFF7FEFF 		bl	GUI_DispStringAt
 1870              	.LVL238:
 624:interface.c   ****             GUI_DispStringAt("255", 222, 90);
 1871              		.loc 1 624 0
 1872 06d6 5A22     		movs	r2, #90
 1873 06d8 DE21     		movs	r1, #222
 1874 06da 4248     		ldr	r0, .L102+28
 1875 06dc FFF7FEFF 		bl	GUI_DispStringAt
 1876              	.LVL239:
 625:interface.c   ****             
 626:interface.c   ****             char str_Current_LED2[10];
 627:interface.c   ****             sprintf(str_Current_LED2,"%d / 255",Current_LED2);
 1877              		.loc 1 627 0
 1878 06e0 414C     		ldr	r4, .L102+32
 1879 06e2 2269     		ldr	r2, [r4, #16]
 1880 06e4 4149     		ldr	r1, .L102+36
 1881 06e6 01A8     		add	r0, sp, #4
 1882 06e8 FFF7FEFF 		bl	sprintf
 1883              	.LVL240:
 628:interface.c   ****             GUI_DispStringAt(str_Current_LED2, 106, 145);
 1884              		.loc 1 628 0
 1885 06ec 9122     		movs	r2, #145
 1886 06ee 6A21     		movs	r1, #106
 1887 06f0 01A8     		add	r0, sp, #4
 1888 06f2 FFF7FEFF 		bl	GUI_DispStringAt
 1889              	.LVL241:
 629:interface.c   ****             GUI_DrawRect(100,134,164,170);
 1890              		.loc 1 629 0
 1891 06f6 AA23     		movs	r3, #170
 1892 06f8 A422     		movs	r2, #164
 1893 06fa 8621     		movs	r1, #134
 1894 06fc 6420     		movs	r0, #100
 1895 06fe FFF7FEFF 		bl	GUI_DrawRect
 1896              	.LVL242:
 630:interface.c   ****             
 631:interface.c   ****             GUI_FillRect(32,110,32+200*Current_LED2/0xFF,130);
 1897              		.loc 1 631 0
ARM GAS  C:\Users\Mathieu\AppData\Local\Temp\ccqdbTbw.s 			page 46


 1898 0702 2269     		ldr	r2, [r4, #16]
 1899 0704 C823     		movs	r3, #200
 1900 0706 03FB02F3 		mul	r3, r3, r2
 1901 070a 394A     		ldr	r2, .L102+40
 1902 070c 82FB0312 		smull	r1, r2, r2, r3
 1903 0710 1A44     		add	r2, r2, r3
 1904 0712 DB17     		asrs	r3, r3, #31
 1905 0714 C3EBE212 		rsb	r2, r3, r2, asr #7
 1906 0718 8223     		movs	r3, #130
 1907 071a 2032     		adds	r2, r2, #32
 1908 071c 6E21     		movs	r1, #110
 1909 071e 2020     		movs	r0, #32
 1910 0720 FFF7FEFF 		bl	GUI_FillRect
 1911              	.LVL243:
 632:interface.c   ****    
 633:interface.c   ****             UpdateDisplay(CY_EINK_FULL_4STAGE, true);
 1912              		.loc 1 633 0
 1913 0724 0121     		movs	r1, #1
 1914 0726 0846     		mov	r0, r1
 1915 0728 FFF7FEFF 		bl	UpdateDisplay
 1916              	.LVL244:
 1917              	.LBE18:
 316:interface.c   ****     
 1918              		.loc 1 316 0
 1919 072c 4FF6FF74 		movw	r4, #65535
 315:interface.c   ****     int slider_pos = 0xFFFF;
 1920              		.loc 1 315 0
 1921 0730 0025     		movs	r5, #0
 314:interface.c   ****     int button1_pressed =0;
 1922              		.loc 1 314 0
 1923 0732 2E46     		mov	r6, r5
 1924              	.LBB19:
 634:interface.c   ****             
 635:interface.c   ****             
 636:interface.c   ****             while(slider_pos >=0xFFFF && button0_pressed == 0 && button1_pressed == 0 && FLAG_menu 
 1925              		.loc 1 636 0
 1926 0734 12E0     		b	.L90
 1927              	.LVL245:
 1928              	.L92:
 637:interface.c   ****                     
 638:interface.c   ****                 CapSense_ScanAllWidgets();
 1929              		.loc 1 638 0
 1930 0736 FFF7FEFF 		bl	CapSense_ScanAllWidgets
 1931              	.LVL246:
 639:interface.c   **** 
 640:interface.c   ****                 if(!CapSense_IsBusy())
 1932              		.loc 1 640 0
 1933 073a FFF7FEFF 		bl	CapSense_IsBusy
 1934              	.LVL247:
 1935 073e 68B9     		cbnz	r0, .L90
 641:interface.c   ****                 {
 642:interface.c   ****                     CapSense_ProcessAllWidgets();
 1936              		.loc 1 642 0
 1937 0740 FFF7FEFF 		bl	CapSense_ProcessAllWidgets
 1938              	.LVL248:
 643:interface.c   ****                     button0_pressed = CapSense_IsWidgetActive(CapSense_BUTTON0_WDGT_ID);
 1939              		.loc 1 643 0
ARM GAS  C:\Users\Mathieu\AppData\Local\Temp\ccqdbTbw.s 			page 47


 1940 0744 0220     		movs	r0, #2
 1941 0746 FFF7FEFF 		bl	CapSense_IsWidgetActive
 1942              	.LVL249:
 1943 074a 0646     		mov	r6, r0
 1944              	.LVL250:
 644:interface.c   ****                     button1_pressed = CapSense_IsWidgetActive(CapSense_BUTTON1_WDGT_ID);
 1945              		.loc 1 644 0
 1946 074c 0120     		movs	r0, #1
 1947              	.LVL251:
 1948 074e FFF7FEFF 		bl	CapSense_IsWidgetActive
 1949              	.LVL252:
 1950 0752 0546     		mov	r5, r0
 1951              	.LVL253:
 645:interface.c   ****                     slider_pos = CapSense_GetCentroidPos(CapSense_LINEARSLIDER0_WDGT_ID);   
 1952              		.loc 1 645 0
 1953 0754 0020     		movs	r0, #0
 1954              	.LVL254:
 1955 0756 FFF7FEFF 		bl	CapSense_GetCentroidPos
 1956              	.LVL255:
 1957 075a 0446     		mov	r4, r0
 1958              	.LVL256:
 1959              	.L90:
 636:interface.c   ****                     
 1960              		.loc 1 636 0
 1961 075c 4FF6FE73 		movw	r3, #65534
 1962 0760 9C42     		cmp	r4, r3
 1963 0762 05DD     		ble	.L91
 636:interface.c   ****                     
 1964              		.loc 1 636 0 is_stmt 0 discriminator 1
 1965 0764 26B9     		cbnz	r6, .L91
 636:interface.c   ****                     
 1966              		.loc 1 636 0 discriminator 2
 1967 0766 1DB9     		cbnz	r5, .L91
 636:interface.c   ****                     
 1968              		.loc 1 636 0 discriminator 3
 1969 0768 224B     		ldr	r3, .L102+44
 1970 076a 1B68     		ldr	r3, [r3]
 1971 076c 002B     		cmp	r3, #0
 1972 076e E2DC     		bgt	.L92
 1973              	.L91:
 646:interface.c   ****                 }  
 647:interface.c   ****             } 
 648:interface.c   ****             
 649:interface.c   ****             if (button0_pressed)
 1974              		.loc 1 649 0 is_stmt 1
 1975 0770 1EB1     		cbz	r6, .L93
 650:interface.c   ****             {
 651:interface.c   ****                 Current_LED2 -=0x01; 
 1976              		.loc 1 651 0
 1977 0772 1D4A     		ldr	r2, .L102+32
 1978 0774 1369     		ldr	r3, [r2, #16]
 1979 0776 013B     		subs	r3, r3, #1
 1980 0778 1361     		str	r3, [r2, #16]
 1981              	.L93:
 652:interface.c   ****             }
 653:interface.c   ****             if (button1_pressed)
 1982              		.loc 1 653 0
ARM GAS  C:\Users\Mathieu\AppData\Local\Temp\ccqdbTbw.s 			page 48


 1983 077a 1DB1     		cbz	r5, .L94
 654:interface.c   ****             {
 655:interface.c   ****                 Current_LED2 +=0x01;
 1984              		.loc 1 655 0
 1985 077c 1A4A     		ldr	r2, .L102+32
 1986 077e 1369     		ldr	r3, [r2, #16]
 1987 0780 0133     		adds	r3, r3, #1
 1988 0782 1361     		str	r3, [r2, #16]
 1989              	.L94:
 656:interface.c   ****             }
 657:interface.c   ****             if (slider_pos < 0xFFFF)
 1990              		.loc 1 657 0
 1991 0784 4FF6FE73 		movw	r3, #65534
 1992 0788 9C42     		cmp	r4, r3
 1993 078a 09DC     		bgt	.L95
 658:interface.c   ****             {
 659:interface.c   ****                 Current_LED2 = slider_pos*0xFF/100;
 1994              		.loc 1 659 0
 1995 078c C4EB0424 		rsb	r4, r4, r4, lsl #8
 1996              	.LVL257:
 1997 0790 194B     		ldr	r3, .L102+48
 1998 0792 83FB0423 		smull	r2, r3, r3, r4
 1999 0796 E417     		asrs	r4, r4, #31
 2000 0798 C4EB6314 		rsb	r4, r4, r3, asr #5
 2001 079c 124B     		ldr	r3, .L102+32
 2002 079e 1C61     		str	r4, [r3, #16]
 2003              	.L95:
 660:interface.c   ****             }
 661:interface.c   ****             if (Current_LED2 > 0xFF) //Empêche le courant d'être plus grand que 0xFF
 2004              		.loc 1 661 0
 2005 07a0 114B     		ldr	r3, .L102+32
 2006 07a2 1B69     		ldr	r3, [r3, #16]
 2007 07a4 FF2B     		cmp	r3, #255
 2008 07a6 02DD     		ble	.L96
 662:interface.c   ****             {
 663:interface.c   ****                 Current_LED2 = 0xFF;
 2009              		.loc 1 663 0
 2010 07a8 FF22     		movs	r2, #255
 2011 07aa 0F4B     		ldr	r3, .L102+32
 2012 07ac 1A61     		str	r2, [r3, #16]
 2013              	.L96:
 664:interface.c   ****             }
 665:interface.c   ****             if (Current_LED2 < 0x00) //Empêche le courant d'être négatif
 2014              		.loc 1 665 0
 2015 07ae 0E4B     		ldr	r3, .L102+32
 2016 07b0 1B69     		ldr	r3, [r3, #16]
 2017 07b2 002B     		cmp	r3, #0
 2018 07b4 02DA     		bge	.L42
 666:interface.c   ****             {
 667:interface.c   ****                 Current_LED2 = 0x00;
 2019              		.loc 1 667 0
 2020 07b6 0022     		movs	r2, #0
 2021 07b8 0B4B     		ldr	r3, .L102+32
 2022 07ba 1A61     		str	r2, [r3, #16]
 2023              	.LVL258:
 2024              	.L42:
 2025              	.LBE19:
ARM GAS  C:\Users\Mathieu\AppData\Local\Temp\ccqdbTbw.s 			page 49


 668:interface.c   ****             }
 669:interface.c   ****               
 670:interface.c   ****         break;
 671:interface.c   **** 
 672:interface.c   ****     }
 673:interface.c   ****     UpdateDisplay(CY_EINK_FULL_4STAGE, true);
 2026              		.loc 1 673 0
 2027 07bc 0121     		movs	r1, #1
 2028 07be 0846     		mov	r0, r1
 2029 07c0 FFF7FEFF 		bl	UpdateDisplay
 2030              	.LVL259:
 674:interface.c   **** 
 675:interface.c   **** 
 676:interface.c   **** }
 2031              		.loc 1 676 0
 2032 07c4 06B0     		add	sp, sp, #24
 2033              		.cfi_def_cfa_offset 16
 2034              		@ sp needed
 2035 07c6 70BD     		pop	{r4, r5, r6, pc}
 2036              	.L103:
 2037              		.align	2
 2038              	.L102:
 2039 07c8 00000000 		.word	GUI_Font16B_1
 2040 07cc EC000000 		.word	.LC14
 2041 07d0 00000000 		.word	GUI_Font13_1
 2042 07d4 38010000 		.word	.LC16
 2043 07d8 64010000 		.word	.LC17
 2044 07dc 00000000 		.word	GUI_Font13B_1
 2045 07e0 B8010000 		.word	.LC23
 2046 07e4 BC010000 		.word	.LC24
 2047 07e8 00000000 		.word	.LANCHOR2
 2048 07ec C0010000 		.word	.LC25
 2049 07f0 81808080 		.word	-2139062143
 2050 07f4 00000000 		.word	FLAG_menu
 2051 07f8 1F85EB51 		.word	1374389535
 2052              		.cfi_endproc
 2053              	.LFE666:
 2054              		.size	draw_SousMenu, .-draw_SousMenu
 2055              		.section	.text.isr_SW2,"ax",%progbits
 2056              		.align	2
 2057              		.global	isr_SW2
 2058              		.thumb
 2059              		.thumb_func
 2060              		.type	isr_SW2, %function
 2061              	isr_SW2:
 2062              	.LFB667:
 677:interface.c   **** 
 678:interface.c   **** /*******************************************************************************
 679:interface.c   **** * Function Name:void isr_SW2(void)
 680:interface.c   **** ********************************************************************************
 681:interface.c   **** *
 682:interface.c   **** * Summary: Routine d'interruption du bouton SW2
 683:interface.c   **** *
 684:interface.c   **** * Parameters:
 685:interface.c   **** *  None
 686:interface.c   **** *
 687:interface.c   **** * Return:
ARM GAS  C:\Users\Mathieu\AppData\Local\Temp\ccqdbTbw.s 			page 50


 688:interface.c   **** *  None
 689:interface.c   **** *
 690:interface.c   **** *******************************************************************************/
 691:interface.c   **** void isr_SW2(void)
 692:interface.c   **** {    
 2063              		.loc 1 692 0
 2064              		.cfi_startproc
 2065              		@ args = 0, pretend = 0, frame = 0
 2066              		@ frame_needed = 0, uses_anonymous_args = 0
 2067 0000 10B5     		push	{r4, lr}
 2068              		.cfi_def_cfa_offset 8
 2069              		.cfi_offset 4, -8
 2070              		.cfi_offset 14, -4
 2071              	.LVL260:
 2072              	.LBB20:
 2073              	.LBB21:
 2074              		.file 2 "Generated_Source\\PSoC6\\pdl\\drivers/peripheral/gpio/cy_gpio.h"
   1:Generated_Source\PSoC6\pdl\drivers/peripheral/gpio/cy_gpio.h **** /***************************************************************************//**
   2:Generated_Source\PSoC6\pdl\drivers/peripheral/gpio/cy_gpio.h **** * \file cy_gpio.h
   3:Generated_Source\PSoC6\pdl\drivers/peripheral/gpio/cy_gpio.h **** * \version 1.20
   4:Generated_Source\PSoC6\pdl\drivers/peripheral/gpio/cy_gpio.h **** *
   5:Generated_Source\PSoC6\pdl\drivers/peripheral/gpio/cy_gpio.h **** * Provides an API declaration of the GPIO driver
   6:Generated_Source\PSoC6\pdl\drivers/peripheral/gpio/cy_gpio.h **** *
   7:Generated_Source\PSoC6\pdl\drivers/peripheral/gpio/cy_gpio.h **** ********************************************************************************
   8:Generated_Source\PSoC6\pdl\drivers/peripheral/gpio/cy_gpio.h **** * \copyright
   9:Generated_Source\PSoC6\pdl\drivers/peripheral/gpio/cy_gpio.h **** * Copyright 2016-2018, Cypress Semiconductor Corporation. All rights reserved.
  10:Generated_Source\PSoC6\pdl\drivers/peripheral/gpio/cy_gpio.h **** * You may use this file only in accordance with the license, terms, conditions,
  11:Generated_Source\PSoC6\pdl\drivers/peripheral/gpio/cy_gpio.h **** * disclaimers, and limitations in the end user license agreement accompanying
  12:Generated_Source\PSoC6\pdl\drivers/peripheral/gpio/cy_gpio.h **** * the software package with which this file was provided.
  13:Generated_Source\PSoC6\pdl\drivers/peripheral/gpio/cy_gpio.h **** *******************************************************************************/
  14:Generated_Source\PSoC6\pdl\drivers/peripheral/gpio/cy_gpio.h **** 
  15:Generated_Source\PSoC6\pdl\drivers/peripheral/gpio/cy_gpio.h **** /**
  16:Generated_Source\PSoC6\pdl\drivers/peripheral/gpio/cy_gpio.h **** * \addtogroup group_gpio
  17:Generated_Source\PSoC6\pdl\drivers/peripheral/gpio/cy_gpio.h **** * \{
  18:Generated_Source\PSoC6\pdl\drivers/peripheral/gpio/cy_gpio.h **** * The GPIO driver provides an API to configure and access device Input/Output pins.
  19:Generated_Source\PSoC6\pdl\drivers/peripheral/gpio/cy_gpio.h **** *
  20:Generated_Source\PSoC6\pdl\drivers/peripheral/gpio/cy_gpio.h **** * The functions and other declarations used in this driver are in cy_gpio.h. 
  21:Generated_Source\PSoC6\pdl\drivers/peripheral/gpio/cy_gpio.h **** * You can include cy_pdl.h (ModusToolbox only) to get access to all functions 
  22:Generated_Source\PSoC6\pdl\drivers/peripheral/gpio/cy_gpio.h **** * and declarations in the PDL.
  23:Generated_Source\PSoC6\pdl\drivers/peripheral/gpio/cy_gpio.h **** *
  24:Generated_Source\PSoC6\pdl\drivers/peripheral/gpio/cy_gpio.h **** * IO pins include all general purpose types such as GPIO, SIO, HSIO, AUXIO, and
  25:Generated_Source\PSoC6\pdl\drivers/peripheral/gpio/cy_gpio.h **** * their variants.
  26:Generated_Source\PSoC6\pdl\drivers/peripheral/gpio/cy_gpio.h **** *
  27:Generated_Source\PSoC6\pdl\drivers/peripheral/gpio/cy_gpio.h **** * Initialization can be performed either at the port level or by configuring the
  28:Generated_Source\PSoC6\pdl\drivers/peripheral/gpio/cy_gpio.h **** * individual pins. For efficient use of code space, port
  29:Generated_Source\PSoC6\pdl\drivers/peripheral/gpio/cy_gpio.h **** * configuration should be used in the field. Refer to the product device header files 
  30:Generated_Source\PSoC6\pdl\drivers/peripheral/gpio/cy_gpio.h **** * for the list of supported ports and pins.
  31:Generated_Source\PSoC6\pdl\drivers/peripheral/gpio/cy_gpio.h **** * 
  32:Generated_Source\PSoC6\pdl\drivers/peripheral/gpio/cy_gpio.h **** * - Single pin configuration is performed by using \ref Cy_GPIO_Pin_FastInit 
  33:Generated_Source\PSoC6\pdl\drivers/peripheral/gpio/cy_gpio.h **** *   (provide specific values) or \ref Cy_GPIO_Pin_Init (provide a filled
  34:Generated_Source\PSoC6\pdl\drivers/peripheral/gpio/cy_gpio.h **** *   cy_stc_gpio_pin_config_t structure).
  35:Generated_Source\PSoC6\pdl\drivers/peripheral/gpio/cy_gpio.h **** * - An entire port can be configured using \ref Cy_GPIO_Port_Init. Provide a filled 
  36:Generated_Source\PSoC6\pdl\drivers/peripheral/gpio/cy_gpio.h **** *   cy_stc_gpio_prt_config_t structure. The values in the structure are 
  37:Generated_Source\PSoC6\pdl\drivers/peripheral/gpio/cy_gpio.h **** *   bitfields representing the desired value for each pin in the port.
  38:Generated_Source\PSoC6\pdl\drivers/peripheral/gpio/cy_gpio.h **** * - Pin configuration and management is based on the port address and pin number.
  39:Generated_Source\PSoC6\pdl\drivers/peripheral/gpio/cy_gpio.h **** *   \ref Cy_GPIO_PortToAddr function can optionally be used to calculate the port
  40:Generated_Source\PSoC6\pdl\drivers/peripheral/gpio/cy_gpio.h **** *   address from the port number at run-time.
ARM GAS  C:\Users\Mathieu\AppData\Local\Temp\ccqdbTbw.s 			page 51


  41:Generated_Source\PSoC6\pdl\drivers/peripheral/gpio/cy_gpio.h **** *
  42:Generated_Source\PSoC6\pdl\drivers/peripheral/gpio/cy_gpio.h **** * Once the pin/port initialization is complete, each pin can be accessed by 
  43:Generated_Source\PSoC6\pdl\drivers/peripheral/gpio/cy_gpio.h **** * specifying the port (GPIO_PRT_Type) and the pin (0-7) in the provided API 
  44:Generated_Source\PSoC6\pdl\drivers/peripheral/gpio/cy_gpio.h **** * functions.
  45:Generated_Source\PSoC6\pdl\drivers/peripheral/gpio/cy_gpio.h **** *
  46:Generated_Source\PSoC6\pdl\drivers/peripheral/gpio/cy_gpio.h **** * \section group_gpio_configuration Configuration Considerations
  47:Generated_Source\PSoC6\pdl\drivers/peripheral/gpio/cy_gpio.h **** *
  48:Generated_Source\PSoC6\pdl\drivers/peripheral/gpio/cy_gpio.h **** * 1. Pin multiplexing is controlled through the High-Speed IO Matrix (HSIOM) selection.
  49:Generated_Source\PSoC6\pdl\drivers/peripheral/gpio/cy_gpio.h **** *    This allows the pin to connect to signal sources/sinks throughout the device,
  50:Generated_Source\PSoC6\pdl\drivers/peripheral/gpio/cy_gpio.h **** *    as defined by the pin HSIOM selection options (en_hsiom_sel_t).
  51:Generated_Source\PSoC6\pdl\drivers/peripheral/gpio/cy_gpio.h **** * 2. All pins are initialized to High-Z drive mode with HSIOM connected to CPU (SW
  52:Generated_Source\PSoC6\pdl\drivers/peripheral/gpio/cy_gpio.h **** *    control digital pin only) at Power-On-Reset(POR).
  53:Generated_Source\PSoC6\pdl\drivers/peripheral/gpio/cy_gpio.h **** * 3. Some API functions perform read-modify-write operations on shared port
  54:Generated_Source\PSoC6\pdl\drivers/peripheral/gpio/cy_gpio.h **** *    registers. These functions are not thread safe and care must be taken when
  55:Generated_Source\PSoC6\pdl\drivers/peripheral/gpio/cy_gpio.h **** *    called by the application.
  56:Generated_Source\PSoC6\pdl\drivers/peripheral/gpio/cy_gpio.h **** * 4. Digital input buffer provides a high-impedance buffer for the external 
  57:Generated_Source\PSoC6\pdl\drivers/peripheral/gpio/cy_gpio.h **** *    digital input. The input buffer is connected to the HSIOM for routing to 
  58:Generated_Source\PSoC6\pdl\drivers/peripheral/gpio/cy_gpio.h **** *    the CPU port registers and selected peripheral. Enabling the input 
  59:Generated_Source\PSoC6\pdl\drivers/peripheral/gpio/cy_gpio.h **** *    buffer provides possibility to read the pin state via the CPU.
  60:Generated_Source\PSoC6\pdl\drivers/peripheral/gpio/cy_gpio.h **** *    If pin is connected to an analog signal, the input buffer should be 
  61:Generated_Source\PSoC6\pdl\drivers/peripheral/gpio/cy_gpio.h **** *    disabled to avoid crowbar currents. For more information refer to device 
  62:Generated_Source\PSoC6\pdl\drivers/peripheral/gpio/cy_gpio.h **** *    TRM and the device datasheet.
  63:Generated_Source\PSoC6\pdl\drivers/peripheral/gpio/cy_gpio.h **** *
  64:Generated_Source\PSoC6\pdl\drivers/peripheral/gpio/cy_gpio.h **** * Multiple pins on a port can be updated using direct port register writes with an
  65:Generated_Source\PSoC6\pdl\drivers/peripheral/gpio/cy_gpio.h **** * appropriate port mask. An example is shown below, highlighting the different ways of 
  66:Generated_Source\PSoC6\pdl\drivers/peripheral/gpio/cy_gpio.h **** * configuring Port 1 pins using:
  67:Generated_Source\PSoC6\pdl\drivers/peripheral/gpio/cy_gpio.h **** * 
  68:Generated_Source\PSoC6\pdl\drivers/peripheral/gpio/cy_gpio.h **** * - Port output data register
  69:Generated_Source\PSoC6\pdl\drivers/peripheral/gpio/cy_gpio.h **** * - Port output data set register
  70:Generated_Source\PSoC6\pdl\drivers/peripheral/gpio/cy_gpio.h **** * - Port output data clear register
  71:Generated_Source\PSoC6\pdl\drivers/peripheral/gpio/cy_gpio.h **** *
  72:Generated_Source\PSoC6\pdl\drivers/peripheral/gpio/cy_gpio.h **** * \snippet gpio/gpio_v1_10_sut_01.cydsn/main_cm4.c Cy_GPIO_Snippet
  73:Generated_Source\PSoC6\pdl\drivers/peripheral/gpio/cy_gpio.h **** *
  74:Generated_Source\PSoC6\pdl\drivers/peripheral/gpio/cy_gpio.h **** * \section group_gpio_more_information More Information
  75:Generated_Source\PSoC6\pdl\drivers/peripheral/gpio/cy_gpio.h **** *
  76:Generated_Source\PSoC6\pdl\drivers/peripheral/gpio/cy_gpio.h **** * Refer to the technical reference manual (TRM) and the device datasheet.
  77:Generated_Source\PSoC6\pdl\drivers/peripheral/gpio/cy_gpio.h **** *
  78:Generated_Source\PSoC6\pdl\drivers/peripheral/gpio/cy_gpio.h **** * \section group_gpio_MISRA MISRA-C Compliance
  79:Generated_Source\PSoC6\pdl\drivers/peripheral/gpio/cy_gpio.h **** * The GPIO driver has the following specific deviations:
  80:Generated_Source\PSoC6\pdl\drivers/peripheral/gpio/cy_gpio.h **** *
  81:Generated_Source\PSoC6\pdl\drivers/peripheral/gpio/cy_gpio.h **** * <table class="doxtable">
  82:Generated_Source\PSoC6\pdl\drivers/peripheral/gpio/cy_gpio.h **** *   <tr>
  83:Generated_Source\PSoC6\pdl\drivers/peripheral/gpio/cy_gpio.h **** *     <th>MISRA Rule</th>
  84:Generated_Source\PSoC6\pdl\drivers/peripheral/gpio/cy_gpio.h **** *     <th>Rule Class (Required/Advisory)</th>
  85:Generated_Source\PSoC6\pdl\drivers/peripheral/gpio/cy_gpio.h **** *     <th>Rule Description</th>
  86:Generated_Source\PSoC6\pdl\drivers/peripheral/gpio/cy_gpio.h **** *     <th>Description of Deviation(s)</th>
  87:Generated_Source\PSoC6\pdl\drivers/peripheral/gpio/cy_gpio.h **** *   </tr>
  88:Generated_Source\PSoC6\pdl\drivers/peripheral/gpio/cy_gpio.h **** *   <tr>
  89:Generated_Source\PSoC6\pdl\drivers/peripheral/gpio/cy_gpio.h **** *     <td>11.4</td>
  90:Generated_Source\PSoC6\pdl\drivers/peripheral/gpio/cy_gpio.h **** *     <td>A</td>
  91:Generated_Source\PSoC6\pdl\drivers/peripheral/gpio/cy_gpio.h **** *     <td>A cast should not be performed between a pointer to object type and
  92:Generated_Source\PSoC6\pdl\drivers/peripheral/gpio/cy_gpio.h **** *         a different pointer to object type.</td>
  93:Generated_Source\PSoC6\pdl\drivers/peripheral/gpio/cy_gpio.h **** *     <td> This code is safe because the elements of both GPIO_PRT_V1_Type and GPIO_PRT_V2_Type 
  94:Generated_Source\PSoC6\pdl\drivers/peripheral/gpio/cy_gpio.h **** *          types have identical alignment.</td>
  95:Generated_Source\PSoC6\pdl\drivers/peripheral/gpio/cy_gpio.h **** *   </tr>
  96:Generated_Source\PSoC6\pdl\drivers/peripheral/gpio/cy_gpio.h **** *   <tr>
  97:Generated_Source\PSoC6\pdl\drivers/peripheral/gpio/cy_gpio.h **** *     <td>16.7</td>
ARM GAS  C:\Users\Mathieu\AppData\Local\Temp\ccqdbTbw.s 			page 52


  98:Generated_Source\PSoC6\pdl\drivers/peripheral/gpio/cy_gpio.h **** *     <td>A</td>
  99:Generated_Source\PSoC6\pdl\drivers/peripheral/gpio/cy_gpio.h **** *     <td>A pointer parameter in a function prototype should be declared as pointer 
 100:Generated_Source\PSoC6\pdl\drivers/peripheral/gpio/cy_gpio.h **** *         to const if the pointer is not used to modify the addressed object.</td>
 101:Generated_Source\PSoC6\pdl\drivers/peripheral/gpio/cy_gpio.h **** *     <td>The objects pointed to by the base addresses of the GPIO port are not always modified.
 102:Generated_Source\PSoC6\pdl\drivers/peripheral/gpio/cy_gpio.h **** *         While a const qualifier can be used in select scenarios, it brings little benefit
 103:Generated_Source\PSoC6\pdl\drivers/peripheral/gpio/cy_gpio.h **** *         in adding this to the affected functions. </td>
 104:Generated_Source\PSoC6\pdl\drivers/peripheral/gpio/cy_gpio.h **** *   </tr>
 105:Generated_Source\PSoC6\pdl\drivers/peripheral/gpio/cy_gpio.h **** * </table>
 106:Generated_Source\PSoC6\pdl\drivers/peripheral/gpio/cy_gpio.h **** *
 107:Generated_Source\PSoC6\pdl\drivers/peripheral/gpio/cy_gpio.h **** * \section group_gpio_changelog Changelog
 108:Generated_Source\PSoC6\pdl\drivers/peripheral/gpio/cy_gpio.h **** * <table class="doxtable">
 109:Generated_Source\PSoC6\pdl\drivers/peripheral/gpio/cy_gpio.h **** *   <tr><th>Version</th><th>Changes</th><th>Reason for Change</th></tr>
 110:Generated_Source\PSoC6\pdl\drivers/peripheral/gpio/cy_gpio.h **** *   <tr>
 111:Generated_Source\PSoC6\pdl\drivers/peripheral/gpio/cy_gpio.h **** *     <td rowspan="3">1.20</td>
 112:Generated_Source\PSoC6\pdl\drivers/peripheral/gpio/cy_gpio.h **** *     <td>Flattened the organization of the driver source code into the single source directory and
 113:Generated_Source\PSoC6\pdl\drivers/peripheral/gpio/cy_gpio.h **** *     <td>Driver library directory-structure simplification.</td>
 114:Generated_Source\PSoC6\pdl\drivers/peripheral/gpio/cy_gpio.h **** *   </tr>
 115:Generated_Source\PSoC6\pdl\drivers/peripheral/gpio/cy_gpio.h **** *   <tr>
 116:Generated_Source\PSoC6\pdl\drivers/peripheral/gpio/cy_gpio.h **** *     <td>Added the functions for configuring the AMux bus splitter switch cells:
 117:Generated_Source\PSoC6\pdl\drivers/peripheral/gpio/cy_gpio.h **** *     - \ref Cy_GPIO_SetAmuxSplit
 118:Generated_Source\PSoC6\pdl\drivers/peripheral/gpio/cy_gpio.h **** *     - \ref Cy_GPIO_GetAmuxSplit
 119:Generated_Source\PSoC6\pdl\drivers/peripheral/gpio/cy_gpio.h **** *     </td>
 120:Generated_Source\PSoC6\pdl\drivers/peripheral/gpio/cy_gpio.h **** *     <td>Added a new functionality related to AMux bus.</td>
 121:Generated_Source\PSoC6\pdl\drivers/peripheral/gpio/cy_gpio.h **** *   </tr>
 122:Generated_Source\PSoC6\pdl\drivers/peripheral/gpio/cy_gpio.h **** *   <tr>
 123:Generated_Source\PSoC6\pdl\drivers/peripheral/gpio/cy_gpio.h **** *     <td>Added register access layer. Use register access macros instead
 124:Generated_Source\PSoC6\pdl\drivers/peripheral/gpio/cy_gpio.h **** *         of direct register access using dereferenced pointers.</td>
 125:Generated_Source\PSoC6\pdl\drivers/peripheral/gpio/cy_gpio.h **** *     <td>Makes register access device-independent, so that the PDL does 
 126:Generated_Source\PSoC6\pdl\drivers/peripheral/gpio/cy_gpio.h **** *         not need to be recompiled for each supported part number.</td>
 127:Generated_Source\PSoC6\pdl\drivers/peripheral/gpio/cy_gpio.h **** *   </tr>
 128:Generated_Source\PSoC6\pdl\drivers/peripheral/gpio/cy_gpio.h **** *   <tr>
 129:Generated_Source\PSoC6\pdl\drivers/peripheral/gpio/cy_gpio.h **** *     <td>1.10.1</td>
 130:Generated_Source\PSoC6\pdl\drivers/peripheral/gpio/cy_gpio.h **** *     <td>Updated description for the functions: \ref Cy_GPIO_GetInterruptStatus, 
 131:Generated_Source\PSoC6\pdl\drivers/peripheral/gpio/cy_gpio.h **** *         \ref Cy_GPIO_GetInterruptMask, \ref Cy_GPIO_GetInterruptStatusMasked.
 132:Generated_Source\PSoC6\pdl\drivers/peripheral/gpio/cy_gpio.h **** *
 133:Generated_Source\PSoC6\pdl\drivers/peripheral/gpio/cy_gpio.h **** *         Minor documentation edits.
 134:Generated_Source\PSoC6\pdl\drivers/peripheral/gpio/cy_gpio.h **** *     </td>
 135:Generated_Source\PSoC6\pdl\drivers/peripheral/gpio/cy_gpio.h **** *     <td>Documentation update and clarification</td>
 136:Generated_Source\PSoC6\pdl\drivers/peripheral/gpio/cy_gpio.h **** *   </tr>
 137:Generated_Source\PSoC6\pdl\drivers/peripheral/gpio/cy_gpio.h **** *   <tr>
 138:Generated_Source\PSoC6\pdl\drivers/peripheral/gpio/cy_gpio.h **** *     <td>1.10</td>
 139:Generated_Source\PSoC6\pdl\drivers/peripheral/gpio/cy_gpio.h **** *     <td>Added input parameter validation to the API functions</td>
 140:Generated_Source\PSoC6\pdl\drivers/peripheral/gpio/cy_gpio.h **** *     <td></td>
 141:Generated_Source\PSoC6\pdl\drivers/peripheral/gpio/cy_gpio.h **** *   </tr>
 142:Generated_Source\PSoC6\pdl\drivers/peripheral/gpio/cy_gpio.h **** *   <tr>
 143:Generated_Source\PSoC6\pdl\drivers/peripheral/gpio/cy_gpio.h **** *     <td>1.0</td>
 144:Generated_Source\PSoC6\pdl\drivers/peripheral/gpio/cy_gpio.h **** *     <td>Initial version</td>
 145:Generated_Source\PSoC6\pdl\drivers/peripheral/gpio/cy_gpio.h **** *     <td></td>
 146:Generated_Source\PSoC6\pdl\drivers/peripheral/gpio/cy_gpio.h **** *   </tr>
 147:Generated_Source\PSoC6\pdl\drivers/peripheral/gpio/cy_gpio.h **** * </table>
 148:Generated_Source\PSoC6\pdl\drivers/peripheral/gpio/cy_gpio.h **** *
 149:Generated_Source\PSoC6\pdl\drivers/peripheral/gpio/cy_gpio.h **** * \defgroup group_gpio_macros Macros
 150:Generated_Source\PSoC6\pdl\drivers/peripheral/gpio/cy_gpio.h **** * \defgroup group_gpio_functions Functions
 151:Generated_Source\PSoC6\pdl\drivers/peripheral/gpio/cy_gpio.h **** * \{
 152:Generated_Source\PSoC6\pdl\drivers/peripheral/gpio/cy_gpio.h **** *   \defgroup group_gpio_functions_init       Initialization Functions
 153:Generated_Source\PSoC6\pdl\drivers/peripheral/gpio/cy_gpio.h **** *   \defgroup group_gpio_functions_gpio       GPIO Functions
 154:Generated_Source\PSoC6\pdl\drivers/peripheral/gpio/cy_gpio.h **** *   \defgroup group_gpio_functions_sio        SIO Functions
ARM GAS  C:\Users\Mathieu\AppData\Local\Temp\ccqdbTbw.s 			page 53


 155:Generated_Source\PSoC6\pdl\drivers/peripheral/gpio/cy_gpio.h **** *   \defgroup group_gpio_functions_interrupt  Port Interrupt Functions
 156:Generated_Source\PSoC6\pdl\drivers/peripheral/gpio/cy_gpio.h **** * \}
 157:Generated_Source\PSoC6\pdl\drivers/peripheral/gpio/cy_gpio.h **** * \defgroup group_gpio_data_structures Data Structures
 158:Generated_Source\PSoC6\pdl\drivers/peripheral/gpio/cy_gpio.h **** * \defgroup group_gpio_enums Enumerated Types
 159:Generated_Source\PSoC6\pdl\drivers/peripheral/gpio/cy_gpio.h **** */
 160:Generated_Source\PSoC6\pdl\drivers/peripheral/gpio/cy_gpio.h **** 
 161:Generated_Source\PSoC6\pdl\drivers/peripheral/gpio/cy_gpio.h **** #if !defined(CY_GPIO_H)
 162:Generated_Source\PSoC6\pdl\drivers/peripheral/gpio/cy_gpio.h **** #define CY_GPIO_H
 163:Generated_Source\PSoC6\pdl\drivers/peripheral/gpio/cy_gpio.h **** 
 164:Generated_Source\PSoC6\pdl\drivers/peripheral/gpio/cy_gpio.h **** #include <stddef.h>
 165:Generated_Source\PSoC6\pdl\drivers/peripheral/gpio/cy_gpio.h **** #include "cy_device.h"
 166:Generated_Source\PSoC6\pdl\drivers/peripheral/gpio/cy_gpio.h **** #include "cy_device_headers.h"
 167:Generated_Source\PSoC6\pdl\drivers/peripheral/gpio/cy_gpio.h **** #include "cy_syslib.h"
 168:Generated_Source\PSoC6\pdl\drivers/peripheral/gpio/cy_gpio.h **** 
 169:Generated_Source\PSoC6\pdl\drivers/peripheral/gpio/cy_gpio.h **** #if defined(__cplusplus)
 170:Generated_Source\PSoC6\pdl\drivers/peripheral/gpio/cy_gpio.h **** extern "C" {
 171:Generated_Source\PSoC6\pdl\drivers/peripheral/gpio/cy_gpio.h **** #endif
 172:Generated_Source\PSoC6\pdl\drivers/peripheral/gpio/cy_gpio.h **** 
 173:Generated_Source\PSoC6\pdl\drivers/peripheral/gpio/cy_gpio.h **** /** \addtogroup group_gpio_macros
 174:Generated_Source\PSoC6\pdl\drivers/peripheral/gpio/cy_gpio.h **** * \{
 175:Generated_Source\PSoC6\pdl\drivers/peripheral/gpio/cy_gpio.h **** */
 176:Generated_Source\PSoC6\pdl\drivers/peripheral/gpio/cy_gpio.h **** 
 177:Generated_Source\PSoC6\pdl\drivers/peripheral/gpio/cy_gpio.h **** /** Driver major version */
 178:Generated_Source\PSoC6\pdl\drivers/peripheral/gpio/cy_gpio.h **** #define CY_GPIO_DRV_VERSION_MAJOR       1
 179:Generated_Source\PSoC6\pdl\drivers/peripheral/gpio/cy_gpio.h **** 
 180:Generated_Source\PSoC6\pdl\drivers/peripheral/gpio/cy_gpio.h **** /** Driver minor version */
 181:Generated_Source\PSoC6\pdl\drivers/peripheral/gpio/cy_gpio.h **** #define CY_GPIO_DRV_VERSION_MINOR       20
 182:Generated_Source\PSoC6\pdl\drivers/peripheral/gpio/cy_gpio.h **** 
 183:Generated_Source\PSoC6\pdl\drivers/peripheral/gpio/cy_gpio.h **** /** GPIO driver ID */
 184:Generated_Source\PSoC6\pdl\drivers/peripheral/gpio/cy_gpio.h **** #define CY_GPIO_ID CY_PDL_DRV_ID(0x16U)
 185:Generated_Source\PSoC6\pdl\drivers/peripheral/gpio/cy_gpio.h **** 
 186:Generated_Source\PSoC6\pdl\drivers/peripheral/gpio/cy_gpio.h **** /** \} group_gpio_macros */
 187:Generated_Source\PSoC6\pdl\drivers/peripheral/gpio/cy_gpio.h **** 
 188:Generated_Source\PSoC6\pdl\drivers/peripheral/gpio/cy_gpio.h **** 
 189:Generated_Source\PSoC6\pdl\drivers/peripheral/gpio/cy_gpio.h **** /***************************************
 190:Generated_Source\PSoC6\pdl\drivers/peripheral/gpio/cy_gpio.h **** *       Enumerations
 191:Generated_Source\PSoC6\pdl\drivers/peripheral/gpio/cy_gpio.h **** ***************************************/
 192:Generated_Source\PSoC6\pdl\drivers/peripheral/gpio/cy_gpio.h **** /**
 193:Generated_Source\PSoC6\pdl\drivers/peripheral/gpio/cy_gpio.h **** * \addtogroup group_gpio_enums
 194:Generated_Source\PSoC6\pdl\drivers/peripheral/gpio/cy_gpio.h **** * \{
 195:Generated_Source\PSoC6\pdl\drivers/peripheral/gpio/cy_gpio.h **** */
 196:Generated_Source\PSoC6\pdl\drivers/peripheral/gpio/cy_gpio.h **** 
 197:Generated_Source\PSoC6\pdl\drivers/peripheral/gpio/cy_gpio.h **** /** GPIO Driver error codes */
 198:Generated_Source\PSoC6\pdl\drivers/peripheral/gpio/cy_gpio.h **** typedef enum 
 199:Generated_Source\PSoC6\pdl\drivers/peripheral/gpio/cy_gpio.h **** {
 200:Generated_Source\PSoC6\pdl\drivers/peripheral/gpio/cy_gpio.h ****     CY_GPIO_SUCCESS   = 0x00U,                                    /**< Returned successful */
 201:Generated_Source\PSoC6\pdl\drivers/peripheral/gpio/cy_gpio.h ****     CY_GPIO_BAD_PARAM = CY_GPIO_ID | CY_PDL_STATUS_ERROR | 0x01U, /**< Bad parameter was passed */
 202:Generated_Source\PSoC6\pdl\drivers/peripheral/gpio/cy_gpio.h **** } cy_en_gpio_status_t;
 203:Generated_Source\PSoC6\pdl\drivers/peripheral/gpio/cy_gpio.h **** 
 204:Generated_Source\PSoC6\pdl\drivers/peripheral/gpio/cy_gpio.h **** /** AMux switch open/close config */
 205:Generated_Source\PSoC6\pdl\drivers/peripheral/gpio/cy_gpio.h **** typedef enum
 206:Generated_Source\PSoC6\pdl\drivers/peripheral/gpio/cy_gpio.h **** {
 207:Generated_Source\PSoC6\pdl\drivers/peripheral/gpio/cy_gpio.h ****     CY_GPIO_AMUX_OPENALL,   /**< Open ground switch. Open right switch. Open left switch */
 208:Generated_Source\PSoC6\pdl\drivers/peripheral/gpio/cy_gpio.h ****     CY_GPIO_AMUX_L,         /**< Open ground switch. Open right switch. Close left switch */
 209:Generated_Source\PSoC6\pdl\drivers/peripheral/gpio/cy_gpio.h ****     CY_GPIO_AMUX_R,         /**< Open ground switch. Close right switch. Open left switch */
 210:Generated_Source\PSoC6\pdl\drivers/peripheral/gpio/cy_gpio.h ****     CY_GPIO_AMUX_LR,        /**< Open ground switch. Close right switch. Close left switch */
 211:Generated_Source\PSoC6\pdl\drivers/peripheral/gpio/cy_gpio.h ****     CY_GPIO_AMUX_G,         /**< Close ground switch. Open right switch. Open left switch */
ARM GAS  C:\Users\Mathieu\AppData\Local\Temp\ccqdbTbw.s 			page 54


 212:Generated_Source\PSoC6\pdl\drivers/peripheral/gpio/cy_gpio.h ****     CY_GPIO_AMUX_GL,        /**< Close ground switch. Open right switch. Close left switch */
 213:Generated_Source\PSoC6\pdl\drivers/peripheral/gpio/cy_gpio.h ****     CY_GPIO_AMUX_GR,        /**< Close ground switch. Close right switch. Open left switch */
 214:Generated_Source\PSoC6\pdl\drivers/peripheral/gpio/cy_gpio.h ****     CY_GPIO_AMUX_GLR,       /**< Close ground switch. Close right switch. Close left switch */
 215:Generated_Source\PSoC6\pdl\drivers/peripheral/gpio/cy_gpio.h **** }cy_en_gpio_amuxconnect_t;
 216:Generated_Source\PSoC6\pdl\drivers/peripheral/gpio/cy_gpio.h **** 
 217:Generated_Source\PSoC6\pdl\drivers/peripheral/gpio/cy_gpio.h **** /**
 218:Generated_Source\PSoC6\pdl\drivers/peripheral/gpio/cy_gpio.h **** * AMux Bus selection
 219:Generated_Source\PSoC6\pdl\drivers/peripheral/gpio/cy_gpio.h **** */
 220:Generated_Source\PSoC6\pdl\drivers/peripheral/gpio/cy_gpio.h **** typedef enum
 221:Generated_Source\PSoC6\pdl\drivers/peripheral/gpio/cy_gpio.h **** {
 222:Generated_Source\PSoC6\pdl\drivers/peripheral/gpio/cy_gpio.h ****     CY_GPIO_AMUXBUSA,       /**< AMuxBus A */
 223:Generated_Source\PSoC6\pdl\drivers/peripheral/gpio/cy_gpio.h ****     CY_GPIO_AMUXBUSB        /**< AMuxBus B */
 224:Generated_Source\PSoC6\pdl\drivers/peripheral/gpio/cy_gpio.h **** }cy_en_gpio_amuxselect_t;
 225:Generated_Source\PSoC6\pdl\drivers/peripheral/gpio/cy_gpio.h **** 
 226:Generated_Source\PSoC6\pdl\drivers/peripheral/gpio/cy_gpio.h **** /** \} group_gpio_enums */
 227:Generated_Source\PSoC6\pdl\drivers/peripheral/gpio/cy_gpio.h **** 
 228:Generated_Source\PSoC6\pdl\drivers/peripheral/gpio/cy_gpio.h **** 
 229:Generated_Source\PSoC6\pdl\drivers/peripheral/gpio/cy_gpio.h **** /***************************************
 230:Generated_Source\PSoC6\pdl\drivers/peripheral/gpio/cy_gpio.h **** *       Configuration Structures
 231:Generated_Source\PSoC6\pdl\drivers/peripheral/gpio/cy_gpio.h **** ***************************************/
 232:Generated_Source\PSoC6\pdl\drivers/peripheral/gpio/cy_gpio.h **** 
 233:Generated_Source\PSoC6\pdl\drivers/peripheral/gpio/cy_gpio.h **** /**
 234:Generated_Source\PSoC6\pdl\drivers/peripheral/gpio/cy_gpio.h **** * \addtogroup group_gpio_data_structures
 235:Generated_Source\PSoC6\pdl\drivers/peripheral/gpio/cy_gpio.h **** * \{
 236:Generated_Source\PSoC6\pdl\drivers/peripheral/gpio/cy_gpio.h **** */
 237:Generated_Source\PSoC6\pdl\drivers/peripheral/gpio/cy_gpio.h **** 
 238:Generated_Source\PSoC6\pdl\drivers/peripheral/gpio/cy_gpio.h **** /** This structure is used to initialize a port of GPIO pins */
 239:Generated_Source\PSoC6\pdl\drivers/peripheral/gpio/cy_gpio.h **** typedef struct 
 240:Generated_Source\PSoC6\pdl\drivers/peripheral/gpio/cy_gpio.h **** {
 241:Generated_Source\PSoC6\pdl\drivers/peripheral/gpio/cy_gpio.h ****     uint32_t out;           /**< Initial output data for the IO pins in the port */
 242:Generated_Source\PSoC6\pdl\drivers/peripheral/gpio/cy_gpio.h ****     uint32_t intrMask;      /**< Interrupt enable mask for the port interrupt */
 243:Generated_Source\PSoC6\pdl\drivers/peripheral/gpio/cy_gpio.h ****     uint32_t intrCfg;       /**< Port pin interrupt edge detection configuration */
 244:Generated_Source\PSoC6\pdl\drivers/peripheral/gpio/cy_gpio.h ****     uint32_t cfg;           /**< Port pin drive modes and input buffer enable configuration */
 245:Generated_Source\PSoC6\pdl\drivers/peripheral/gpio/cy_gpio.h ****     uint32_t cfgIn;         /**< Port pin input buffer configuration */
 246:Generated_Source\PSoC6\pdl\drivers/peripheral/gpio/cy_gpio.h ****     uint32_t cfgOut;        /**< Port pin output buffer configuration */
 247:Generated_Source\PSoC6\pdl\drivers/peripheral/gpio/cy_gpio.h ****     uint32_t cfgSIO;        /**< Port SIO pins configuration */
 248:Generated_Source\PSoC6\pdl\drivers/peripheral/gpio/cy_gpio.h ****     uint32_t sel0Active;    /**< HSIOM selection for port pins 0,1,2,3 */
 249:Generated_Source\PSoC6\pdl\drivers/peripheral/gpio/cy_gpio.h ****     uint32_t sel1Active;    /**< HSIOM selection for port pins 4,5,6,7 */
 250:Generated_Source\PSoC6\pdl\drivers/peripheral/gpio/cy_gpio.h **** } cy_stc_gpio_prt_config_t;
 251:Generated_Source\PSoC6\pdl\drivers/peripheral/gpio/cy_gpio.h **** 
 252:Generated_Source\PSoC6\pdl\drivers/peripheral/gpio/cy_gpio.h **** /** This structure is used to initialize a single GPIO pin */
 253:Generated_Source\PSoC6\pdl\drivers/peripheral/gpio/cy_gpio.h **** typedef struct
 254:Generated_Source\PSoC6\pdl\drivers/peripheral/gpio/cy_gpio.h **** {
 255:Generated_Source\PSoC6\pdl\drivers/peripheral/gpio/cy_gpio.h ****     uint32_t outVal;         /**< Pin output state */
 256:Generated_Source\PSoC6\pdl\drivers/peripheral/gpio/cy_gpio.h ****     uint32_t driveMode;      /**< Drive mode */
 257:Generated_Source\PSoC6\pdl\drivers/peripheral/gpio/cy_gpio.h ****     en_hsiom_sel_t hsiom;    /**< HSIOM selection */
 258:Generated_Source\PSoC6\pdl\drivers/peripheral/gpio/cy_gpio.h ****     uint32_t intEdge;        /**< Interrupt Edge type */
 259:Generated_Source\PSoC6\pdl\drivers/peripheral/gpio/cy_gpio.h ****     uint32_t intMask;        /**< Interrupt enable mask */
 260:Generated_Source\PSoC6\pdl\drivers/peripheral/gpio/cy_gpio.h ****     uint32_t vtrip;          /**< Input buffer voltage trip type */
 261:Generated_Source\PSoC6\pdl\drivers/peripheral/gpio/cy_gpio.h ****     uint32_t slewRate;       /**< Output buffer slew rate */
 262:Generated_Source\PSoC6\pdl\drivers/peripheral/gpio/cy_gpio.h ****     uint32_t driveSel;       /**< Drive strength */
 263:Generated_Source\PSoC6\pdl\drivers/peripheral/gpio/cy_gpio.h ****     uint32_t vregEn;         /**< SIO pair output buffer mode */
 264:Generated_Source\PSoC6\pdl\drivers/peripheral/gpio/cy_gpio.h ****     uint32_t ibufMode;       /**< SIO pair input buffer mode */
 265:Generated_Source\PSoC6\pdl\drivers/peripheral/gpio/cy_gpio.h ****     uint32_t vtripSel;       /**< SIO pair input buffer trip point */
 266:Generated_Source\PSoC6\pdl\drivers/peripheral/gpio/cy_gpio.h ****     uint32_t vrefSel;        /**< SIO pair reference voltage for input buffer trip point */
 267:Generated_Source\PSoC6\pdl\drivers/peripheral/gpio/cy_gpio.h ****     uint32_t vohSel;         /**< SIO pair regulated voltage output level */
 268:Generated_Source\PSoC6\pdl\drivers/peripheral/gpio/cy_gpio.h **** } cy_stc_gpio_pin_config_t;
ARM GAS  C:\Users\Mathieu\AppData\Local\Temp\ccqdbTbw.s 			page 55


 269:Generated_Source\PSoC6\pdl\drivers/peripheral/gpio/cy_gpio.h **** 
 270:Generated_Source\PSoC6\pdl\drivers/peripheral/gpio/cy_gpio.h **** /** \} group_gpio_data_structures */
 271:Generated_Source\PSoC6\pdl\drivers/peripheral/gpio/cy_gpio.h **** 
 272:Generated_Source\PSoC6\pdl\drivers/peripheral/gpio/cy_gpio.h **** /***************************************
 273:Generated_Source\PSoC6\pdl\drivers/peripheral/gpio/cy_gpio.h **** *        Constants
 274:Generated_Source\PSoC6\pdl\drivers/peripheral/gpio/cy_gpio.h **** ***************************************/
 275:Generated_Source\PSoC6\pdl\drivers/peripheral/gpio/cy_gpio.h **** 
 276:Generated_Source\PSoC6\pdl\drivers/peripheral/gpio/cy_gpio.h **** /** \cond INTERNAL */
 277:Generated_Source\PSoC6\pdl\drivers/peripheral/gpio/cy_gpio.h **** 
 278:Generated_Source\PSoC6\pdl\drivers/peripheral/gpio/cy_gpio.h **** /* General Constants */
 279:Generated_Source\PSoC6\pdl\drivers/peripheral/gpio/cy_gpio.h **** #define CY_GPIO_PRT_HALF                       (4UL)      /**< Half-way point of a GPIO port */
 280:Generated_Source\PSoC6\pdl\drivers/peripheral/gpio/cy_gpio.h **** #define CY_GPIO_PRT_DEINIT                     (0UL)      /**< De-init value for port registers */
 281:Generated_Source\PSoC6\pdl\drivers/peripheral/gpio/cy_gpio.h **** 
 282:Generated_Source\PSoC6\pdl\drivers/peripheral/gpio/cy_gpio.h **** /* GPIO Masks */
 283:Generated_Source\PSoC6\pdl\drivers/peripheral/gpio/cy_gpio.h **** #define CY_GPIO_HSIOM_MASK                     (0x1FUL)   /**< HSIOM selection mask */
 284:Generated_Source\PSoC6\pdl\drivers/peripheral/gpio/cy_gpio.h **** #define CY_GPIO_OUT_MASK                       (0x01UL)   /**< Single pin mask for OUT register */
 285:Generated_Source\PSoC6\pdl\drivers/peripheral/gpio/cy_gpio.h **** #define CY_GPIO_IN_MASK                        (0x01UL)   /**< Single pin mask for IN register */
 286:Generated_Source\PSoC6\pdl\drivers/peripheral/gpio/cy_gpio.h **** #define CY_GPIO_CFG_DM_MASK                    (0x0FUL)   /**< Single pin mask for drive mode in CF
 287:Generated_Source\PSoC6\pdl\drivers/peripheral/gpio/cy_gpio.h **** #define CY_GPIO_CFG_IN_VTRIP_SEL_MASK          (0x01UL)   /**< Single pin mask for VTRIP selection 
 288:Generated_Source\PSoC6\pdl\drivers/peripheral/gpio/cy_gpio.h **** #define CY_GPIO_CFG_OUT_SLOW_MASK              (0x01UL)   /**< Single pin mask for slew rate in CFG
 289:Generated_Source\PSoC6\pdl\drivers/peripheral/gpio/cy_gpio.h **** #define CY_GPIO_CFG_OUT_DRIVE_SEL_MASK         (0x03UL)   /**< Single pin mask for drive strength i
 290:Generated_Source\PSoC6\pdl\drivers/peripheral/gpio/cy_gpio.h **** #define CY_GPIO_INTR_STATUS_MASK               (0x01UL)   /**< Single pin mask for interrupt status
 291:Generated_Source\PSoC6\pdl\drivers/peripheral/gpio/cy_gpio.h **** #define CY_GPIO_INTR_EN_MASK                   (0x01UL)   /**< Single pin mask for interrupt status
 292:Generated_Source\PSoC6\pdl\drivers/peripheral/gpio/cy_gpio.h **** #define CY_GPIO_INTR_MASKED_MASK               (0x01UL)   /**< Single pin mask for masked interrupt
 293:Generated_Source\PSoC6\pdl\drivers/peripheral/gpio/cy_gpio.h **** #define CY_GPIO_INTR_SET_MASK                  (0x01UL)   /**< Single pin mask for setting the inte
 294:Generated_Source\PSoC6\pdl\drivers/peripheral/gpio/cy_gpio.h **** #define CY_GPIO_INTR_EDGE_MASK                 (0x03UL)   /**< Single pin mask for interrupt edge t
 295:Generated_Source\PSoC6\pdl\drivers/peripheral/gpio/cy_gpio.h **** #define CY_GPIO_INTR_FLT_EDGE_MASK             (0x07UL)   /**< Single pin mask for setting filtered
 296:Generated_Source\PSoC6\pdl\drivers/peripheral/gpio/cy_gpio.h **** 
 297:Generated_Source\PSoC6\pdl\drivers/peripheral/gpio/cy_gpio.h **** /* SIO Masks */
 298:Generated_Source\PSoC6\pdl\drivers/peripheral/gpio/cy_gpio.h **** #define CY_GPIO_VREG_EN_MASK                   (0x01UL)   /**< Single SIO pin mask for voltage regu
 299:Generated_Source\PSoC6\pdl\drivers/peripheral/gpio/cy_gpio.h **** #define CY_GPIO_IBUF_MASK                      (0x01UL)   /**< Single SIO pin mask for input buffer
 300:Generated_Source\PSoC6\pdl\drivers/peripheral/gpio/cy_gpio.h **** #define CY_GPIO_IBUF_SHIFT                     (0x01UL)   /**< Single SIO pin shift for input buffe
 301:Generated_Source\PSoC6\pdl\drivers/peripheral/gpio/cy_gpio.h **** #define CY_GPIO_VTRIP_SEL_MASK                 (0x01UL)   /**< Single SIO pin mask for the input bu
 302:Generated_Source\PSoC6\pdl\drivers/peripheral/gpio/cy_gpio.h **** #define CY_GPIO_VTRIP_SEL_SHIFT                (0x02UL)   /**< Single SIO pin shift for the input b
 303:Generated_Source\PSoC6\pdl\drivers/peripheral/gpio/cy_gpio.h **** #define CY_GPIO_VREF_SEL_MASK                  (0x03UL)   /**< Single SIO pin mask for voltage refe
 304:Generated_Source\PSoC6\pdl\drivers/peripheral/gpio/cy_gpio.h **** #define CY_GPIO_VREF_SEL_SHIFT                 (0x03UL)   /**< Single SIO pin shift for voltage ref
 305:Generated_Source\PSoC6\pdl\drivers/peripheral/gpio/cy_gpio.h **** #define CY_GPIO_VOH_SEL_MASK                   (0x07UL)   /**< Single SIO pin mask for VOH */
 306:Generated_Source\PSoC6\pdl\drivers/peripheral/gpio/cy_gpio.h **** #define CY_GPIO_VOH_SEL_SHIFT                  (0x05UL)   /**< Single SIO pin shift for VOH */
 307:Generated_Source\PSoC6\pdl\drivers/peripheral/gpio/cy_gpio.h **** 
 308:Generated_Source\PSoC6\pdl\drivers/peripheral/gpio/cy_gpio.h **** /* Special mask for SIO pin pair setting */
 309:Generated_Source\PSoC6\pdl\drivers/peripheral/gpio/cy_gpio.h **** #define CY_GPIO_SIO_ODD_PIN_MASK               (0x00FEUL) /**< SIO pin pair selection mask */
 310:Generated_Source\PSoC6\pdl\drivers/peripheral/gpio/cy_gpio.h **** #define CY_GPIO_SIO_PIN_MASK                   (0x00FFUL) /**< SIO pin pair mask */
 311:Generated_Source\PSoC6\pdl\drivers/peripheral/gpio/cy_gpio.h **** 
 312:Generated_Source\PSoC6\pdl\drivers/peripheral/gpio/cy_gpio.h **** /* Offsets */
 313:Generated_Source\PSoC6\pdl\drivers/peripheral/gpio/cy_gpio.h **** #define CY_GPIO_HSIOM_OFFSET                   (3UL)      /**< Offset for HSIOM */
 314:Generated_Source\PSoC6\pdl\drivers/peripheral/gpio/cy_gpio.h **** #define CY_GPIO_DRIVE_MODE_OFFSET              (2UL)      /**< Offset for Drive mode */
 315:Generated_Source\PSoC6\pdl\drivers/peripheral/gpio/cy_gpio.h **** #define CY_GPIO_INBUF_OFFSET                   (3UL)      /**< Offset for input buffer */
 316:Generated_Source\PSoC6\pdl\drivers/peripheral/gpio/cy_gpio.h **** #define CY_GPIO_CFG_OUT_DRIVE_OFFSET           (16UL)     /**< Offset for drive strength */
 317:Generated_Source\PSoC6\pdl\drivers/peripheral/gpio/cy_gpio.h **** #define CY_GPIO_INTR_CFG_OFFSET                (1UL)      /**< Offset for interrupt config */
 318:Generated_Source\PSoC6\pdl\drivers/peripheral/gpio/cy_gpio.h **** #define CY_GPIO_INTR_FILT_OFFSET               (18UL)     /**< Offset for filtered interrupt config
 319:Generated_Source\PSoC6\pdl\drivers/peripheral/gpio/cy_gpio.h **** #define CY_GPIO_CFG_SIO_OFFSET                 (2UL)      /**< Offset for SIO config */
 320:Generated_Source\PSoC6\pdl\drivers/peripheral/gpio/cy_gpio.h **** 
 321:Generated_Source\PSoC6\pdl\drivers/peripheral/gpio/cy_gpio.h **** /* Parameter validation constants */
 322:Generated_Source\PSoC6\pdl\drivers/peripheral/gpio/cy_gpio.h **** #define CY_GPIO_PINS_MAX                       (8UL)      /**< Number of pins in the port */
 323:Generated_Source\PSoC6\pdl\drivers/peripheral/gpio/cy_gpio.h **** #define CY_GPIO_PRT_PINS_MASK                  (0x0000000FFUL)
 324:Generated_Source\PSoC6\pdl\drivers/peripheral/gpio/cy_gpio.h **** #define CY_GPIO_PRT_INTR_CFG_EDGE_SEL_MASK     (GPIO_PRT_INTR_CFG_EDGE0_SEL_Msk | \
 325:Generated_Source\PSoC6\pdl\drivers/peripheral/gpio/cy_gpio.h ****                                                 GPIO_PRT_INTR_CFG_EDGE1_SEL_Msk | \
ARM GAS  C:\Users\Mathieu\AppData\Local\Temp\ccqdbTbw.s 			page 56


 326:Generated_Source\PSoC6\pdl\drivers/peripheral/gpio/cy_gpio.h ****                                                 GPIO_PRT_INTR_CFG_EDGE2_SEL_Msk | \
 327:Generated_Source\PSoC6\pdl\drivers/peripheral/gpio/cy_gpio.h ****                                                 GPIO_PRT_INTR_CFG_EDGE3_SEL_Msk | \
 328:Generated_Source\PSoC6\pdl\drivers/peripheral/gpio/cy_gpio.h ****                                                 GPIO_PRT_INTR_CFG_EDGE4_SEL_Msk | \
 329:Generated_Source\PSoC6\pdl\drivers/peripheral/gpio/cy_gpio.h ****                                                 GPIO_PRT_INTR_CFG_EDGE5_SEL_Msk | \
 330:Generated_Source\PSoC6\pdl\drivers/peripheral/gpio/cy_gpio.h ****                                                 GPIO_PRT_INTR_CFG_EDGE6_SEL_Msk | \
 331:Generated_Source\PSoC6\pdl\drivers/peripheral/gpio/cy_gpio.h ****                                                 GPIO_PRT_INTR_CFG_EDGE7_SEL_Msk)
 332:Generated_Source\PSoC6\pdl\drivers/peripheral/gpio/cy_gpio.h **** #define CY_GPIO_PRT_INTR_CFG_RANGE_MASK        (CY_GPIO_PRT_INTR_CFG_EDGE_SEL_MASK | \
 333:Generated_Source\PSoC6\pdl\drivers/peripheral/gpio/cy_gpio.h ****                                                 GPIO_PRT_INTR_CFG_FLT_EDGE_SEL_Msk | \
 334:Generated_Source\PSoC6\pdl\drivers/peripheral/gpio/cy_gpio.h ****                                                 GPIO_PRT_INTR_CFG_FLT_SEL_Msk)
 335:Generated_Source\PSoC6\pdl\drivers/peripheral/gpio/cy_gpio.h **** #define CY_GPIO_PRT_INT_MASK_MASK              (0x0000001FFUL)
 336:Generated_Source\PSoC6\pdl\drivers/peripheral/gpio/cy_gpio.h **** #define CY_GPIO_PRT_SEL_ACTIVE_MASK            (0x1FFFFFFFUL)
 337:Generated_Source\PSoC6\pdl\drivers/peripheral/gpio/cy_gpio.h **** 
 338:Generated_Source\PSoC6\pdl\drivers/peripheral/gpio/cy_gpio.h **** #define GPIO_MAX_SPLIT_CELL_SEGMENTS           (9U)
 339:Generated_Source\PSoC6\pdl\drivers/peripheral/gpio/cy_gpio.h **** 
 340:Generated_Source\PSoC6\pdl\drivers/peripheral/gpio/cy_gpio.h **** /* Parameter validation macros */
 341:Generated_Source\PSoC6\pdl\drivers/peripheral/gpio/cy_gpio.h **** #define CY_GPIO_IS_PIN_VALID(pinNum)           (CY_GPIO_PINS_MAX > (pinNum))
 342:Generated_Source\PSoC6\pdl\drivers/peripheral/gpio/cy_gpio.h **** #define CY_GPIO_IS_FILTER_PIN_VALID(pinNum)    (CY_GPIO_PINS_MAX >= (pinNum))
 343:Generated_Source\PSoC6\pdl\drivers/peripheral/gpio/cy_gpio.h **** #define CY_GPIO_IS_VALUE_VALID(outVal)         (1UL >= (outVal))
 344:Generated_Source\PSoC6\pdl\drivers/peripheral/gpio/cy_gpio.h **** #define CY_GPIO_IS_DM_VALID(driveMode)         (0U == ((driveMode) & (uint32_t)~CY_GPIO_CFG_DM_MASK
 345:Generated_Source\PSoC6\pdl\drivers/peripheral/gpio/cy_gpio.h **** 
 346:Generated_Source\PSoC6\pdl\drivers/peripheral/gpio/cy_gpio.h **** #define CY_GPIO_IS_HSIOM_VALID(hsiom)          (0U == ((hsiom) & (uint32_t)~CY_GPIO_HSIOM_MASK))
 347:Generated_Source\PSoC6\pdl\drivers/peripheral/gpio/cy_gpio.h **** 
 348:Generated_Source\PSoC6\pdl\drivers/peripheral/gpio/cy_gpio.h **** #define CY_GPIO_IS_INT_EDGE_VALID(intEdge)     ((CY_GPIO_INTR_DISABLE  == (intEdge)) || \
 349:Generated_Source\PSoC6\pdl\drivers/peripheral/gpio/cy_gpio.h ****                                                 (CY_GPIO_INTR_RISING   == (intEdge)) || \
 350:Generated_Source\PSoC6\pdl\drivers/peripheral/gpio/cy_gpio.h ****                                                 (CY_GPIO_INTR_FALLING  == (intEdge)) || \
 351:Generated_Source\PSoC6\pdl\drivers/peripheral/gpio/cy_gpio.h ****                                                 (CY_GPIO_INTR_BOTH     == (intEdge)))
 352:Generated_Source\PSoC6\pdl\drivers/peripheral/gpio/cy_gpio.h **** 
 353:Generated_Source\PSoC6\pdl\drivers/peripheral/gpio/cy_gpio.h **** #define CY_GPIO_IS_DRIVE_SEL_VALID(driveSel)   ((CY_GPIO_DRIVE_FULL    == (driveSel)) || \
 354:Generated_Source\PSoC6\pdl\drivers/peripheral/gpio/cy_gpio.h ****                                                 (CY_GPIO_DRIVE_1_2     == (driveSel)) || \
 355:Generated_Source\PSoC6\pdl\drivers/peripheral/gpio/cy_gpio.h ****                                                 (CY_GPIO_DRIVE_1_4     == (driveSel)) || \
 356:Generated_Source\PSoC6\pdl\drivers/peripheral/gpio/cy_gpio.h ****                                                 (CY_GPIO_DRIVE_1_8     == (driveSel)))
 357:Generated_Source\PSoC6\pdl\drivers/peripheral/gpio/cy_gpio.h **** 
 358:Generated_Source\PSoC6\pdl\drivers/peripheral/gpio/cy_gpio.h **** #define CY_GPIO_IS_VREF_SEL_VALID(vrefSel)     ((CY_SIO_VREF_PINREF    == (vrefSel)) || \
 359:Generated_Source\PSoC6\pdl\drivers/peripheral/gpio/cy_gpio.h ****                                                 (CY_SIO_VREF_1_2V      == (vrefSel)) || \
 360:Generated_Source\PSoC6\pdl\drivers/peripheral/gpio/cy_gpio.h ****                                                 (CY_SIO_VREF_AMUX_A    == (vrefSel)) || \
 361:Generated_Source\PSoC6\pdl\drivers/peripheral/gpio/cy_gpio.h ****                                                 (CY_SIO_VREF_AMUX_B    == (vrefSel)))
 362:Generated_Source\PSoC6\pdl\drivers/peripheral/gpio/cy_gpio.h **** 
 363:Generated_Source\PSoC6\pdl\drivers/peripheral/gpio/cy_gpio.h **** #define CY_GPIO_IS_VOH_SEL_VALID(vrefSel)      ((CY_SIO_VOH_1_00       == (vrefSel)) || \
 364:Generated_Source\PSoC6\pdl\drivers/peripheral/gpio/cy_gpio.h ****                                                 (CY_SIO_VOH_1_25       == (vrefSel)) || \
 365:Generated_Source\PSoC6\pdl\drivers/peripheral/gpio/cy_gpio.h ****                                                 (CY_SIO_VOH_1_49       == (vrefSel)) || \
 366:Generated_Source\PSoC6\pdl\drivers/peripheral/gpio/cy_gpio.h ****                                                 (CY_SIO_VOH_1_67       == (vrefSel)) || \
 367:Generated_Source\PSoC6\pdl\drivers/peripheral/gpio/cy_gpio.h ****                                                 (CY_SIO_VOH_2_08       == (vrefSel)) || \
 368:Generated_Source\PSoC6\pdl\drivers/peripheral/gpio/cy_gpio.h ****                                                 (CY_SIO_VOH_2_50       == (vrefSel)) || \
 369:Generated_Source\PSoC6\pdl\drivers/peripheral/gpio/cy_gpio.h ****                                                 (CY_SIO_VOH_2_78       == (vrefSel)) || \
 370:Generated_Source\PSoC6\pdl\drivers/peripheral/gpio/cy_gpio.h ****                                                 (CY_SIO_VOH_4_16       == (vrefSel)))
 371:Generated_Source\PSoC6\pdl\drivers/peripheral/gpio/cy_gpio.h ****                    
 372:Generated_Source\PSoC6\pdl\drivers/peripheral/gpio/cy_gpio.h **** #define CY_GPIO_IS_PIN_BIT_VALID(pinBit)       (0U == ((pinBit) & (uint32_t)~CY_GPIO_PRT_PINS_MASK)
 373:Generated_Source\PSoC6\pdl\drivers/peripheral/gpio/cy_gpio.h **** #define CY_GPIO_IS_INTR_CFG_VALID(intrCfg)     (0U == ((intrCfg) & (uint32_t)~CY_GPIO_PRT_INTR_CFG_
 374:Generated_Source\PSoC6\pdl\drivers/peripheral/gpio/cy_gpio.h **** #define CY_GPIO_IS_INTR_MASK_VALID(intrMask)   (0U == ((intrMask) & (uint32_t)~CY_GPIO_PRT_INT_MASK
 375:Generated_Source\PSoC6\pdl\drivers/peripheral/gpio/cy_gpio.h **** #define CY_GPIO_IS_SEL_ACT_VALID(selActive)    (0U == ((selActive) & (uint32_t)~CY_GPIO_PRT_SEL_ACT
 376:Generated_Source\PSoC6\pdl\drivers/peripheral/gpio/cy_gpio.h **** 
 377:Generated_Source\PSoC6\pdl\drivers/peripheral/gpio/cy_gpio.h **** #define CY_GPIO_IS_AMUX_SPLIT_VALID(switchCtrl)       (((uint32_t) (switchCtrl)) < GPIO_MAX_SPLIT_C
 378:Generated_Source\PSoC6\pdl\drivers/peripheral/gpio/cy_gpio.h **** 
 379:Generated_Source\PSoC6\pdl\drivers/peripheral/gpio/cy_gpio.h **** #define CY_GPIO_IS_AMUX_CONNECT_VALID(amuxConnect)    ((CY_GPIO_AMUX_OPENALL == (amuxConnect)) || \
 380:Generated_Source\PSoC6\pdl\drivers/peripheral/gpio/cy_gpio.h ****                                                        (CY_GPIO_AMUX_L       == (amuxConnect)) || \
 381:Generated_Source\PSoC6\pdl\drivers/peripheral/gpio/cy_gpio.h ****                                                        (CY_GPIO_AMUX_R       == (amuxConnect)) || \
 382:Generated_Source\PSoC6\pdl\drivers/peripheral/gpio/cy_gpio.h ****                                                        (CY_GPIO_AMUX_LR      == (amuxConnect)) || \
ARM GAS  C:\Users\Mathieu\AppData\Local\Temp\ccqdbTbw.s 			page 57


 383:Generated_Source\PSoC6\pdl\drivers/peripheral/gpio/cy_gpio.h ****                                                        (CY_GPIO_AMUX_G       == (amuxConnect)) || \
 384:Generated_Source\PSoC6\pdl\drivers/peripheral/gpio/cy_gpio.h ****                                                        (CY_GPIO_AMUX_GL      == (amuxConnect)) || \
 385:Generated_Source\PSoC6\pdl\drivers/peripheral/gpio/cy_gpio.h ****                                                        (CY_GPIO_AMUX_GR      == (amuxConnect)) || \
 386:Generated_Source\PSoC6\pdl\drivers/peripheral/gpio/cy_gpio.h ****                                                        (CY_GPIO_AMUX_GLR     == (amuxConnect)))
 387:Generated_Source\PSoC6\pdl\drivers/peripheral/gpio/cy_gpio.h **** 
 388:Generated_Source\PSoC6\pdl\drivers/peripheral/gpio/cy_gpio.h **** #define CY_GPIO_IS_AMUX_SELECT_VALID(amuxBus)       ((CY_GPIO_AMUXBUSA       == (amuxBus)) || \
 389:Generated_Source\PSoC6\pdl\drivers/peripheral/gpio/cy_gpio.h ****                                                      (CY_GPIO_AMUXBUSB       == (amuxBus)))
 390:Generated_Source\PSoC6\pdl\drivers/peripheral/gpio/cy_gpio.h **** /** \endcond */
 391:Generated_Source\PSoC6\pdl\drivers/peripheral/gpio/cy_gpio.h **** 
 392:Generated_Source\PSoC6\pdl\drivers/peripheral/gpio/cy_gpio.h **** 
 393:Generated_Source\PSoC6\pdl\drivers/peripheral/gpio/cy_gpio.h **** /***************************************
 394:Generated_Source\PSoC6\pdl\drivers/peripheral/gpio/cy_gpio.h **** *        Function Constants
 395:Generated_Source\PSoC6\pdl\drivers/peripheral/gpio/cy_gpio.h **** ***************************************/
 396:Generated_Source\PSoC6\pdl\drivers/peripheral/gpio/cy_gpio.h **** 
 397:Generated_Source\PSoC6\pdl\drivers/peripheral/gpio/cy_gpio.h **** /**
 398:Generated_Source\PSoC6\pdl\drivers/peripheral/gpio/cy_gpio.h **** * \addtogroup group_gpio_macros
 399:Generated_Source\PSoC6\pdl\drivers/peripheral/gpio/cy_gpio.h **** * \{
 400:Generated_Source\PSoC6\pdl\drivers/peripheral/gpio/cy_gpio.h **** */
 401:Generated_Source\PSoC6\pdl\drivers/peripheral/gpio/cy_gpio.h **** 
 402:Generated_Source\PSoC6\pdl\drivers/peripheral/gpio/cy_gpio.h **** /**
 403:Generated_Source\PSoC6\pdl\drivers/peripheral/gpio/cy_gpio.h **** * \defgroup group_gpio_driveModes Pin drive mode
 404:Generated_Source\PSoC6\pdl\drivers/peripheral/gpio/cy_gpio.h **** * \{
 405:Generated_Source\PSoC6\pdl\drivers/peripheral/gpio/cy_gpio.h **** * Constants to be used for setting the drive mode of the pin.
 406:Generated_Source\PSoC6\pdl\drivers/peripheral/gpio/cy_gpio.h **** */
 407:Generated_Source\PSoC6\pdl\drivers/peripheral/gpio/cy_gpio.h **** #define CY_GPIO_DM_ANALOG                      (0x00UL) /**< Analog High-Z. Input buffer off */
 408:Generated_Source\PSoC6\pdl\drivers/peripheral/gpio/cy_gpio.h **** #define CY_GPIO_DM_PULLUP_IN_OFF               (0x02UL) /**< Resistive Pull-Up. Input buffer off */
 409:Generated_Source\PSoC6\pdl\drivers/peripheral/gpio/cy_gpio.h **** #define CY_GPIO_DM_PULLDOWN_IN_OFF             (0x03UL) /**< Resistive Pull-Down. Input buffer off 
 410:Generated_Source\PSoC6\pdl\drivers/peripheral/gpio/cy_gpio.h **** #define CY_GPIO_DM_OD_DRIVESLOW_IN_OFF         (0x04UL) /**< Open Drain, Drives Low. Input buffer o
 411:Generated_Source\PSoC6\pdl\drivers/peripheral/gpio/cy_gpio.h **** #define CY_GPIO_DM_OD_DRIVESHIGH_IN_OFF        (0x05UL) /**< Open Drain, Drives High. Input buffer 
 412:Generated_Source\PSoC6\pdl\drivers/peripheral/gpio/cy_gpio.h **** #define CY_GPIO_DM_STRONG_IN_OFF               (0x06UL) /**< Strong Drive. Input buffer off */
 413:Generated_Source\PSoC6\pdl\drivers/peripheral/gpio/cy_gpio.h **** #define CY_GPIO_DM_PULLUP_DOWN_IN_OFF          (0x07UL) /**< Resistive Pull-Up/Down. Input buffer o
 414:Generated_Source\PSoC6\pdl\drivers/peripheral/gpio/cy_gpio.h **** #define CY_GPIO_DM_HIGHZ                       (0x08UL) /**< Digital High-Z. Input buffer on */
 415:Generated_Source\PSoC6\pdl\drivers/peripheral/gpio/cy_gpio.h **** #define CY_GPIO_DM_PULLUP                      (0x0AUL) /**< Resistive Pull-Up. Input buffer on */
 416:Generated_Source\PSoC6\pdl\drivers/peripheral/gpio/cy_gpio.h **** #define CY_GPIO_DM_PULLDOWN                    (0x0BUL) /**< Resistive Pull-Down. Input buffer on *
 417:Generated_Source\PSoC6\pdl\drivers/peripheral/gpio/cy_gpio.h **** #define CY_GPIO_DM_OD_DRIVESLOW                (0x0CUL) /**< Open Drain, Drives Low. Input buffer o
 418:Generated_Source\PSoC6\pdl\drivers/peripheral/gpio/cy_gpio.h **** #define CY_GPIO_DM_OD_DRIVESHIGH               (0x0DUL) /**< Open Drain, Drives High. Input buffer 
 419:Generated_Source\PSoC6\pdl\drivers/peripheral/gpio/cy_gpio.h **** #define CY_GPIO_DM_STRONG                      (0x0EUL) /**< Strong Drive. Input buffer on */
 420:Generated_Source\PSoC6\pdl\drivers/peripheral/gpio/cy_gpio.h **** #define CY_GPIO_DM_PULLUP_DOWN                 (0x0FUL) /**< Resistive Pull-Up/Down. Input buffer o
 421:Generated_Source\PSoC6\pdl\drivers/peripheral/gpio/cy_gpio.h **** /** \} */
 422:Generated_Source\PSoC6\pdl\drivers/peripheral/gpio/cy_gpio.h **** 
 423:Generated_Source\PSoC6\pdl\drivers/peripheral/gpio/cy_gpio.h **** /**
 424:Generated_Source\PSoC6\pdl\drivers/peripheral/gpio/cy_gpio.h **** * \defgroup group_gpio_vtrip Voltage trip mode
 425:Generated_Source\PSoC6\pdl\drivers/peripheral/gpio/cy_gpio.h **** * \{
 426:Generated_Source\PSoC6\pdl\drivers/peripheral/gpio/cy_gpio.h **** * Constants to be used for setting the voltage trip type on the pin.
 427:Generated_Source\PSoC6\pdl\drivers/peripheral/gpio/cy_gpio.h **** */
 428:Generated_Source\PSoC6\pdl\drivers/peripheral/gpio/cy_gpio.h **** #define CY_GPIO_VTRIP_CMOS                     (0x00UL) /**< Input buffer compatible with CMOS and 
 429:Generated_Source\PSoC6\pdl\drivers/peripheral/gpio/cy_gpio.h **** #define CY_GPIO_VTRIP_TTL                      (0x01UL) /**< Input buffer compatible with TTL and M
 430:Generated_Source\PSoC6\pdl\drivers/peripheral/gpio/cy_gpio.h **** /** \} */
 431:Generated_Source\PSoC6\pdl\drivers/peripheral/gpio/cy_gpio.h **** 
 432:Generated_Source\PSoC6\pdl\drivers/peripheral/gpio/cy_gpio.h **** /**
 433:Generated_Source\PSoC6\pdl\drivers/peripheral/gpio/cy_gpio.h **** * \defgroup group_gpio_slewRate Slew Rate Mode
 434:Generated_Source\PSoC6\pdl\drivers/peripheral/gpio/cy_gpio.h **** * \{
 435:Generated_Source\PSoC6\pdl\drivers/peripheral/gpio/cy_gpio.h **** * Constants to be used for setting the slew rate of the pin.
 436:Generated_Source\PSoC6\pdl\drivers/peripheral/gpio/cy_gpio.h **** */
 437:Generated_Source\PSoC6\pdl\drivers/peripheral/gpio/cy_gpio.h **** #define CY_GPIO_SLEW_FAST                      (0x00UL) /**< Fast slew rate */
 438:Generated_Source\PSoC6\pdl\drivers/peripheral/gpio/cy_gpio.h **** #define CY_GPIO_SLEW_SLOW                      (0x01UL) /**< Slow slew rate */
 439:Generated_Source\PSoC6\pdl\drivers/peripheral/gpio/cy_gpio.h **** /** \} */
ARM GAS  C:\Users\Mathieu\AppData\Local\Temp\ccqdbTbw.s 			page 58


 440:Generated_Source\PSoC6\pdl\drivers/peripheral/gpio/cy_gpio.h **** 
 441:Generated_Source\PSoC6\pdl\drivers/peripheral/gpio/cy_gpio.h **** /**
 442:Generated_Source\PSoC6\pdl\drivers/peripheral/gpio/cy_gpio.h **** * \defgroup group_gpio_driveStrength Pin drive strength
 443:Generated_Source\PSoC6\pdl\drivers/peripheral/gpio/cy_gpio.h **** * \{
 444:Generated_Source\PSoC6\pdl\drivers/peripheral/gpio/cy_gpio.h **** * Constants to be used for setting the drive strength of the pin.
 445:Generated_Source\PSoC6\pdl\drivers/peripheral/gpio/cy_gpio.h **** */
 446:Generated_Source\PSoC6\pdl\drivers/peripheral/gpio/cy_gpio.h **** #define CY_GPIO_DRIVE_FULL                     (0x00UL) /**< Full drive strength: Max drive current
 447:Generated_Source\PSoC6\pdl\drivers/peripheral/gpio/cy_gpio.h **** #define CY_GPIO_DRIVE_1_2                      (0x01UL) /**< 1/2 drive strength: 1/2 drive current 
 448:Generated_Source\PSoC6\pdl\drivers/peripheral/gpio/cy_gpio.h **** #define CY_GPIO_DRIVE_1_4                      (0x02UL) /**< 1/4 drive strength: 1/4 drive current 
 449:Generated_Source\PSoC6\pdl\drivers/peripheral/gpio/cy_gpio.h **** #define CY_GPIO_DRIVE_1_8                      (0x03UL) /**< 1/8 drive strength: 1/8 drive current 
 450:Generated_Source\PSoC6\pdl\drivers/peripheral/gpio/cy_gpio.h **** /** \} */
 451:Generated_Source\PSoC6\pdl\drivers/peripheral/gpio/cy_gpio.h **** 
 452:Generated_Source\PSoC6\pdl\drivers/peripheral/gpio/cy_gpio.h **** /**
 453:Generated_Source\PSoC6\pdl\drivers/peripheral/gpio/cy_gpio.h **** * \defgroup group_gpio_interruptTrigger Interrupt trigger type
 454:Generated_Source\PSoC6\pdl\drivers/peripheral/gpio/cy_gpio.h **** * \{
 455:Generated_Source\PSoC6\pdl\drivers/peripheral/gpio/cy_gpio.h **** * Constants to be used for setting the interrupt trigger type on the pin.
 456:Generated_Source\PSoC6\pdl\drivers/peripheral/gpio/cy_gpio.h **** */
 457:Generated_Source\PSoC6\pdl\drivers/peripheral/gpio/cy_gpio.h **** #define CY_GPIO_INTR_DISABLE                   (0x00UL) /**< Disable the pin interrupt generation *
 458:Generated_Source\PSoC6\pdl\drivers/peripheral/gpio/cy_gpio.h **** #define CY_GPIO_INTR_RISING                    (0x01UL) /**< Rising-Edge interrupt */
 459:Generated_Source\PSoC6\pdl\drivers/peripheral/gpio/cy_gpio.h **** #define CY_GPIO_INTR_FALLING                   (0x02UL) /**< Falling-Edge interrupt */
 460:Generated_Source\PSoC6\pdl\drivers/peripheral/gpio/cy_gpio.h **** #define CY_GPIO_INTR_BOTH                      (0x03UL) /**< Both-Edge interrupt */
 461:Generated_Source\PSoC6\pdl\drivers/peripheral/gpio/cy_gpio.h **** /** \} */
 462:Generated_Source\PSoC6\pdl\drivers/peripheral/gpio/cy_gpio.h **** 
 463:Generated_Source\PSoC6\pdl\drivers/peripheral/gpio/cy_gpio.h **** /**
 464:Generated_Source\PSoC6\pdl\drivers/peripheral/gpio/cy_gpio.h **** * \defgroup group_gpio_sioVreg SIO output buffer mode
 465:Generated_Source\PSoC6\pdl\drivers/peripheral/gpio/cy_gpio.h **** * \{
 466:Generated_Source\PSoC6\pdl\drivers/peripheral/gpio/cy_gpio.h **** * Constants to be used for setting the SIO output buffer mode on the pin.
 467:Generated_Source\PSoC6\pdl\drivers/peripheral/gpio/cy_gpio.h **** */
 468:Generated_Source\PSoC6\pdl\drivers/peripheral/gpio/cy_gpio.h **** #define CY_SIO_VREG_UNREGULATED                (0x00UL) /**< Unregulated output buffer */
 469:Generated_Source\PSoC6\pdl\drivers/peripheral/gpio/cy_gpio.h **** #define CY_SIO_VREG_REGULATED                  (0x01UL) /**< Regulated output buffer */
 470:Generated_Source\PSoC6\pdl\drivers/peripheral/gpio/cy_gpio.h **** /** \} */
 471:Generated_Source\PSoC6\pdl\drivers/peripheral/gpio/cy_gpio.h **** 
 472:Generated_Source\PSoC6\pdl\drivers/peripheral/gpio/cy_gpio.h **** /**
 473:Generated_Source\PSoC6\pdl\drivers/peripheral/gpio/cy_gpio.h **** * \defgroup group_gpio_sioIbuf SIO input buffer mode
 474:Generated_Source\PSoC6\pdl\drivers/peripheral/gpio/cy_gpio.h **** * \{
 475:Generated_Source\PSoC6\pdl\drivers/peripheral/gpio/cy_gpio.h **** * Constants to be used for setting the SIO input buffer mode on the pin.
 476:Generated_Source\PSoC6\pdl\drivers/peripheral/gpio/cy_gpio.h **** */
 477:Generated_Source\PSoC6\pdl\drivers/peripheral/gpio/cy_gpio.h **** #define CY_SIO_IBUF_SINGLEENDED                (0x00UL) /**< Single ended input buffer */
 478:Generated_Source\PSoC6\pdl\drivers/peripheral/gpio/cy_gpio.h **** #define CY_SIO_IBUF_DIFFERENTIAL               (0x01UL) /**< Differential input buffer */
 479:Generated_Source\PSoC6\pdl\drivers/peripheral/gpio/cy_gpio.h **** /** \} */
 480:Generated_Source\PSoC6\pdl\drivers/peripheral/gpio/cy_gpio.h **** 
 481:Generated_Source\PSoC6\pdl\drivers/peripheral/gpio/cy_gpio.h **** /**
 482:Generated_Source\PSoC6\pdl\drivers/peripheral/gpio/cy_gpio.h **** * \defgroup group_gpio_sioVtrip SIO input buffer trip-point
 483:Generated_Source\PSoC6\pdl\drivers/peripheral/gpio/cy_gpio.h **** * \{
 484:Generated_Source\PSoC6\pdl\drivers/peripheral/gpio/cy_gpio.h **** * Constants to be used for setting the SIO input buffer trip-point of the pin.
 485:Generated_Source\PSoC6\pdl\drivers/peripheral/gpio/cy_gpio.h **** */
 486:Generated_Source\PSoC6\pdl\drivers/peripheral/gpio/cy_gpio.h **** #define CY_SIO_VTRIP_CMOS                      (0x00UL) /**< CMOS input buffer (single-ended) */
 487:Generated_Source\PSoC6\pdl\drivers/peripheral/gpio/cy_gpio.h **** #define CY_SIO_VTRIP_TTL                       (0x01UL) /**< TTL input buffer (single-ended) */
 488:Generated_Source\PSoC6\pdl\drivers/peripheral/gpio/cy_gpio.h **** #define CY_SIO_VTRIP_0_5VDDIO_0_5VOH           (0x00UL) /**< 0.5xVddio or 0.5xVoh (differential) */
 489:Generated_Source\PSoC6\pdl\drivers/peripheral/gpio/cy_gpio.h **** #define CY_SIO_VTRIP_0_4VDDIO_1_0VREF          (0x01UL) /**< 0.4xVddio or 0.4xVoh (differential) */
 490:Generated_Source\PSoC6\pdl\drivers/peripheral/gpio/cy_gpio.h **** /** \} */
 491:Generated_Source\PSoC6\pdl\drivers/peripheral/gpio/cy_gpio.h **** 
 492:Generated_Source\PSoC6\pdl\drivers/peripheral/gpio/cy_gpio.h **** /**
 493:Generated_Source\PSoC6\pdl\drivers/peripheral/gpio/cy_gpio.h **** * \defgroup group_gpio_sioVref SIO reference voltage for input buffer trip-point
 494:Generated_Source\PSoC6\pdl\drivers/peripheral/gpio/cy_gpio.h **** * \{
 495:Generated_Source\PSoC6\pdl\drivers/peripheral/gpio/cy_gpio.h **** * Constants to be used for setting the reference voltage of SIO input buffer trip-point.
 496:Generated_Source\PSoC6\pdl\drivers/peripheral/gpio/cy_gpio.h **** */
ARM GAS  C:\Users\Mathieu\AppData\Local\Temp\ccqdbTbw.s 			page 59


 497:Generated_Source\PSoC6\pdl\drivers/peripheral/gpio/cy_gpio.h **** #define CY_SIO_VREF_PINREF                     (0x00UL) /**< Vref from analog pin */
 498:Generated_Source\PSoC6\pdl\drivers/peripheral/gpio/cy_gpio.h **** #define CY_SIO_VREF_1_2V                       (0x01UL) /**< Vref from internal 1.2V reference */
 499:Generated_Source\PSoC6\pdl\drivers/peripheral/gpio/cy_gpio.h **** #define CY_SIO_VREF_AMUX_A                     (0x02UL) /**< Vref from AMUXBUS_A */
 500:Generated_Source\PSoC6\pdl\drivers/peripheral/gpio/cy_gpio.h **** #define CY_SIO_VREF_AMUX_B                     (0x03UL) /**< Vref from AMUXBUS_B */
 501:Generated_Source\PSoC6\pdl\drivers/peripheral/gpio/cy_gpio.h **** /** \} */
 502:Generated_Source\PSoC6\pdl\drivers/peripheral/gpio/cy_gpio.h **** 
 503:Generated_Source\PSoC6\pdl\drivers/peripheral/gpio/cy_gpio.h **** /**
 504:Generated_Source\PSoC6\pdl\drivers/peripheral/gpio/cy_gpio.h **** * \defgroup group_gpio_sioVoh Regulated output voltage level (Voh) and input buffer trip-point of a
 505:Generated_Source\PSoC6\pdl\drivers/peripheral/gpio/cy_gpio.h **** * \{
 506:Generated_Source\PSoC6\pdl\drivers/peripheral/gpio/cy_gpio.h **** * Constants to be used for setting the Voh and input buffer trip-point of an SIO pair
 507:Generated_Source\PSoC6\pdl\drivers/peripheral/gpio/cy_gpio.h **** */
 508:Generated_Source\PSoC6\pdl\drivers/peripheral/gpio/cy_gpio.h **** #define CY_SIO_VOH_1_00                        (0x00UL) /**< Voh = 1 x Reference */
 509:Generated_Source\PSoC6\pdl\drivers/peripheral/gpio/cy_gpio.h **** #define CY_SIO_VOH_1_25                        (0x01UL) /**< Voh = 1.25 x Reference */
 510:Generated_Source\PSoC6\pdl\drivers/peripheral/gpio/cy_gpio.h **** #define CY_SIO_VOH_1_49                        (0x02UL) /**< Voh = 1.49 x Reference */
 511:Generated_Source\PSoC6\pdl\drivers/peripheral/gpio/cy_gpio.h **** #define CY_SIO_VOH_1_67                        (0x03UL) /**< Voh = 1.67 x Reference */
 512:Generated_Source\PSoC6\pdl\drivers/peripheral/gpio/cy_gpio.h **** #define CY_SIO_VOH_2_08                        (0x04UL) /**< Voh = 2.08 x Reference */
 513:Generated_Source\PSoC6\pdl\drivers/peripheral/gpio/cy_gpio.h **** #define CY_SIO_VOH_2_50                        (0x05UL) /**< Voh = 2.50 x Reference */
 514:Generated_Source\PSoC6\pdl\drivers/peripheral/gpio/cy_gpio.h **** #define CY_SIO_VOH_2_78                        (0x06UL) /**< Voh = 2.78 x Reference */
 515:Generated_Source\PSoC6\pdl\drivers/peripheral/gpio/cy_gpio.h **** #define CY_SIO_VOH_4_16                        (0x07UL) /**< Voh = 4.16 x Reference */
 516:Generated_Source\PSoC6\pdl\drivers/peripheral/gpio/cy_gpio.h **** /** \} */
 517:Generated_Source\PSoC6\pdl\drivers/peripheral/gpio/cy_gpio.h **** 
 518:Generated_Source\PSoC6\pdl\drivers/peripheral/gpio/cy_gpio.h **** /** \} group_gpio_macros */
 519:Generated_Source\PSoC6\pdl\drivers/peripheral/gpio/cy_gpio.h **** 
 520:Generated_Source\PSoC6\pdl\drivers/peripheral/gpio/cy_gpio.h **** /***************************************
 521:Generated_Source\PSoC6\pdl\drivers/peripheral/gpio/cy_gpio.h **** *        Function Prototypes
 522:Generated_Source\PSoC6\pdl\drivers/peripheral/gpio/cy_gpio.h **** ***************************************/
 523:Generated_Source\PSoC6\pdl\drivers/peripheral/gpio/cy_gpio.h **** 
 524:Generated_Source\PSoC6\pdl\drivers/peripheral/gpio/cy_gpio.h **** /**
 525:Generated_Source\PSoC6\pdl\drivers/peripheral/gpio/cy_gpio.h **** * \addtogroup group_gpio_functions
 526:Generated_Source\PSoC6\pdl\drivers/peripheral/gpio/cy_gpio.h **** * \{
 527:Generated_Source\PSoC6\pdl\drivers/peripheral/gpio/cy_gpio.h **** */
 528:Generated_Source\PSoC6\pdl\drivers/peripheral/gpio/cy_gpio.h **** 
 529:Generated_Source\PSoC6\pdl\drivers/peripheral/gpio/cy_gpio.h **** /**
 530:Generated_Source\PSoC6\pdl\drivers/peripheral/gpio/cy_gpio.h **** * \addtogroup group_gpio_functions_init
 531:Generated_Source\PSoC6\pdl\drivers/peripheral/gpio/cy_gpio.h **** * \{
 532:Generated_Source\PSoC6\pdl\drivers/peripheral/gpio/cy_gpio.h **** */
 533:Generated_Source\PSoC6\pdl\drivers/peripheral/gpio/cy_gpio.h **** 
 534:Generated_Source\PSoC6\pdl\drivers/peripheral/gpio/cy_gpio.h **** cy_en_gpio_status_t Cy_GPIO_Pin_Init(GPIO_PRT_Type* base, uint32_t pinNum, const cy_stc_gpio_pin_co
 535:Generated_Source\PSoC6\pdl\drivers/peripheral/gpio/cy_gpio.h **** cy_en_gpio_status_t Cy_GPIO_Port_Init(GPIO_PRT_Type* base, const cy_stc_gpio_prt_config_t *config);
 536:Generated_Source\PSoC6\pdl\drivers/peripheral/gpio/cy_gpio.h **** void Cy_GPIO_Pin_FastInit(GPIO_PRT_Type* base, uint32_t pinNum, uint32_t driveMode, uint32_t outVal
 537:Generated_Source\PSoC6\pdl\drivers/peripheral/gpio/cy_gpio.h **** void Cy_GPIO_Port_Deinit(GPIO_PRT_Type* base);
 538:Generated_Source\PSoC6\pdl\drivers/peripheral/gpio/cy_gpio.h **** __STATIC_INLINE void Cy_GPIO_SetHSIOM(GPIO_PRT_Type* base, uint32_t pinNum, en_hsiom_sel_t value);
 539:Generated_Source\PSoC6\pdl\drivers/peripheral/gpio/cy_gpio.h **** __STATIC_INLINE en_hsiom_sel_t Cy_GPIO_GetHSIOM(GPIO_PRT_Type* base, uint32_t pinNum);
 540:Generated_Source\PSoC6\pdl\drivers/peripheral/gpio/cy_gpio.h **** __STATIC_INLINE GPIO_PRT_Type* Cy_GPIO_PortToAddr(uint32_t portNum);
 541:Generated_Source\PSoC6\pdl\drivers/peripheral/gpio/cy_gpio.h **** 
 542:Generated_Source\PSoC6\pdl\drivers/peripheral/gpio/cy_gpio.h **** /** \} group_gpio_functions_init */
 543:Generated_Source\PSoC6\pdl\drivers/peripheral/gpio/cy_gpio.h **** 
 544:Generated_Source\PSoC6\pdl\drivers/peripheral/gpio/cy_gpio.h **** /**
 545:Generated_Source\PSoC6\pdl\drivers/peripheral/gpio/cy_gpio.h **** * \addtogroup group_gpio_functions_gpio
 546:Generated_Source\PSoC6\pdl\drivers/peripheral/gpio/cy_gpio.h **** * \{
 547:Generated_Source\PSoC6\pdl\drivers/peripheral/gpio/cy_gpio.h **** */
 548:Generated_Source\PSoC6\pdl\drivers/peripheral/gpio/cy_gpio.h **** 
 549:Generated_Source\PSoC6\pdl\drivers/peripheral/gpio/cy_gpio.h **** void Cy_GPIO_SetAmuxSplit(cy_en_amux_split_t switchCtrl, cy_en_gpio_amuxconnect_t amuxConnect, cy_e
 550:Generated_Source\PSoC6\pdl\drivers/peripheral/gpio/cy_gpio.h **** cy_en_gpio_amuxconnect_t Cy_GPIO_GetAmuxSplit(cy_en_amux_split_t switchCtrl, cy_en_gpio_amuxselect_
 551:Generated_Source\PSoC6\pdl\drivers/peripheral/gpio/cy_gpio.h **** 
 552:Generated_Source\PSoC6\pdl\drivers/peripheral/gpio/cy_gpio.h **** __STATIC_INLINE uint32_t Cy_GPIO_Read(GPIO_PRT_Type* base, uint32_t pinNum);
 553:Generated_Source\PSoC6\pdl\drivers/peripheral/gpio/cy_gpio.h **** __STATIC_INLINE void Cy_GPIO_Write(GPIO_PRT_Type* base, uint32_t pinNum, uint32_t value);
ARM GAS  C:\Users\Mathieu\AppData\Local\Temp\ccqdbTbw.s 			page 60


 554:Generated_Source\PSoC6\pdl\drivers/peripheral/gpio/cy_gpio.h **** __STATIC_INLINE uint32_t Cy_GPIO_ReadOut(GPIO_PRT_Type* base, uint32_t pinNum);
 555:Generated_Source\PSoC6\pdl\drivers/peripheral/gpio/cy_gpio.h **** __STATIC_INLINE void Cy_GPIO_Set(GPIO_PRT_Type* base, uint32_t pinNum);
 556:Generated_Source\PSoC6\pdl\drivers/peripheral/gpio/cy_gpio.h **** __STATIC_INLINE void Cy_GPIO_Clr(GPIO_PRT_Type* base, uint32_t pinNum);
 557:Generated_Source\PSoC6\pdl\drivers/peripheral/gpio/cy_gpio.h **** __STATIC_INLINE void Cy_GPIO_Inv(GPIO_PRT_Type* base, uint32_t pinNum);
 558:Generated_Source\PSoC6\pdl\drivers/peripheral/gpio/cy_gpio.h **** __STATIC_INLINE void Cy_GPIO_SetDrivemode(GPIO_PRT_Type* base, uint32_t pinNum, uint32_t value);
 559:Generated_Source\PSoC6\pdl\drivers/peripheral/gpio/cy_gpio.h **** __STATIC_INLINE uint32_t Cy_GPIO_GetDrivemode(GPIO_PRT_Type* base, uint32_t pinNum);
 560:Generated_Source\PSoC6\pdl\drivers/peripheral/gpio/cy_gpio.h **** __STATIC_INLINE void Cy_GPIO_SetVtrip(GPIO_PRT_Type* base, uint32_t pinNum, uint32_t value);
 561:Generated_Source\PSoC6\pdl\drivers/peripheral/gpio/cy_gpio.h **** __STATIC_INLINE uint32_t Cy_GPIO_GetVtrip(GPIO_PRT_Type* base, uint32_t pinNum);
 562:Generated_Source\PSoC6\pdl\drivers/peripheral/gpio/cy_gpio.h **** __STATIC_INLINE void Cy_GPIO_SetSlewRate(GPIO_PRT_Type* base, uint32_t pinNum, uint32_t value);
 563:Generated_Source\PSoC6\pdl\drivers/peripheral/gpio/cy_gpio.h **** __STATIC_INLINE uint32_t Cy_GPIO_GetSlewRate(GPIO_PRT_Type* base, uint32_t pinNum);
 564:Generated_Source\PSoC6\pdl\drivers/peripheral/gpio/cy_gpio.h **** __STATIC_INLINE void Cy_GPIO_SetDriveSel(GPIO_PRT_Type* base, uint32_t pinNum, uint32_t value);
 565:Generated_Source\PSoC6\pdl\drivers/peripheral/gpio/cy_gpio.h **** __STATIC_INLINE uint32_t Cy_GPIO_GetDriveSel(GPIO_PRT_Type* base, uint32_t pinNum);
 566:Generated_Source\PSoC6\pdl\drivers/peripheral/gpio/cy_gpio.h **** 
 567:Generated_Source\PSoC6\pdl\drivers/peripheral/gpio/cy_gpio.h **** /** \} group_gpio_functions_gpio */
 568:Generated_Source\PSoC6\pdl\drivers/peripheral/gpio/cy_gpio.h **** 
 569:Generated_Source\PSoC6\pdl\drivers/peripheral/gpio/cy_gpio.h **** /**
 570:Generated_Source\PSoC6\pdl\drivers/peripheral/gpio/cy_gpio.h **** * \addtogroup group_gpio_functions_sio
 571:Generated_Source\PSoC6\pdl\drivers/peripheral/gpio/cy_gpio.h **** * \{
 572:Generated_Source\PSoC6\pdl\drivers/peripheral/gpio/cy_gpio.h **** */
 573:Generated_Source\PSoC6\pdl\drivers/peripheral/gpio/cy_gpio.h **** 
 574:Generated_Source\PSoC6\pdl\drivers/peripheral/gpio/cy_gpio.h **** __STATIC_INLINE void Cy_GPIO_SetVregEn(GPIO_PRT_Type* base, uint32_t pinNum, uint32_t value);
 575:Generated_Source\PSoC6\pdl\drivers/peripheral/gpio/cy_gpio.h **** __STATIC_INLINE uint32_t Cy_GPIO_GetVregEn(GPIO_PRT_Type* base, uint32_t pinNum);
 576:Generated_Source\PSoC6\pdl\drivers/peripheral/gpio/cy_gpio.h **** __STATIC_INLINE void Cy_GPIO_SetIbufMode(GPIO_PRT_Type* base, uint32_t pinNum, uint32_t value);
 577:Generated_Source\PSoC6\pdl\drivers/peripheral/gpio/cy_gpio.h **** __STATIC_INLINE uint32_t Cy_GPIO_GetIbufMode(GPIO_PRT_Type* base, uint32_t pinNum);
 578:Generated_Source\PSoC6\pdl\drivers/peripheral/gpio/cy_gpio.h **** __STATIC_INLINE void Cy_GPIO_SetVtripSel(GPIO_PRT_Type* base, uint32_t pinNum, uint32_t value);
 579:Generated_Source\PSoC6\pdl\drivers/peripheral/gpio/cy_gpio.h **** __STATIC_INLINE uint32_t Cy_GPIO_GetVtripSel(GPIO_PRT_Type* base, uint32_t pinNum);
 580:Generated_Source\PSoC6\pdl\drivers/peripheral/gpio/cy_gpio.h **** __STATIC_INLINE void Cy_GPIO_SetVrefSel(GPIO_PRT_Type* base, uint32_t pinNum, uint32_t value);
 581:Generated_Source\PSoC6\pdl\drivers/peripheral/gpio/cy_gpio.h **** __STATIC_INLINE uint32_t Cy_GPIO_GetVrefSel(GPIO_PRT_Type* base, uint32_t pinNum);
 582:Generated_Source\PSoC6\pdl\drivers/peripheral/gpio/cy_gpio.h **** __STATIC_INLINE void Cy_GPIO_SetVohSel(GPIO_PRT_Type* base, uint32_t pinNum, uint32_t value);
 583:Generated_Source\PSoC6\pdl\drivers/peripheral/gpio/cy_gpio.h **** __STATIC_INLINE uint32_t Cy_GPIO_GetVohSel(GPIO_PRT_Type* base, uint32_t pinNum);
 584:Generated_Source\PSoC6\pdl\drivers/peripheral/gpio/cy_gpio.h **** 
 585:Generated_Source\PSoC6\pdl\drivers/peripheral/gpio/cy_gpio.h **** /** \} group_gpio_functions_sio */
 586:Generated_Source\PSoC6\pdl\drivers/peripheral/gpio/cy_gpio.h **** 
 587:Generated_Source\PSoC6\pdl\drivers/peripheral/gpio/cy_gpio.h **** /**
 588:Generated_Source\PSoC6\pdl\drivers/peripheral/gpio/cy_gpio.h **** * \addtogroup group_gpio_functions_interrupt
 589:Generated_Source\PSoC6\pdl\drivers/peripheral/gpio/cy_gpio.h **** * \{
 590:Generated_Source\PSoC6\pdl\drivers/peripheral/gpio/cy_gpio.h **** */
 591:Generated_Source\PSoC6\pdl\drivers/peripheral/gpio/cy_gpio.h **** 
 592:Generated_Source\PSoC6\pdl\drivers/peripheral/gpio/cy_gpio.h **** __STATIC_INLINE uint32_t Cy_GPIO_GetInterruptStatus(GPIO_PRT_Type* base, uint32_t pinNum);
 593:Generated_Source\PSoC6\pdl\drivers/peripheral/gpio/cy_gpio.h **** __STATIC_INLINE void Cy_GPIO_ClearInterrupt(GPIO_PRT_Type* base, uint32_t pinNum);
 594:Generated_Source\PSoC6\pdl\drivers/peripheral/gpio/cy_gpio.h **** __STATIC_INLINE void Cy_GPIO_SetInterruptMask(GPIO_PRT_Type* base, uint32_t pinNum, uint32_t value)
 595:Generated_Source\PSoC6\pdl\drivers/peripheral/gpio/cy_gpio.h **** __STATIC_INLINE uint32_t Cy_GPIO_GetInterruptMask(GPIO_PRT_Type* base, uint32_t pinNum);
 596:Generated_Source\PSoC6\pdl\drivers/peripheral/gpio/cy_gpio.h **** __STATIC_INLINE uint32_t Cy_GPIO_GetInterruptStatusMasked(GPIO_PRT_Type* base, uint32_t pinNum);
 597:Generated_Source\PSoC6\pdl\drivers/peripheral/gpio/cy_gpio.h **** __STATIC_INLINE void Cy_GPIO_SetSwInterrupt(GPIO_PRT_Type* base, uint32_t pinNum);
 598:Generated_Source\PSoC6\pdl\drivers/peripheral/gpio/cy_gpio.h **** __STATIC_INLINE void Cy_GPIO_SetInterruptEdge(GPIO_PRT_Type* base, uint32_t pinNum, uint32_t value)
 599:Generated_Source\PSoC6\pdl\drivers/peripheral/gpio/cy_gpio.h **** __STATIC_INLINE uint32_t Cy_GPIO_GetInterruptEdge(GPIO_PRT_Type* base, uint32_t pinNum);
 600:Generated_Source\PSoC6\pdl\drivers/peripheral/gpio/cy_gpio.h **** __STATIC_INLINE void Cy_GPIO_SetFilter(GPIO_PRT_Type* base, uint32_t value);
 601:Generated_Source\PSoC6\pdl\drivers/peripheral/gpio/cy_gpio.h **** __STATIC_INLINE uint32_t Cy_GPIO_GetFilter(GPIO_PRT_Type* base);
 602:Generated_Source\PSoC6\pdl\drivers/peripheral/gpio/cy_gpio.h **** 
 603:Generated_Source\PSoC6\pdl\drivers/peripheral/gpio/cy_gpio.h **** __STATIC_INLINE uint32_t Cy_GPIO_GetInterruptCause0(void);
 604:Generated_Source\PSoC6\pdl\drivers/peripheral/gpio/cy_gpio.h **** __STATIC_INLINE uint32_t Cy_GPIO_GetInterruptCause1(void);
 605:Generated_Source\PSoC6\pdl\drivers/peripheral/gpio/cy_gpio.h **** __STATIC_INLINE uint32_t Cy_GPIO_GetInterruptCause2(void);
 606:Generated_Source\PSoC6\pdl\drivers/peripheral/gpio/cy_gpio.h **** __STATIC_INLINE uint32_t Cy_GPIO_GetInterruptCause3(void);
 607:Generated_Source\PSoC6\pdl\drivers/peripheral/gpio/cy_gpio.h **** 
 608:Generated_Source\PSoC6\pdl\drivers/peripheral/gpio/cy_gpio.h **** /** \} group_gpio_functions_interrupt */
 609:Generated_Source\PSoC6\pdl\drivers/peripheral/gpio/cy_gpio.h **** 
 610:Generated_Source\PSoC6\pdl\drivers/peripheral/gpio/cy_gpio.h **** 
ARM GAS  C:\Users\Mathieu\AppData\Local\Temp\ccqdbTbw.s 			page 61


 611:Generated_Source\PSoC6\pdl\drivers/peripheral/gpio/cy_gpio.h **** /**
 612:Generated_Source\PSoC6\pdl\drivers/peripheral/gpio/cy_gpio.h **** * \addtogroup group_gpio_functions_init
 613:Generated_Source\PSoC6\pdl\drivers/peripheral/gpio/cy_gpio.h **** * \{
 614:Generated_Source\PSoC6\pdl\drivers/peripheral/gpio/cy_gpio.h **** */
 615:Generated_Source\PSoC6\pdl\drivers/peripheral/gpio/cy_gpio.h **** 
 616:Generated_Source\PSoC6\pdl\drivers/peripheral/gpio/cy_gpio.h **** /*******************************************************************************
 617:Generated_Source\PSoC6\pdl\drivers/peripheral/gpio/cy_gpio.h **** * Function Name: Cy_GPIO_SetHSIOM
 618:Generated_Source\PSoC6\pdl\drivers/peripheral/gpio/cy_gpio.h **** ****************************************************************************//**
 619:Generated_Source\PSoC6\pdl\drivers/peripheral/gpio/cy_gpio.h **** *
 620:Generated_Source\PSoC6\pdl\drivers/peripheral/gpio/cy_gpio.h **** * Configures the HSIOM connection to the pin.
 621:Generated_Source\PSoC6\pdl\drivers/peripheral/gpio/cy_gpio.h **** *
 622:Generated_Source\PSoC6\pdl\drivers/peripheral/gpio/cy_gpio.h **** * Connects the specified High-Speed Input Output Multiplexer (HSIOM) selection
 623:Generated_Source\PSoC6\pdl\drivers/peripheral/gpio/cy_gpio.h **** * to the pin.
 624:Generated_Source\PSoC6\pdl\drivers/peripheral/gpio/cy_gpio.h **** *
 625:Generated_Source\PSoC6\pdl\drivers/peripheral/gpio/cy_gpio.h **** * \param base
 626:Generated_Source\PSoC6\pdl\drivers/peripheral/gpio/cy_gpio.h **** * Pointer to the pin's port register base address
 627:Generated_Source\PSoC6\pdl\drivers/peripheral/gpio/cy_gpio.h **** *
 628:Generated_Source\PSoC6\pdl\drivers/peripheral/gpio/cy_gpio.h **** * \param pinNum
 629:Generated_Source\PSoC6\pdl\drivers/peripheral/gpio/cy_gpio.h **** * Position of the pin bit-field within the port register
 630:Generated_Source\PSoC6\pdl\drivers/peripheral/gpio/cy_gpio.h **** *
 631:Generated_Source\PSoC6\pdl\drivers/peripheral/gpio/cy_gpio.h **** * \param value
 632:Generated_Source\PSoC6\pdl\drivers/peripheral/gpio/cy_gpio.h **** * HSIOM input selection
 633:Generated_Source\PSoC6\pdl\drivers/peripheral/gpio/cy_gpio.h **** *
 634:Generated_Source\PSoC6\pdl\drivers/peripheral/gpio/cy_gpio.h **** * \note 
 635:Generated_Source\PSoC6\pdl\drivers/peripheral/gpio/cy_gpio.h **** * This function modifies a port register in a read-modify-write operation. It is
 636:Generated_Source\PSoC6\pdl\drivers/peripheral/gpio/cy_gpio.h **** * not thread safe as the resource is shared among multiple pins on a port.
 637:Generated_Source\PSoC6\pdl\drivers/peripheral/gpio/cy_gpio.h **** *
 638:Generated_Source\PSoC6\pdl\drivers/peripheral/gpio/cy_gpio.h **** * \funcusage
 639:Generated_Source\PSoC6\pdl\drivers/peripheral/gpio/cy_gpio.h **** * \snippet gpio/gpio_v1_10_sut_01.cydsn/main_cm4.c snippet_Cy_GPIO_SetHSIOM
 640:Generated_Source\PSoC6\pdl\drivers/peripheral/gpio/cy_gpio.h **** *
 641:Generated_Source\PSoC6\pdl\drivers/peripheral/gpio/cy_gpio.h **** *******************************************************************************/
 642:Generated_Source\PSoC6\pdl\drivers/peripheral/gpio/cy_gpio.h **** __STATIC_INLINE void Cy_GPIO_SetHSIOM(GPIO_PRT_Type* base, uint32_t pinNum, en_hsiom_sel_t value)
 643:Generated_Source\PSoC6\pdl\drivers/peripheral/gpio/cy_gpio.h **** {
 644:Generated_Source\PSoC6\pdl\drivers/peripheral/gpio/cy_gpio.h ****     uint32_t portNum;
 645:Generated_Source\PSoC6\pdl\drivers/peripheral/gpio/cy_gpio.h ****     uint32_t tempReg;
 646:Generated_Source\PSoC6\pdl\drivers/peripheral/gpio/cy_gpio.h ****     HSIOM_PRT_V1_Type* portAddrHSIOM;
 647:Generated_Source\PSoC6\pdl\drivers/peripheral/gpio/cy_gpio.h **** 
 648:Generated_Source\PSoC6\pdl\drivers/peripheral/gpio/cy_gpio.h ****     CY_ASSERT_L2(CY_GPIO_IS_PIN_VALID(pinNum));
 649:Generated_Source\PSoC6\pdl\drivers/peripheral/gpio/cy_gpio.h ****     CY_ASSERT_L2(CY_GPIO_IS_HSIOM_VALID(value));
 650:Generated_Source\PSoC6\pdl\drivers/peripheral/gpio/cy_gpio.h **** 
 651:Generated_Source\PSoC6\pdl\drivers/peripheral/gpio/cy_gpio.h ****     portNum = ((uint32_t)(base) - CY_GPIO_BASE) / GPIO_PRT_SECTION_SIZE;
 652:Generated_Source\PSoC6\pdl\drivers/peripheral/gpio/cy_gpio.h ****     portAddrHSIOM = (HSIOM_PRT_V1_Type*)(CY_HSIOM_BASE + (HSIOM_PRT_SECTION_SIZE * portNum));
 653:Generated_Source\PSoC6\pdl\drivers/peripheral/gpio/cy_gpio.h **** 
 654:Generated_Source\PSoC6\pdl\drivers/peripheral/gpio/cy_gpio.h ****     if(pinNum < CY_GPIO_PRT_HALF)
 655:Generated_Source\PSoC6\pdl\drivers/peripheral/gpio/cy_gpio.h ****     {
 656:Generated_Source\PSoC6\pdl\drivers/peripheral/gpio/cy_gpio.h ****         tempReg = HSIOM_PRT_PORT_SEL0(portAddrHSIOM) & ~(CY_GPIO_HSIOM_MASK << (pinNum << CY_GPIO_H
 657:Generated_Source\PSoC6\pdl\drivers/peripheral/gpio/cy_gpio.h ****         HSIOM_PRT_PORT_SEL0(portAddrHSIOM) = tempReg | ((value & CY_GPIO_HSIOM_MASK) << (pinNum << 
 658:Generated_Source\PSoC6\pdl\drivers/peripheral/gpio/cy_gpio.h ****     }
 659:Generated_Source\PSoC6\pdl\drivers/peripheral/gpio/cy_gpio.h ****     else
 660:Generated_Source\PSoC6\pdl\drivers/peripheral/gpio/cy_gpio.h ****     {
 661:Generated_Source\PSoC6\pdl\drivers/peripheral/gpio/cy_gpio.h ****         pinNum -= CY_GPIO_PRT_HALF;
 662:Generated_Source\PSoC6\pdl\drivers/peripheral/gpio/cy_gpio.h ****         tempReg = HSIOM_PRT_PORT_SEL1(portAddrHSIOM) & ~(CY_GPIO_HSIOM_MASK << (pinNum << CY_GPIO_H
 663:Generated_Source\PSoC6\pdl\drivers/peripheral/gpio/cy_gpio.h ****         HSIOM_PRT_PORT_SEL1(portAddrHSIOM) = tempReg | ((value & CY_GPIO_HSIOM_MASK) << (pinNum << 
 664:Generated_Source\PSoC6\pdl\drivers/peripheral/gpio/cy_gpio.h ****     }
 665:Generated_Source\PSoC6\pdl\drivers/peripheral/gpio/cy_gpio.h **** }
 666:Generated_Source\PSoC6\pdl\drivers/peripheral/gpio/cy_gpio.h **** 
 667:Generated_Source\PSoC6\pdl\drivers/peripheral/gpio/cy_gpio.h **** 
ARM GAS  C:\Users\Mathieu\AppData\Local\Temp\ccqdbTbw.s 			page 62


 668:Generated_Source\PSoC6\pdl\drivers/peripheral/gpio/cy_gpio.h **** /*******************************************************************************
 669:Generated_Source\PSoC6\pdl\drivers/peripheral/gpio/cy_gpio.h **** * Function Name: Cy_GPIO_GetHSIOM
 670:Generated_Source\PSoC6\pdl\drivers/peripheral/gpio/cy_gpio.h **** ****************************************************************************//**
 671:Generated_Source\PSoC6\pdl\drivers/peripheral/gpio/cy_gpio.h **** *
 672:Generated_Source\PSoC6\pdl\drivers/peripheral/gpio/cy_gpio.h **** * Returns the current HSIOM multiplexer connection to the pin.
 673:Generated_Source\PSoC6\pdl\drivers/peripheral/gpio/cy_gpio.h **** *
 674:Generated_Source\PSoC6\pdl\drivers/peripheral/gpio/cy_gpio.h **** * \param base
 675:Generated_Source\PSoC6\pdl\drivers/peripheral/gpio/cy_gpio.h **** * Pointer to the pin's port register base address
 676:Generated_Source\PSoC6\pdl\drivers/peripheral/gpio/cy_gpio.h **** *
 677:Generated_Source\PSoC6\pdl\drivers/peripheral/gpio/cy_gpio.h **** * \param pinNum
 678:Generated_Source\PSoC6\pdl\drivers/peripheral/gpio/cy_gpio.h **** * Position of the pin bit-field within the port register
 679:Generated_Source\PSoC6\pdl\drivers/peripheral/gpio/cy_gpio.h **** *
 680:Generated_Source\PSoC6\pdl\drivers/peripheral/gpio/cy_gpio.h **** * \return
 681:Generated_Source\PSoC6\pdl\drivers/peripheral/gpio/cy_gpio.h **** * HSIOM input selection
 682:Generated_Source\PSoC6\pdl\drivers/peripheral/gpio/cy_gpio.h **** *
 683:Generated_Source\PSoC6\pdl\drivers/peripheral/gpio/cy_gpio.h **** * \funcusage
 684:Generated_Source\PSoC6\pdl\drivers/peripheral/gpio/cy_gpio.h **** * \snippet gpio/gpio_v1_10_sut_01.cydsn/main_cm4.c snippet_Cy_GPIO_SetHSIOM
 685:Generated_Source\PSoC6\pdl\drivers/peripheral/gpio/cy_gpio.h **** *
 686:Generated_Source\PSoC6\pdl\drivers/peripheral/gpio/cy_gpio.h **** *******************************************************************************/
 687:Generated_Source\PSoC6\pdl\drivers/peripheral/gpio/cy_gpio.h **** __STATIC_INLINE en_hsiom_sel_t Cy_GPIO_GetHSIOM(GPIO_PRT_Type* base, uint32_t pinNum)
 688:Generated_Source\PSoC6\pdl\drivers/peripheral/gpio/cy_gpio.h **** {
 689:Generated_Source\PSoC6\pdl\drivers/peripheral/gpio/cy_gpio.h ****     uint32_t returnValue;
 690:Generated_Source\PSoC6\pdl\drivers/peripheral/gpio/cy_gpio.h ****     uint32_t portNum;
 691:Generated_Source\PSoC6\pdl\drivers/peripheral/gpio/cy_gpio.h ****     HSIOM_PRT_V1_Type* portAddrHSIOM;
 692:Generated_Source\PSoC6\pdl\drivers/peripheral/gpio/cy_gpio.h ****     
 693:Generated_Source\PSoC6\pdl\drivers/peripheral/gpio/cy_gpio.h ****     CY_ASSERT_L2(CY_GPIO_IS_PIN_VALID(pinNum));
 694:Generated_Source\PSoC6\pdl\drivers/peripheral/gpio/cy_gpio.h **** 
 695:Generated_Source\PSoC6\pdl\drivers/peripheral/gpio/cy_gpio.h ****     portNum = ((uint32_t)(base) - CY_GPIO_BASE) / GPIO_PRT_SECTION_SIZE;
 696:Generated_Source\PSoC6\pdl\drivers/peripheral/gpio/cy_gpio.h ****     portAddrHSIOM = (HSIOM_PRT_V1_Type*)(CY_HSIOM_BASE + (HSIOM_PRT_SECTION_SIZE * portNum));
 697:Generated_Source\PSoC6\pdl\drivers/peripheral/gpio/cy_gpio.h **** 
 698:Generated_Source\PSoC6\pdl\drivers/peripheral/gpio/cy_gpio.h ****     if(pinNum < CY_GPIO_PRT_HALF)
 699:Generated_Source\PSoC6\pdl\drivers/peripheral/gpio/cy_gpio.h ****     {
 700:Generated_Source\PSoC6\pdl\drivers/peripheral/gpio/cy_gpio.h ****         returnValue = (HSIOM_PRT_PORT_SEL0(portAddrHSIOM) >> (pinNum << CY_GPIO_HSIOM_OFFSET)) & CY
 701:Generated_Source\PSoC6\pdl\drivers/peripheral/gpio/cy_gpio.h ****     }
 702:Generated_Source\PSoC6\pdl\drivers/peripheral/gpio/cy_gpio.h ****     else
 703:Generated_Source\PSoC6\pdl\drivers/peripheral/gpio/cy_gpio.h ****     {
 704:Generated_Source\PSoC6\pdl\drivers/peripheral/gpio/cy_gpio.h ****         pinNum -= CY_GPIO_PRT_HALF;
 705:Generated_Source\PSoC6\pdl\drivers/peripheral/gpio/cy_gpio.h ****         returnValue = (HSIOM_PRT_PORT_SEL1(portAddrHSIOM) >> (pinNum << CY_GPIO_HSIOM_OFFSET)) & CY
 706:Generated_Source\PSoC6\pdl\drivers/peripheral/gpio/cy_gpio.h ****     }
 707:Generated_Source\PSoC6\pdl\drivers/peripheral/gpio/cy_gpio.h **** 
 708:Generated_Source\PSoC6\pdl\drivers/peripheral/gpio/cy_gpio.h ****     return (en_hsiom_sel_t)returnValue;
 709:Generated_Source\PSoC6\pdl\drivers/peripheral/gpio/cy_gpio.h **** }
 710:Generated_Source\PSoC6\pdl\drivers/peripheral/gpio/cy_gpio.h **** 
 711:Generated_Source\PSoC6\pdl\drivers/peripheral/gpio/cy_gpio.h **** 
 712:Generated_Source\PSoC6\pdl\drivers/peripheral/gpio/cy_gpio.h **** /*******************************************************************************
 713:Generated_Source\PSoC6\pdl\drivers/peripheral/gpio/cy_gpio.h **** * Function Name: Cy_GPIO_PortToAddr
 714:Generated_Source\PSoC6\pdl\drivers/peripheral/gpio/cy_gpio.h **** ****************************************************************************//**
 715:Generated_Source\PSoC6\pdl\drivers/peripheral/gpio/cy_gpio.h **** *
 716:Generated_Source\PSoC6\pdl\drivers/peripheral/gpio/cy_gpio.h **** * Retrieves the port address based on the given port number.
 717:Generated_Source\PSoC6\pdl\drivers/peripheral/gpio/cy_gpio.h **** *
 718:Generated_Source\PSoC6\pdl\drivers/peripheral/gpio/cy_gpio.h **** * This is a helper function to calculate the port base address when given a port
 719:Generated_Source\PSoC6\pdl\drivers/peripheral/gpio/cy_gpio.h **** * number. It is to be used when pin access needs to be calculated at runtime.
 720:Generated_Source\PSoC6\pdl\drivers/peripheral/gpio/cy_gpio.h **** *
 721:Generated_Source\PSoC6\pdl\drivers/peripheral/gpio/cy_gpio.h **** * \param portNum
 722:Generated_Source\PSoC6\pdl\drivers/peripheral/gpio/cy_gpio.h **** * Port number
 723:Generated_Source\PSoC6\pdl\drivers/peripheral/gpio/cy_gpio.h **** *
 724:Generated_Source\PSoC6\pdl\drivers/peripheral/gpio/cy_gpio.h **** * \return
ARM GAS  C:\Users\Mathieu\AppData\Local\Temp\ccqdbTbw.s 			page 63


 725:Generated_Source\PSoC6\pdl\drivers/peripheral/gpio/cy_gpio.h **** * Base address of the port register structure
 726:Generated_Source\PSoC6\pdl\drivers/peripheral/gpio/cy_gpio.h **** *
 727:Generated_Source\PSoC6\pdl\drivers/peripheral/gpio/cy_gpio.h **** * \funcusage
 728:Generated_Source\PSoC6\pdl\drivers/peripheral/gpio/cy_gpio.h **** * \snippet gpio/gpio_v1_10_sut_01.cydsn/main_cm4.c snippet_Cy_GPIO_PortToAddr
 729:Generated_Source\PSoC6\pdl\drivers/peripheral/gpio/cy_gpio.h **** *
 730:Generated_Source\PSoC6\pdl\drivers/peripheral/gpio/cy_gpio.h **** *******************************************************************************/
 731:Generated_Source\PSoC6\pdl\drivers/peripheral/gpio/cy_gpio.h **** __STATIC_INLINE GPIO_PRT_Type* Cy_GPIO_PortToAddr(uint32_t portNum)
 732:Generated_Source\PSoC6\pdl\drivers/peripheral/gpio/cy_gpio.h **** {
 733:Generated_Source\PSoC6\pdl\drivers/peripheral/gpio/cy_gpio.h ****     GPIO_PRT_Type* portBase;
 734:Generated_Source\PSoC6\pdl\drivers/peripheral/gpio/cy_gpio.h ****     
 735:Generated_Source\PSoC6\pdl\drivers/peripheral/gpio/cy_gpio.h ****     if(portNum < (uint32_t)IOSS_GPIO_GPIO_PORT_NR)
 736:Generated_Source\PSoC6\pdl\drivers/peripheral/gpio/cy_gpio.h ****     {
 737:Generated_Source\PSoC6\pdl\drivers/peripheral/gpio/cy_gpio.h ****         portBase = (GPIO_PRT_Type *)(CY_GPIO_BASE + (GPIO_PRT_SECTION_SIZE * portNum));
 738:Generated_Source\PSoC6\pdl\drivers/peripheral/gpio/cy_gpio.h ****     }
 739:Generated_Source\PSoC6\pdl\drivers/peripheral/gpio/cy_gpio.h ****     else
 740:Generated_Source\PSoC6\pdl\drivers/peripheral/gpio/cy_gpio.h ****     {
 741:Generated_Source\PSoC6\pdl\drivers/peripheral/gpio/cy_gpio.h ****         /* Error: Return default base address */
 742:Generated_Source\PSoC6\pdl\drivers/peripheral/gpio/cy_gpio.h ****         portBase = (GPIO_PRT_Type *)(CY_GPIO_BASE);
 743:Generated_Source\PSoC6\pdl\drivers/peripheral/gpio/cy_gpio.h ****     }
 744:Generated_Source\PSoC6\pdl\drivers/peripheral/gpio/cy_gpio.h **** 
 745:Generated_Source\PSoC6\pdl\drivers/peripheral/gpio/cy_gpio.h ****     return (portBase);
 746:Generated_Source\PSoC6\pdl\drivers/peripheral/gpio/cy_gpio.h **** }
 747:Generated_Source\PSoC6\pdl\drivers/peripheral/gpio/cy_gpio.h **** 
 748:Generated_Source\PSoC6\pdl\drivers/peripheral/gpio/cy_gpio.h **** /** \} group_gpio_functions_init */
 749:Generated_Source\PSoC6\pdl\drivers/peripheral/gpio/cy_gpio.h **** 
 750:Generated_Source\PSoC6\pdl\drivers/peripheral/gpio/cy_gpio.h **** /**
 751:Generated_Source\PSoC6\pdl\drivers/peripheral/gpio/cy_gpio.h **** * \addtogroup group_gpio_functions_gpio
 752:Generated_Source\PSoC6\pdl\drivers/peripheral/gpio/cy_gpio.h **** * \{
 753:Generated_Source\PSoC6\pdl\drivers/peripheral/gpio/cy_gpio.h **** */
 754:Generated_Source\PSoC6\pdl\drivers/peripheral/gpio/cy_gpio.h **** 
 755:Generated_Source\PSoC6\pdl\drivers/peripheral/gpio/cy_gpio.h **** /*******************************************************************************
 756:Generated_Source\PSoC6\pdl\drivers/peripheral/gpio/cy_gpio.h **** * Function Name: Cy_GPIO_Read
 757:Generated_Source\PSoC6\pdl\drivers/peripheral/gpio/cy_gpio.h **** ****************************************************************************//**
 758:Generated_Source\PSoC6\pdl\drivers/peripheral/gpio/cy_gpio.h **** *
 759:Generated_Source\PSoC6\pdl\drivers/peripheral/gpio/cy_gpio.h **** * Reads the current logic level on the input buffer of the pin.
 760:Generated_Source\PSoC6\pdl\drivers/peripheral/gpio/cy_gpio.h **** *
 761:Generated_Source\PSoC6\pdl\drivers/peripheral/gpio/cy_gpio.h **** * \param base
 762:Generated_Source\PSoC6\pdl\drivers/peripheral/gpio/cy_gpio.h **** * Pointer to the pin's port register base address
 763:Generated_Source\PSoC6\pdl\drivers/peripheral/gpio/cy_gpio.h **** *
 764:Generated_Source\PSoC6\pdl\drivers/peripheral/gpio/cy_gpio.h **** * \param pinNum
 765:Generated_Source\PSoC6\pdl\drivers/peripheral/gpio/cy_gpio.h **** * Position of the pin bit-field within the port register.
 766:Generated_Source\PSoC6\pdl\drivers/peripheral/gpio/cy_gpio.h **** * Bit position 8 is the routed pin through the port glitch filter.
 767:Generated_Source\PSoC6\pdl\drivers/peripheral/gpio/cy_gpio.h **** *
 768:Generated_Source\PSoC6\pdl\drivers/peripheral/gpio/cy_gpio.h **** * \return
 769:Generated_Source\PSoC6\pdl\drivers/peripheral/gpio/cy_gpio.h **** * Logic level present on the pin
 770:Generated_Source\PSoC6\pdl\drivers/peripheral/gpio/cy_gpio.h **** *
 771:Generated_Source\PSoC6\pdl\drivers/peripheral/gpio/cy_gpio.h **** * \funcusage
 772:Generated_Source\PSoC6\pdl\drivers/peripheral/gpio/cy_gpio.h **** * \snippet gpio/gpio_v1_10_sut_01.cydsn/main_cm4.c snippet_Cy_GPIO_Read
 773:Generated_Source\PSoC6\pdl\drivers/peripheral/gpio/cy_gpio.h **** *
 774:Generated_Source\PSoC6\pdl\drivers/peripheral/gpio/cy_gpio.h **** *******************************************************************************/
 775:Generated_Source\PSoC6\pdl\drivers/peripheral/gpio/cy_gpio.h **** __STATIC_INLINE uint32_t Cy_GPIO_Read(GPIO_PRT_Type* base, uint32_t pinNum)
 776:Generated_Source\PSoC6\pdl\drivers/peripheral/gpio/cy_gpio.h **** {
 777:Generated_Source\PSoC6\pdl\drivers/peripheral/gpio/cy_gpio.h ****     CY_ASSERT_L2(CY_GPIO_IS_FILTER_PIN_VALID(pinNum));
 778:Generated_Source\PSoC6\pdl\drivers/peripheral/gpio/cy_gpio.h ****     
 779:Generated_Source\PSoC6\pdl\drivers/peripheral/gpio/cy_gpio.h ****     return (GPIO_PRT_IN(base) >> (pinNum)) & CY_GPIO_IN_MASK;
 780:Generated_Source\PSoC6\pdl\drivers/peripheral/gpio/cy_gpio.h **** }
 781:Generated_Source\PSoC6\pdl\drivers/peripheral/gpio/cy_gpio.h **** 
ARM GAS  C:\Users\Mathieu\AppData\Local\Temp\ccqdbTbw.s 			page 64


 782:Generated_Source\PSoC6\pdl\drivers/peripheral/gpio/cy_gpio.h **** 
 783:Generated_Source\PSoC6\pdl\drivers/peripheral/gpio/cy_gpio.h **** /*******************************************************************************
 784:Generated_Source\PSoC6\pdl\drivers/peripheral/gpio/cy_gpio.h **** * Function Name: Cy_GPIO_Write
 785:Generated_Source\PSoC6\pdl\drivers/peripheral/gpio/cy_gpio.h **** ****************************************************************************//**
 786:Generated_Source\PSoC6\pdl\drivers/peripheral/gpio/cy_gpio.h **** *
 787:Generated_Source\PSoC6\pdl\drivers/peripheral/gpio/cy_gpio.h **** * Write a logic 0 or logic 1 state to the output driver.
 788:Generated_Source\PSoC6\pdl\drivers/peripheral/gpio/cy_gpio.h **** *
 789:Generated_Source\PSoC6\pdl\drivers/peripheral/gpio/cy_gpio.h **** * This function should be used only for software driven pins. It does not have
 790:Generated_Source\PSoC6\pdl\drivers/peripheral/gpio/cy_gpio.h **** * any effect on peripheral driven pins.
 791:Generated_Source\PSoC6\pdl\drivers/peripheral/gpio/cy_gpio.h **** *
 792:Generated_Source\PSoC6\pdl\drivers/peripheral/gpio/cy_gpio.h **** * \param base
 793:Generated_Source\PSoC6\pdl\drivers/peripheral/gpio/cy_gpio.h **** * Pointer to the pin's port register base address
 794:Generated_Source\PSoC6\pdl\drivers/peripheral/gpio/cy_gpio.h **** *
 795:Generated_Source\PSoC6\pdl\drivers/peripheral/gpio/cy_gpio.h **** * \param pinNum
 796:Generated_Source\PSoC6\pdl\drivers/peripheral/gpio/cy_gpio.h **** * Position of the pin bit-field within the port register
 797:Generated_Source\PSoC6\pdl\drivers/peripheral/gpio/cy_gpio.h **** *
 798:Generated_Source\PSoC6\pdl\drivers/peripheral/gpio/cy_gpio.h **** * \param value
 799:Generated_Source\PSoC6\pdl\drivers/peripheral/gpio/cy_gpio.h **** * Logic level to drive out on the pin
 800:Generated_Source\PSoC6\pdl\drivers/peripheral/gpio/cy_gpio.h **** *
 801:Generated_Source\PSoC6\pdl\drivers/peripheral/gpio/cy_gpio.h **** * \funcusage
 802:Generated_Source\PSoC6\pdl\drivers/peripheral/gpio/cy_gpio.h **** * \snippet gpio/gpio_v1_10_sut_01.cydsn/main_cm4.c snippet_Cy_GPIO_Write
 803:Generated_Source\PSoC6\pdl\drivers/peripheral/gpio/cy_gpio.h **** *
 804:Generated_Source\PSoC6\pdl\drivers/peripheral/gpio/cy_gpio.h **** *******************************************************************************/
 805:Generated_Source\PSoC6\pdl\drivers/peripheral/gpio/cy_gpio.h **** __STATIC_INLINE void Cy_GPIO_Write(GPIO_PRT_Type* base, uint32_t pinNum, uint32_t value)
 806:Generated_Source\PSoC6\pdl\drivers/peripheral/gpio/cy_gpio.h **** {
 807:Generated_Source\PSoC6\pdl\drivers/peripheral/gpio/cy_gpio.h ****     CY_ASSERT_L2(CY_GPIO_IS_PIN_VALID(pinNum));
 808:Generated_Source\PSoC6\pdl\drivers/peripheral/gpio/cy_gpio.h ****     CY_ASSERT_L2(CY_GPIO_IS_VALUE_VALID(value));
 809:Generated_Source\PSoC6\pdl\drivers/peripheral/gpio/cy_gpio.h **** 
 810:Generated_Source\PSoC6\pdl\drivers/peripheral/gpio/cy_gpio.h ****     /* Thread-safe: Directly access the pin registers instead of base->OUT */
 811:Generated_Source\PSoC6\pdl\drivers/peripheral/gpio/cy_gpio.h ****     if(0UL == value)
 812:Generated_Source\PSoC6\pdl\drivers/peripheral/gpio/cy_gpio.h ****     {
 813:Generated_Source\PSoC6\pdl\drivers/peripheral/gpio/cy_gpio.h ****         GPIO_PRT_OUT_CLR(base) = CY_GPIO_OUT_MASK << pinNum;
 814:Generated_Source\PSoC6\pdl\drivers/peripheral/gpio/cy_gpio.h ****     }
 815:Generated_Source\PSoC6\pdl\drivers/peripheral/gpio/cy_gpio.h ****     else
 816:Generated_Source\PSoC6\pdl\drivers/peripheral/gpio/cy_gpio.h ****     {
 817:Generated_Source\PSoC6\pdl\drivers/peripheral/gpio/cy_gpio.h ****         GPIO_PRT_OUT_SET(base) = CY_GPIO_OUT_MASK << pinNum;
 818:Generated_Source\PSoC6\pdl\drivers/peripheral/gpio/cy_gpio.h ****     }
 819:Generated_Source\PSoC6\pdl\drivers/peripheral/gpio/cy_gpio.h **** }
 820:Generated_Source\PSoC6\pdl\drivers/peripheral/gpio/cy_gpio.h **** 
 821:Generated_Source\PSoC6\pdl\drivers/peripheral/gpio/cy_gpio.h **** 
 822:Generated_Source\PSoC6\pdl\drivers/peripheral/gpio/cy_gpio.h **** /*******************************************************************************
 823:Generated_Source\PSoC6\pdl\drivers/peripheral/gpio/cy_gpio.h **** * Function Name: Cy_GPIO_ReadOut
 824:Generated_Source\PSoC6\pdl\drivers/peripheral/gpio/cy_gpio.h **** ****************************************************************************//**
 825:Generated_Source\PSoC6\pdl\drivers/peripheral/gpio/cy_gpio.h **** *
 826:Generated_Source\PSoC6\pdl\drivers/peripheral/gpio/cy_gpio.h **** * Reads the current logic level on the pin output driver.
 827:Generated_Source\PSoC6\pdl\drivers/peripheral/gpio/cy_gpio.h **** *
 828:Generated_Source\PSoC6\pdl\drivers/peripheral/gpio/cy_gpio.h **** * \param base
 829:Generated_Source\PSoC6\pdl\drivers/peripheral/gpio/cy_gpio.h **** * Pointer to the pin's port register base address
 830:Generated_Source\PSoC6\pdl\drivers/peripheral/gpio/cy_gpio.h **** *
 831:Generated_Source\PSoC6\pdl\drivers/peripheral/gpio/cy_gpio.h **** * \param pinNum
 832:Generated_Source\PSoC6\pdl\drivers/peripheral/gpio/cy_gpio.h **** * Position of the pin bit-field within the port register
 833:Generated_Source\PSoC6\pdl\drivers/peripheral/gpio/cy_gpio.h **** *
 834:Generated_Source\PSoC6\pdl\drivers/peripheral/gpio/cy_gpio.h **** * \return
 835:Generated_Source\PSoC6\pdl\drivers/peripheral/gpio/cy_gpio.h **** * Logic level on the pin output driver
 836:Generated_Source\PSoC6\pdl\drivers/peripheral/gpio/cy_gpio.h **** *
 837:Generated_Source\PSoC6\pdl\drivers/peripheral/gpio/cy_gpio.h **** * \funcusage
 838:Generated_Source\PSoC6\pdl\drivers/peripheral/gpio/cy_gpio.h **** * \snippet gpio/gpio_v1_10_sut_01.cydsn/main_cm4.c snippet_Cy_GPIO_ReadOut
ARM GAS  C:\Users\Mathieu\AppData\Local\Temp\ccqdbTbw.s 			page 65


 839:Generated_Source\PSoC6\pdl\drivers/peripheral/gpio/cy_gpio.h **** *
 840:Generated_Source\PSoC6\pdl\drivers/peripheral/gpio/cy_gpio.h **** *******************************************************************************/
 841:Generated_Source\PSoC6\pdl\drivers/peripheral/gpio/cy_gpio.h **** __STATIC_INLINE uint32_t Cy_GPIO_ReadOut(GPIO_PRT_Type* base, uint32_t pinNum)
 842:Generated_Source\PSoC6\pdl\drivers/peripheral/gpio/cy_gpio.h **** {
 843:Generated_Source\PSoC6\pdl\drivers/peripheral/gpio/cy_gpio.h ****     CY_ASSERT_L2(CY_GPIO_IS_PIN_VALID(pinNum));
 844:Generated_Source\PSoC6\pdl\drivers/peripheral/gpio/cy_gpio.h **** 
 845:Generated_Source\PSoC6\pdl\drivers/peripheral/gpio/cy_gpio.h ****     return (GPIO_PRT_OUT(base) >> pinNum) & CY_GPIO_OUT_MASK;
 846:Generated_Source\PSoC6\pdl\drivers/peripheral/gpio/cy_gpio.h **** }
 847:Generated_Source\PSoC6\pdl\drivers/peripheral/gpio/cy_gpio.h **** 
 848:Generated_Source\PSoC6\pdl\drivers/peripheral/gpio/cy_gpio.h **** 
 849:Generated_Source\PSoC6\pdl\drivers/peripheral/gpio/cy_gpio.h **** /*******************************************************************************
 850:Generated_Source\PSoC6\pdl\drivers/peripheral/gpio/cy_gpio.h **** * Function Name: Cy_GPIO_Set
 851:Generated_Source\PSoC6\pdl\drivers/peripheral/gpio/cy_gpio.h **** ****************************************************************************//**
 852:Generated_Source\PSoC6\pdl\drivers/peripheral/gpio/cy_gpio.h **** *
 853:Generated_Source\PSoC6\pdl\drivers/peripheral/gpio/cy_gpio.h **** * Set a pin output to logic state high.
 854:Generated_Source\PSoC6\pdl\drivers/peripheral/gpio/cy_gpio.h **** *
 855:Generated_Source\PSoC6\pdl\drivers/peripheral/gpio/cy_gpio.h **** * This function should be used only for software driven pins. It does not have
 856:Generated_Source\PSoC6\pdl\drivers/peripheral/gpio/cy_gpio.h **** * any effect on peripheral driven pins.
 857:Generated_Source\PSoC6\pdl\drivers/peripheral/gpio/cy_gpio.h **** *
 858:Generated_Source\PSoC6\pdl\drivers/peripheral/gpio/cy_gpio.h **** * \param base
 859:Generated_Source\PSoC6\pdl\drivers/peripheral/gpio/cy_gpio.h **** * Pointer to the pin's port register base address
 860:Generated_Source\PSoC6\pdl\drivers/peripheral/gpio/cy_gpio.h **** *
 861:Generated_Source\PSoC6\pdl\drivers/peripheral/gpio/cy_gpio.h **** * \param pinNum
 862:Generated_Source\PSoC6\pdl\drivers/peripheral/gpio/cy_gpio.h **** * Position of the pin bit-field within the port register
 863:Generated_Source\PSoC6\pdl\drivers/peripheral/gpio/cy_gpio.h **** *
 864:Generated_Source\PSoC6\pdl\drivers/peripheral/gpio/cy_gpio.h **** * \funcusage
 865:Generated_Source\PSoC6\pdl\drivers/peripheral/gpio/cy_gpio.h **** * \snippet gpio/gpio_v1_10_sut_01.cydsn/main_cm4.c snippet_Cy_GPIO_Set
 866:Generated_Source\PSoC6\pdl\drivers/peripheral/gpio/cy_gpio.h **** *
 867:Generated_Source\PSoC6\pdl\drivers/peripheral/gpio/cy_gpio.h **** *******************************************************************************/
 868:Generated_Source\PSoC6\pdl\drivers/peripheral/gpio/cy_gpio.h **** __STATIC_INLINE void Cy_GPIO_Set(GPIO_PRT_Type* base, uint32_t pinNum)
 869:Generated_Source\PSoC6\pdl\drivers/peripheral/gpio/cy_gpio.h **** {
 870:Generated_Source\PSoC6\pdl\drivers/peripheral/gpio/cy_gpio.h ****     CY_ASSERT_L2(CY_GPIO_IS_PIN_VALID(pinNum));
 871:Generated_Source\PSoC6\pdl\drivers/peripheral/gpio/cy_gpio.h ****     
 872:Generated_Source\PSoC6\pdl\drivers/peripheral/gpio/cy_gpio.h ****     GPIO_PRT_OUT_SET(base) = CY_GPIO_OUT_MASK << pinNum;
 873:Generated_Source\PSoC6\pdl\drivers/peripheral/gpio/cy_gpio.h **** }
 874:Generated_Source\PSoC6\pdl\drivers/peripheral/gpio/cy_gpio.h **** 
 875:Generated_Source\PSoC6\pdl\drivers/peripheral/gpio/cy_gpio.h **** 
 876:Generated_Source\PSoC6\pdl\drivers/peripheral/gpio/cy_gpio.h **** /*******************************************************************************
 877:Generated_Source\PSoC6\pdl\drivers/peripheral/gpio/cy_gpio.h **** * Function Name: Cy_GPIO_Clr
 878:Generated_Source\PSoC6\pdl\drivers/peripheral/gpio/cy_gpio.h **** ****************************************************************************//**
 879:Generated_Source\PSoC6\pdl\drivers/peripheral/gpio/cy_gpio.h **** *
 880:Generated_Source\PSoC6\pdl\drivers/peripheral/gpio/cy_gpio.h **** * Set a pin output to logic state Low.
 881:Generated_Source\PSoC6\pdl\drivers/peripheral/gpio/cy_gpio.h **** *
 882:Generated_Source\PSoC6\pdl\drivers/peripheral/gpio/cy_gpio.h **** * This function should be used only for software driven pins. It does not have
 883:Generated_Source\PSoC6\pdl\drivers/peripheral/gpio/cy_gpio.h **** * any effect on peripheral driven pins.
 884:Generated_Source\PSoC6\pdl\drivers/peripheral/gpio/cy_gpio.h **** *
 885:Generated_Source\PSoC6\pdl\drivers/peripheral/gpio/cy_gpio.h **** * \param base
 886:Generated_Source\PSoC6\pdl\drivers/peripheral/gpio/cy_gpio.h **** * Pointer to the pin's port register base address
 887:Generated_Source\PSoC6\pdl\drivers/peripheral/gpio/cy_gpio.h **** *
 888:Generated_Source\PSoC6\pdl\drivers/peripheral/gpio/cy_gpio.h **** * \param pinNum
 889:Generated_Source\PSoC6\pdl\drivers/peripheral/gpio/cy_gpio.h **** * Position of the pin bit-field within the port register
 890:Generated_Source\PSoC6\pdl\drivers/peripheral/gpio/cy_gpio.h **** *
 891:Generated_Source\PSoC6\pdl\drivers/peripheral/gpio/cy_gpio.h **** * \funcusage
 892:Generated_Source\PSoC6\pdl\drivers/peripheral/gpio/cy_gpio.h **** * \snippet gpio/gpio_v1_10_sut_01.cydsn/main_cm4.c snippet_Cy_GPIO_Clr
 893:Generated_Source\PSoC6\pdl\drivers/peripheral/gpio/cy_gpio.h **** *
 894:Generated_Source\PSoC6\pdl\drivers/peripheral/gpio/cy_gpio.h **** *******************************************************************************/
 895:Generated_Source\PSoC6\pdl\drivers/peripheral/gpio/cy_gpio.h **** __STATIC_INLINE void Cy_GPIO_Clr(GPIO_PRT_Type* base, uint32_t pinNum)
ARM GAS  C:\Users\Mathieu\AppData\Local\Temp\ccqdbTbw.s 			page 66


 896:Generated_Source\PSoC6\pdl\drivers/peripheral/gpio/cy_gpio.h **** {
 897:Generated_Source\PSoC6\pdl\drivers/peripheral/gpio/cy_gpio.h ****     CY_ASSERT_L2(CY_GPIO_IS_PIN_VALID(pinNum));
 898:Generated_Source\PSoC6\pdl\drivers/peripheral/gpio/cy_gpio.h ****     
 899:Generated_Source\PSoC6\pdl\drivers/peripheral/gpio/cy_gpio.h ****     GPIO_PRT_OUT_CLR(base) = CY_GPIO_OUT_MASK << pinNum;
 900:Generated_Source\PSoC6\pdl\drivers/peripheral/gpio/cy_gpio.h **** }
 901:Generated_Source\PSoC6\pdl\drivers/peripheral/gpio/cy_gpio.h **** 
 902:Generated_Source\PSoC6\pdl\drivers/peripheral/gpio/cy_gpio.h **** 
 903:Generated_Source\PSoC6\pdl\drivers/peripheral/gpio/cy_gpio.h **** /*******************************************************************************
 904:Generated_Source\PSoC6\pdl\drivers/peripheral/gpio/cy_gpio.h **** * Function Name: Cy_GPIO_Inv
 905:Generated_Source\PSoC6\pdl\drivers/peripheral/gpio/cy_gpio.h **** ****************************************************************************//**
 906:Generated_Source\PSoC6\pdl\drivers/peripheral/gpio/cy_gpio.h **** *
 907:Generated_Source\PSoC6\pdl\drivers/peripheral/gpio/cy_gpio.h **** * Set a pin output logic state to the inverse of the current output
 908:Generated_Source\PSoC6\pdl\drivers/peripheral/gpio/cy_gpio.h **** * logic state.
 909:Generated_Source\PSoC6\pdl\drivers/peripheral/gpio/cy_gpio.h **** *
 910:Generated_Source\PSoC6\pdl\drivers/peripheral/gpio/cy_gpio.h **** * This function should be used only for software driven pins. It does not have
 911:Generated_Source\PSoC6\pdl\drivers/peripheral/gpio/cy_gpio.h **** * any effect on peripheral driven pins.
 912:Generated_Source\PSoC6\pdl\drivers/peripheral/gpio/cy_gpio.h **** *
 913:Generated_Source\PSoC6\pdl\drivers/peripheral/gpio/cy_gpio.h **** * \param base
 914:Generated_Source\PSoC6\pdl\drivers/peripheral/gpio/cy_gpio.h **** * Pointer to the pin's port register base address
 915:Generated_Source\PSoC6\pdl\drivers/peripheral/gpio/cy_gpio.h **** *
 916:Generated_Source\PSoC6\pdl\drivers/peripheral/gpio/cy_gpio.h **** * \param pinNum
 917:Generated_Source\PSoC6\pdl\drivers/peripheral/gpio/cy_gpio.h **** * Position of the pin bit-field within the port register
 918:Generated_Source\PSoC6\pdl\drivers/peripheral/gpio/cy_gpio.h **** *
 919:Generated_Source\PSoC6\pdl\drivers/peripheral/gpio/cy_gpio.h **** * \funcusage
 920:Generated_Source\PSoC6\pdl\drivers/peripheral/gpio/cy_gpio.h **** * \snippet gpio/gpio_v1_10_sut_01.cydsn/main_cm4.c snippet_Cy_GPIO_Inv
 921:Generated_Source\PSoC6\pdl\drivers/peripheral/gpio/cy_gpio.h **** *
 922:Generated_Source\PSoC6\pdl\drivers/peripheral/gpio/cy_gpio.h **** *******************************************************************************/
 923:Generated_Source\PSoC6\pdl\drivers/peripheral/gpio/cy_gpio.h **** __STATIC_INLINE void Cy_GPIO_Inv(GPIO_PRT_Type* base, uint32_t pinNum)
 924:Generated_Source\PSoC6\pdl\drivers/peripheral/gpio/cy_gpio.h **** {
 925:Generated_Source\PSoC6\pdl\drivers/peripheral/gpio/cy_gpio.h ****     CY_ASSERT_L2(CY_GPIO_IS_PIN_VALID(pinNum));
 926:Generated_Source\PSoC6\pdl\drivers/peripheral/gpio/cy_gpio.h ****     
 927:Generated_Source\PSoC6\pdl\drivers/peripheral/gpio/cy_gpio.h ****     GPIO_PRT_OUT_INV(base) = CY_GPIO_OUT_MASK << pinNum;
 928:Generated_Source\PSoC6\pdl\drivers/peripheral/gpio/cy_gpio.h **** }
 929:Generated_Source\PSoC6\pdl\drivers/peripheral/gpio/cy_gpio.h **** 
 930:Generated_Source\PSoC6\pdl\drivers/peripheral/gpio/cy_gpio.h **** 
 931:Generated_Source\PSoC6\pdl\drivers/peripheral/gpio/cy_gpio.h **** /*******************************************************************************
 932:Generated_Source\PSoC6\pdl\drivers/peripheral/gpio/cy_gpio.h **** * Function Name: Cy_GPIO_SetDrivemode
 933:Generated_Source\PSoC6\pdl\drivers/peripheral/gpio/cy_gpio.h **** ****************************************************************************//**
 934:Generated_Source\PSoC6\pdl\drivers/peripheral/gpio/cy_gpio.h **** *
 935:Generated_Source\PSoC6\pdl\drivers/peripheral/gpio/cy_gpio.h **** * Configures the pin output buffer drive mode and input buffer enable.
 936:Generated_Source\PSoC6\pdl\drivers/peripheral/gpio/cy_gpio.h **** *
 937:Generated_Source\PSoC6\pdl\drivers/peripheral/gpio/cy_gpio.h **** * The output buffer drive mode and input buffer enable are combined into a single
 938:Generated_Source\PSoC6\pdl\drivers/peripheral/gpio/cy_gpio.h **** * parameter. The drive mode controls the behavior of the pin in general.
 939:Generated_Source\PSoC6\pdl\drivers/peripheral/gpio/cy_gpio.h **** * Enabling the input buffer allows the digital pin state to be read but also
 940:Generated_Source\PSoC6\pdl\drivers/peripheral/gpio/cy_gpio.h **** * contributes to extra current consumption.
 941:Generated_Source\PSoC6\pdl\drivers/peripheral/gpio/cy_gpio.h **** *
 942:Generated_Source\PSoC6\pdl\drivers/peripheral/gpio/cy_gpio.h **** * \param base
 943:Generated_Source\PSoC6\pdl\drivers/peripheral/gpio/cy_gpio.h **** * Pointer to the pin's port register base address
 944:Generated_Source\PSoC6\pdl\drivers/peripheral/gpio/cy_gpio.h **** *
 945:Generated_Source\PSoC6\pdl\drivers/peripheral/gpio/cy_gpio.h **** * \param pinNum
 946:Generated_Source\PSoC6\pdl\drivers/peripheral/gpio/cy_gpio.h **** * Position of the pin bit-field within the port register
 947:Generated_Source\PSoC6\pdl\drivers/peripheral/gpio/cy_gpio.h **** *
 948:Generated_Source\PSoC6\pdl\drivers/peripheral/gpio/cy_gpio.h **** * \param value
 949:Generated_Source\PSoC6\pdl\drivers/peripheral/gpio/cy_gpio.h **** * Pin drive mode. Options are detailed in \ref group_gpio_driveModes macros
 950:Generated_Source\PSoC6\pdl\drivers/peripheral/gpio/cy_gpio.h **** *
 951:Generated_Source\PSoC6\pdl\drivers/peripheral/gpio/cy_gpio.h **** * \note 
 952:Generated_Source\PSoC6\pdl\drivers/peripheral/gpio/cy_gpio.h **** * This function modifies a port register in a read-modify-write operation. It is
ARM GAS  C:\Users\Mathieu\AppData\Local\Temp\ccqdbTbw.s 			page 67


 953:Generated_Source\PSoC6\pdl\drivers/peripheral/gpio/cy_gpio.h **** * not thread safe as the resource is shared among multiple pins on a port.
 954:Generated_Source\PSoC6\pdl\drivers/peripheral/gpio/cy_gpio.h **** *
 955:Generated_Source\PSoC6\pdl\drivers/peripheral/gpio/cy_gpio.h **** * \funcusage
 956:Generated_Source\PSoC6\pdl\drivers/peripheral/gpio/cy_gpio.h **** * \snippet gpio/gpio_v1_10_sut_01.cydsn/main_cm4.c snippet_Cy_GPIO_SetDrivemode
 957:Generated_Source\PSoC6\pdl\drivers/peripheral/gpio/cy_gpio.h **** *
 958:Generated_Source\PSoC6\pdl\drivers/peripheral/gpio/cy_gpio.h **** *******************************************************************************/
 959:Generated_Source\PSoC6\pdl\drivers/peripheral/gpio/cy_gpio.h **** __STATIC_INLINE void Cy_GPIO_SetDrivemode(GPIO_PRT_Type* base, uint32_t pinNum, uint32_t value)
 960:Generated_Source\PSoC6\pdl\drivers/peripheral/gpio/cy_gpio.h **** {
 961:Generated_Source\PSoC6\pdl\drivers/peripheral/gpio/cy_gpio.h ****     uint32_t tempReg;
 962:Generated_Source\PSoC6\pdl\drivers/peripheral/gpio/cy_gpio.h ****     uint32_t pinLoc;
 963:Generated_Source\PSoC6\pdl\drivers/peripheral/gpio/cy_gpio.h **** 
 964:Generated_Source\PSoC6\pdl\drivers/peripheral/gpio/cy_gpio.h ****     CY_ASSERT_L2(CY_GPIO_IS_PIN_VALID(pinNum));
 965:Generated_Source\PSoC6\pdl\drivers/peripheral/gpio/cy_gpio.h ****     CY_ASSERT_L2(CY_GPIO_IS_DM_VALID(value));
 966:Generated_Source\PSoC6\pdl\drivers/peripheral/gpio/cy_gpio.h **** 
 967:Generated_Source\PSoC6\pdl\drivers/peripheral/gpio/cy_gpio.h ****     pinLoc = pinNum << CY_GPIO_DRIVE_MODE_OFFSET;
 968:Generated_Source\PSoC6\pdl\drivers/peripheral/gpio/cy_gpio.h ****     tempReg = (GPIO_PRT_CFG(base) & ~(CY_GPIO_CFG_DM_MASK << pinLoc));
 969:Generated_Source\PSoC6\pdl\drivers/peripheral/gpio/cy_gpio.h ****     GPIO_PRT_CFG(base) = tempReg | ((value & CY_GPIO_CFG_DM_MASK) << pinLoc);
 970:Generated_Source\PSoC6\pdl\drivers/peripheral/gpio/cy_gpio.h **** }
 971:Generated_Source\PSoC6\pdl\drivers/peripheral/gpio/cy_gpio.h **** 
 972:Generated_Source\PSoC6\pdl\drivers/peripheral/gpio/cy_gpio.h **** 
 973:Generated_Source\PSoC6\pdl\drivers/peripheral/gpio/cy_gpio.h **** /*******************************************************************************
 974:Generated_Source\PSoC6\pdl\drivers/peripheral/gpio/cy_gpio.h **** * Function Name: Cy_GPIO_GetDrivemode
 975:Generated_Source\PSoC6\pdl\drivers/peripheral/gpio/cy_gpio.h **** ****************************************************************************//**
 976:Generated_Source\PSoC6\pdl\drivers/peripheral/gpio/cy_gpio.h **** *
 977:Generated_Source\PSoC6\pdl\drivers/peripheral/gpio/cy_gpio.h **** * Returns the pin output buffer drive mode and input buffer enable state.
 978:Generated_Source\PSoC6\pdl\drivers/peripheral/gpio/cy_gpio.h **** *
 979:Generated_Source\PSoC6\pdl\drivers/peripheral/gpio/cy_gpio.h **** * \param base
 980:Generated_Source\PSoC6\pdl\drivers/peripheral/gpio/cy_gpio.h **** * Pointer to the pin's port register base address
 981:Generated_Source\PSoC6\pdl\drivers/peripheral/gpio/cy_gpio.h **** *
 982:Generated_Source\PSoC6\pdl\drivers/peripheral/gpio/cy_gpio.h **** * \param pinNum
 983:Generated_Source\PSoC6\pdl\drivers/peripheral/gpio/cy_gpio.h **** * Position of the pin bit-field within the port register
 984:Generated_Source\PSoC6\pdl\drivers/peripheral/gpio/cy_gpio.h **** *
 985:Generated_Source\PSoC6\pdl\drivers/peripheral/gpio/cy_gpio.h **** * \return
 986:Generated_Source\PSoC6\pdl\drivers/peripheral/gpio/cy_gpio.h **** * Pin drive mode. Options are detailed in \ref group_gpio_driveModes macros
 987:Generated_Source\PSoC6\pdl\drivers/peripheral/gpio/cy_gpio.h **** *
 988:Generated_Source\PSoC6\pdl\drivers/peripheral/gpio/cy_gpio.h **** * \funcusage
 989:Generated_Source\PSoC6\pdl\drivers/peripheral/gpio/cy_gpio.h **** * \snippet gpio/gpio_v1_10_sut_01.cydsn/main_cm4.c snippet_Cy_GPIO_SetDrivemode
 990:Generated_Source\PSoC6\pdl\drivers/peripheral/gpio/cy_gpio.h **** *
 991:Generated_Source\PSoC6\pdl\drivers/peripheral/gpio/cy_gpio.h **** *******************************************************************************/
 992:Generated_Source\PSoC6\pdl\drivers/peripheral/gpio/cy_gpio.h **** __STATIC_INLINE uint32_t Cy_GPIO_GetDrivemode(GPIO_PRT_Type* base, uint32_t pinNum)
 993:Generated_Source\PSoC6\pdl\drivers/peripheral/gpio/cy_gpio.h **** {
 994:Generated_Source\PSoC6\pdl\drivers/peripheral/gpio/cy_gpio.h ****     CY_ASSERT_L2(CY_GPIO_IS_PIN_VALID(pinNum));
 995:Generated_Source\PSoC6\pdl\drivers/peripheral/gpio/cy_gpio.h ****     
 996:Generated_Source\PSoC6\pdl\drivers/peripheral/gpio/cy_gpio.h ****     return (GPIO_PRT_CFG(base) >> (pinNum << CY_GPIO_DRIVE_MODE_OFFSET)) & CY_GPIO_CFG_DM_MASK;
 997:Generated_Source\PSoC6\pdl\drivers/peripheral/gpio/cy_gpio.h **** }
 998:Generated_Source\PSoC6\pdl\drivers/peripheral/gpio/cy_gpio.h **** 
 999:Generated_Source\PSoC6\pdl\drivers/peripheral/gpio/cy_gpio.h **** 
1000:Generated_Source\PSoC6\pdl\drivers/peripheral/gpio/cy_gpio.h **** /*******************************************************************************
1001:Generated_Source\PSoC6\pdl\drivers/peripheral/gpio/cy_gpio.h **** * Function Name: Cy_GPIO_SetVtrip
1002:Generated_Source\PSoC6\pdl\drivers/peripheral/gpio/cy_gpio.h **** ****************************************************************************//**
1003:Generated_Source\PSoC6\pdl\drivers/peripheral/gpio/cy_gpio.h **** *
1004:Generated_Source\PSoC6\pdl\drivers/peripheral/gpio/cy_gpio.h **** * Configures the GPIO pin input buffer voltage threshold mode.
1005:Generated_Source\PSoC6\pdl\drivers/peripheral/gpio/cy_gpio.h **** *
1006:Generated_Source\PSoC6\pdl\drivers/peripheral/gpio/cy_gpio.h **** * \param base
1007:Generated_Source\PSoC6\pdl\drivers/peripheral/gpio/cy_gpio.h **** * Pointer to the pin's port register base address
1008:Generated_Source\PSoC6\pdl\drivers/peripheral/gpio/cy_gpio.h **** *
1009:Generated_Source\PSoC6\pdl\drivers/peripheral/gpio/cy_gpio.h **** * \param pinNum
ARM GAS  C:\Users\Mathieu\AppData\Local\Temp\ccqdbTbw.s 			page 68


1010:Generated_Source\PSoC6\pdl\drivers/peripheral/gpio/cy_gpio.h **** * Position of the pin bit-field within the port register
1011:Generated_Source\PSoC6\pdl\drivers/peripheral/gpio/cy_gpio.h **** *
1012:Generated_Source\PSoC6\pdl\drivers/peripheral/gpio/cy_gpio.h **** * \param value
1013:Generated_Source\PSoC6\pdl\drivers/peripheral/gpio/cy_gpio.h **** * Pin voltage threshold mode. Options are detailed in \ref group_gpio_vtrip macros
1014:Generated_Source\PSoC6\pdl\drivers/peripheral/gpio/cy_gpio.h **** *
1015:Generated_Source\PSoC6\pdl\drivers/peripheral/gpio/cy_gpio.h **** * \note 
1016:Generated_Source\PSoC6\pdl\drivers/peripheral/gpio/cy_gpio.h **** * This function modifies a port register in a read-modify-write operation. It is
1017:Generated_Source\PSoC6\pdl\drivers/peripheral/gpio/cy_gpio.h **** * not thread safe as the resource is shared among multiple pins on a port.
1018:Generated_Source\PSoC6\pdl\drivers/peripheral/gpio/cy_gpio.h **** *
1019:Generated_Source\PSoC6\pdl\drivers/peripheral/gpio/cy_gpio.h **** * \funcusage
1020:Generated_Source\PSoC6\pdl\drivers/peripheral/gpio/cy_gpio.h **** * \snippet gpio/gpio_v1_10_sut_01.cydsn/main_cm4.c snippet_Cy_GPIO_SetVtrip
1021:Generated_Source\PSoC6\pdl\drivers/peripheral/gpio/cy_gpio.h **** *
1022:Generated_Source\PSoC6\pdl\drivers/peripheral/gpio/cy_gpio.h **** *******************************************************************************/
1023:Generated_Source\PSoC6\pdl\drivers/peripheral/gpio/cy_gpio.h **** __STATIC_INLINE void Cy_GPIO_SetVtrip(GPIO_PRT_Type* base, uint32_t pinNum, uint32_t value)
1024:Generated_Source\PSoC6\pdl\drivers/peripheral/gpio/cy_gpio.h **** {
1025:Generated_Source\PSoC6\pdl\drivers/peripheral/gpio/cy_gpio.h ****     uint32_t tempReg;
1026:Generated_Source\PSoC6\pdl\drivers/peripheral/gpio/cy_gpio.h **** 
1027:Generated_Source\PSoC6\pdl\drivers/peripheral/gpio/cy_gpio.h ****     CY_ASSERT_L2(CY_GPIO_IS_PIN_VALID(pinNum));
1028:Generated_Source\PSoC6\pdl\drivers/peripheral/gpio/cy_gpio.h ****     CY_ASSERT_L2(CY_GPIO_IS_VALUE_VALID(value));
1029:Generated_Source\PSoC6\pdl\drivers/peripheral/gpio/cy_gpio.h **** 
1030:Generated_Source\PSoC6\pdl\drivers/peripheral/gpio/cy_gpio.h ****     tempReg = GPIO_PRT_CFG_IN(base) & ~(CY_GPIO_CFG_IN_VTRIP_SEL_MASK << pinNum);
1031:Generated_Source\PSoC6\pdl\drivers/peripheral/gpio/cy_gpio.h ****     GPIO_PRT_CFG_IN(base) = tempReg | ((value & CY_GPIO_CFG_IN_VTRIP_SEL_MASK) << pinNum);
1032:Generated_Source\PSoC6\pdl\drivers/peripheral/gpio/cy_gpio.h **** }
1033:Generated_Source\PSoC6\pdl\drivers/peripheral/gpio/cy_gpio.h **** 
1034:Generated_Source\PSoC6\pdl\drivers/peripheral/gpio/cy_gpio.h **** 
1035:Generated_Source\PSoC6\pdl\drivers/peripheral/gpio/cy_gpio.h **** /*******************************************************************************
1036:Generated_Source\PSoC6\pdl\drivers/peripheral/gpio/cy_gpio.h **** * Function Name: Cy_GPIO_GetVtrip
1037:Generated_Source\PSoC6\pdl\drivers/peripheral/gpio/cy_gpio.h **** ****************************************************************************//**
1038:Generated_Source\PSoC6\pdl\drivers/peripheral/gpio/cy_gpio.h **** *
1039:Generated_Source\PSoC6\pdl\drivers/peripheral/gpio/cy_gpio.h **** * Returns the pin input buffer voltage threshold mode.
1040:Generated_Source\PSoC6\pdl\drivers/peripheral/gpio/cy_gpio.h **** *
1041:Generated_Source\PSoC6\pdl\drivers/peripheral/gpio/cy_gpio.h **** * \param base
1042:Generated_Source\PSoC6\pdl\drivers/peripheral/gpio/cy_gpio.h **** * Pointer to the pin's port register base address
1043:Generated_Source\PSoC6\pdl\drivers/peripheral/gpio/cy_gpio.h **** *
1044:Generated_Source\PSoC6\pdl\drivers/peripheral/gpio/cy_gpio.h **** * \param pinNum
1045:Generated_Source\PSoC6\pdl\drivers/peripheral/gpio/cy_gpio.h **** * Position of the pin bit-field within the port register
1046:Generated_Source\PSoC6\pdl\drivers/peripheral/gpio/cy_gpio.h **** *
1047:Generated_Source\PSoC6\pdl\drivers/peripheral/gpio/cy_gpio.h **** * \return
1048:Generated_Source\PSoC6\pdl\drivers/peripheral/gpio/cy_gpio.h **** * Pin voltage threshold mode. Options are detailed in \ref group_gpio_vtrip macros
1049:Generated_Source\PSoC6\pdl\drivers/peripheral/gpio/cy_gpio.h **** *
1050:Generated_Source\PSoC6\pdl\drivers/peripheral/gpio/cy_gpio.h **** * \funcusage
1051:Generated_Source\PSoC6\pdl\drivers/peripheral/gpio/cy_gpio.h **** * \snippet gpio/gpio_v1_10_sut_01.cydsn/main_cm4.c snippet_Cy_GPIO_SetVtrip
1052:Generated_Source\PSoC6\pdl\drivers/peripheral/gpio/cy_gpio.h **** *
1053:Generated_Source\PSoC6\pdl\drivers/peripheral/gpio/cy_gpio.h **** *******************************************************************************/
1054:Generated_Source\PSoC6\pdl\drivers/peripheral/gpio/cy_gpio.h **** __STATIC_INLINE uint32_t Cy_GPIO_GetVtrip(GPIO_PRT_Type* base, uint32_t pinNum)
1055:Generated_Source\PSoC6\pdl\drivers/peripheral/gpio/cy_gpio.h **** {
1056:Generated_Source\PSoC6\pdl\drivers/peripheral/gpio/cy_gpio.h ****     CY_ASSERT_L2(CY_GPIO_IS_PIN_VALID(pinNum));
1057:Generated_Source\PSoC6\pdl\drivers/peripheral/gpio/cy_gpio.h ****     
1058:Generated_Source\PSoC6\pdl\drivers/peripheral/gpio/cy_gpio.h ****     return (GPIO_PRT_CFG_IN(base) >> pinNum) & CY_GPIO_CFG_IN_VTRIP_SEL_MASK;
1059:Generated_Source\PSoC6\pdl\drivers/peripheral/gpio/cy_gpio.h **** }
1060:Generated_Source\PSoC6\pdl\drivers/peripheral/gpio/cy_gpio.h **** 
1061:Generated_Source\PSoC6\pdl\drivers/peripheral/gpio/cy_gpio.h **** 
1062:Generated_Source\PSoC6\pdl\drivers/peripheral/gpio/cy_gpio.h **** /*******************************************************************************
1063:Generated_Source\PSoC6\pdl\drivers/peripheral/gpio/cy_gpio.h **** * Function Name: Cy_GPIO_SetSlewRate
1064:Generated_Source\PSoC6\pdl\drivers/peripheral/gpio/cy_gpio.h **** ****************************************************************************//**
1065:Generated_Source\PSoC6\pdl\drivers/peripheral/gpio/cy_gpio.h **** *
1066:Generated_Source\PSoC6\pdl\drivers/peripheral/gpio/cy_gpio.h **** * Configures the pin output buffer slew rate.
ARM GAS  C:\Users\Mathieu\AppData\Local\Temp\ccqdbTbw.s 			page 69


1067:Generated_Source\PSoC6\pdl\drivers/peripheral/gpio/cy_gpio.h **** *
1068:Generated_Source\PSoC6\pdl\drivers/peripheral/gpio/cy_gpio.h **** * \note 
1069:Generated_Source\PSoC6\pdl\drivers/peripheral/gpio/cy_gpio.h **** * This function has no effect for the GPIO ports, where the slew rate
1070:Generated_Source\PSoC6\pdl\drivers/peripheral/gpio/cy_gpio.h **** * configuration is not available. Refer to device datasheet for details.
1071:Generated_Source\PSoC6\pdl\drivers/peripheral/gpio/cy_gpio.h **** *
1072:Generated_Source\PSoC6\pdl\drivers/peripheral/gpio/cy_gpio.h **** * \param base
1073:Generated_Source\PSoC6\pdl\drivers/peripheral/gpio/cy_gpio.h **** * Pointer to the pin's port register base address
1074:Generated_Source\PSoC6\pdl\drivers/peripheral/gpio/cy_gpio.h **** *
1075:Generated_Source\PSoC6\pdl\drivers/peripheral/gpio/cy_gpio.h **** * \param pinNum
1076:Generated_Source\PSoC6\pdl\drivers/peripheral/gpio/cy_gpio.h **** * Position of the pin bit-field within the port register
1077:Generated_Source\PSoC6\pdl\drivers/peripheral/gpio/cy_gpio.h **** *
1078:Generated_Source\PSoC6\pdl\drivers/peripheral/gpio/cy_gpio.h **** * \param value
1079:Generated_Source\PSoC6\pdl\drivers/peripheral/gpio/cy_gpio.h **** * Pin slew rate. Options are detailed in \ref group_gpio_slewRate macros
1080:Generated_Source\PSoC6\pdl\drivers/peripheral/gpio/cy_gpio.h **** *
1081:Generated_Source\PSoC6\pdl\drivers/peripheral/gpio/cy_gpio.h **** * \note 
1082:Generated_Source\PSoC6\pdl\drivers/peripheral/gpio/cy_gpio.h **** * This function modifies a port register in a read-modify-write operation. It is
1083:Generated_Source\PSoC6\pdl\drivers/peripheral/gpio/cy_gpio.h **** * not thread safe as the resource is shared among multiple pins on a port.
1084:Generated_Source\PSoC6\pdl\drivers/peripheral/gpio/cy_gpio.h **** *
1085:Generated_Source\PSoC6\pdl\drivers/peripheral/gpio/cy_gpio.h **** * \funcusage
1086:Generated_Source\PSoC6\pdl\drivers/peripheral/gpio/cy_gpio.h **** * \snippet gpio/gpio_v1_10_sut_01.cydsn/main_cm4.c snippet_Cy_GPIO_SetSlewRate
1087:Generated_Source\PSoC6\pdl\drivers/peripheral/gpio/cy_gpio.h **** *
1088:Generated_Source\PSoC6\pdl\drivers/peripheral/gpio/cy_gpio.h **** *******************************************************************************/
1089:Generated_Source\PSoC6\pdl\drivers/peripheral/gpio/cy_gpio.h **** __STATIC_INLINE void Cy_GPIO_SetSlewRate(GPIO_PRT_Type* base, uint32_t pinNum, uint32_t value)
1090:Generated_Source\PSoC6\pdl\drivers/peripheral/gpio/cy_gpio.h **** {
1091:Generated_Source\PSoC6\pdl\drivers/peripheral/gpio/cy_gpio.h ****     uint32_t tempReg;
1092:Generated_Source\PSoC6\pdl\drivers/peripheral/gpio/cy_gpio.h **** 
1093:Generated_Source\PSoC6\pdl\drivers/peripheral/gpio/cy_gpio.h ****     CY_ASSERT_L2(CY_GPIO_IS_PIN_VALID(pinNum));
1094:Generated_Source\PSoC6\pdl\drivers/peripheral/gpio/cy_gpio.h ****     CY_ASSERT_L2(CY_GPIO_IS_VALUE_VALID(value));
1095:Generated_Source\PSoC6\pdl\drivers/peripheral/gpio/cy_gpio.h **** 
1096:Generated_Source\PSoC6\pdl\drivers/peripheral/gpio/cy_gpio.h ****     tempReg = GPIO_PRT_CFG_OUT(base) & ~(CY_GPIO_CFG_OUT_SLOW_MASK << pinNum);
1097:Generated_Source\PSoC6\pdl\drivers/peripheral/gpio/cy_gpio.h ****     GPIO_PRT_CFG_OUT(base) = tempReg | ((value & CY_GPIO_CFG_OUT_SLOW_MASK) << pinNum);
1098:Generated_Source\PSoC6\pdl\drivers/peripheral/gpio/cy_gpio.h **** }
1099:Generated_Source\PSoC6\pdl\drivers/peripheral/gpio/cy_gpio.h **** 
1100:Generated_Source\PSoC6\pdl\drivers/peripheral/gpio/cy_gpio.h **** 
1101:Generated_Source\PSoC6\pdl\drivers/peripheral/gpio/cy_gpio.h **** /*******************************************************************************
1102:Generated_Source\PSoC6\pdl\drivers/peripheral/gpio/cy_gpio.h **** * Function Name: Cy_GPIO_GetSlewRate
1103:Generated_Source\PSoC6\pdl\drivers/peripheral/gpio/cy_gpio.h **** ****************************************************************************//**
1104:Generated_Source\PSoC6\pdl\drivers/peripheral/gpio/cy_gpio.h **** *
1105:Generated_Source\PSoC6\pdl\drivers/peripheral/gpio/cy_gpio.h **** * Returns the pin output buffer slew rate.
1106:Generated_Source\PSoC6\pdl\drivers/peripheral/gpio/cy_gpio.h **** *
1107:Generated_Source\PSoC6\pdl\drivers/peripheral/gpio/cy_gpio.h **** * \param base
1108:Generated_Source\PSoC6\pdl\drivers/peripheral/gpio/cy_gpio.h **** * Pointer to the pin's port register base address
1109:Generated_Source\PSoC6\pdl\drivers/peripheral/gpio/cy_gpio.h **** *
1110:Generated_Source\PSoC6\pdl\drivers/peripheral/gpio/cy_gpio.h **** * \param pinNum
1111:Generated_Source\PSoC6\pdl\drivers/peripheral/gpio/cy_gpio.h **** * Position of the pin bit-field within the port register
1112:Generated_Source\PSoC6\pdl\drivers/peripheral/gpio/cy_gpio.h **** *
1113:Generated_Source\PSoC6\pdl\drivers/peripheral/gpio/cy_gpio.h **** * \return
1114:Generated_Source\PSoC6\pdl\drivers/peripheral/gpio/cy_gpio.h **** * Pin slew rate. Options are detailed in \ref group_gpio_slewRate macros
1115:Generated_Source\PSoC6\pdl\drivers/peripheral/gpio/cy_gpio.h **** *
1116:Generated_Source\PSoC6\pdl\drivers/peripheral/gpio/cy_gpio.h **** * \funcusage
1117:Generated_Source\PSoC6\pdl\drivers/peripheral/gpio/cy_gpio.h **** * \snippet gpio/gpio_v1_10_sut_01.cydsn/main_cm4.c snippet_Cy_GPIO_SetSlewRate
1118:Generated_Source\PSoC6\pdl\drivers/peripheral/gpio/cy_gpio.h **** *
1119:Generated_Source\PSoC6\pdl\drivers/peripheral/gpio/cy_gpio.h **** *******************************************************************************/
1120:Generated_Source\PSoC6\pdl\drivers/peripheral/gpio/cy_gpio.h **** __STATIC_INLINE uint32_t Cy_GPIO_GetSlewRate(GPIO_PRT_Type* base, uint32_t pinNum)
1121:Generated_Source\PSoC6\pdl\drivers/peripheral/gpio/cy_gpio.h **** {
1122:Generated_Source\PSoC6\pdl\drivers/peripheral/gpio/cy_gpio.h ****     CY_ASSERT_L2(CY_GPIO_IS_PIN_VALID(pinNum));
1123:Generated_Source\PSoC6\pdl\drivers/peripheral/gpio/cy_gpio.h **** 
ARM GAS  C:\Users\Mathieu\AppData\Local\Temp\ccqdbTbw.s 			page 70


1124:Generated_Source\PSoC6\pdl\drivers/peripheral/gpio/cy_gpio.h ****     return (GPIO_PRT_CFG_OUT(base) >> pinNum) & CY_GPIO_CFG_OUT_SLOW_MASK;
1125:Generated_Source\PSoC6\pdl\drivers/peripheral/gpio/cy_gpio.h **** }
1126:Generated_Source\PSoC6\pdl\drivers/peripheral/gpio/cy_gpio.h **** 
1127:Generated_Source\PSoC6\pdl\drivers/peripheral/gpio/cy_gpio.h **** 
1128:Generated_Source\PSoC6\pdl\drivers/peripheral/gpio/cy_gpio.h **** /*******************************************************************************
1129:Generated_Source\PSoC6\pdl\drivers/peripheral/gpio/cy_gpio.h **** * Function Name: Cy_GPIO_SetDriveSel
1130:Generated_Source\PSoC6\pdl\drivers/peripheral/gpio/cy_gpio.h **** ****************************************************************************//**
1131:Generated_Source\PSoC6\pdl\drivers/peripheral/gpio/cy_gpio.h **** *
1132:Generated_Source\PSoC6\pdl\drivers/peripheral/gpio/cy_gpio.h **** * Configures the pin output buffer drive strength.
1133:Generated_Source\PSoC6\pdl\drivers/peripheral/gpio/cy_gpio.h **** *
1134:Generated_Source\PSoC6\pdl\drivers/peripheral/gpio/cy_gpio.h **** * \param base
1135:Generated_Source\PSoC6\pdl\drivers/peripheral/gpio/cy_gpio.h **** * Pointer to the pin's port register base address
1136:Generated_Source\PSoC6\pdl\drivers/peripheral/gpio/cy_gpio.h **** *
1137:Generated_Source\PSoC6\pdl\drivers/peripheral/gpio/cy_gpio.h **** * \param pinNum
1138:Generated_Source\PSoC6\pdl\drivers/peripheral/gpio/cy_gpio.h **** * Position of the pin bit-field within the port register
1139:Generated_Source\PSoC6\pdl\drivers/peripheral/gpio/cy_gpio.h **** *
1140:Generated_Source\PSoC6\pdl\drivers/peripheral/gpio/cy_gpio.h **** * \param value
1141:Generated_Source\PSoC6\pdl\drivers/peripheral/gpio/cy_gpio.h **** * Pin drive strength. Options are detailed in \ref group_gpio_driveStrength macros
1142:Generated_Source\PSoC6\pdl\drivers/peripheral/gpio/cy_gpio.h **** *
1143:Generated_Source\PSoC6\pdl\drivers/peripheral/gpio/cy_gpio.h **** * \note 
1144:Generated_Source\PSoC6\pdl\drivers/peripheral/gpio/cy_gpio.h **** * This function modifies a port register in a read-modify-write operation. It is
1145:Generated_Source\PSoC6\pdl\drivers/peripheral/gpio/cy_gpio.h **** * not thread safe as the resource is shared among multiple pins on a port.
1146:Generated_Source\PSoC6\pdl\drivers/peripheral/gpio/cy_gpio.h **** *
1147:Generated_Source\PSoC6\pdl\drivers/peripheral/gpio/cy_gpio.h **** * \funcusage
1148:Generated_Source\PSoC6\pdl\drivers/peripheral/gpio/cy_gpio.h **** * \snippet gpio/gpio_v1_10_sut_01.cydsn/main_cm4.c snippet_Cy_GPIO_SetDriveSel
1149:Generated_Source\PSoC6\pdl\drivers/peripheral/gpio/cy_gpio.h **** *
1150:Generated_Source\PSoC6\pdl\drivers/peripheral/gpio/cy_gpio.h **** *******************************************************************************/
1151:Generated_Source\PSoC6\pdl\drivers/peripheral/gpio/cy_gpio.h **** __STATIC_INLINE void Cy_GPIO_SetDriveSel(GPIO_PRT_Type* base, uint32_t pinNum, uint32_t value)
1152:Generated_Source\PSoC6\pdl\drivers/peripheral/gpio/cy_gpio.h **** {
1153:Generated_Source\PSoC6\pdl\drivers/peripheral/gpio/cy_gpio.h ****     uint32_t tempReg;
1154:Generated_Source\PSoC6\pdl\drivers/peripheral/gpio/cy_gpio.h ****     uint32_t pinLoc;
1155:Generated_Source\PSoC6\pdl\drivers/peripheral/gpio/cy_gpio.h **** 
1156:Generated_Source\PSoC6\pdl\drivers/peripheral/gpio/cy_gpio.h ****     CY_ASSERT_L2(CY_GPIO_IS_PIN_VALID(pinNum));
1157:Generated_Source\PSoC6\pdl\drivers/peripheral/gpio/cy_gpio.h ****     CY_ASSERT_L2(CY_GPIO_IS_DRIVE_SEL_VALID(value));
1158:Generated_Source\PSoC6\pdl\drivers/peripheral/gpio/cy_gpio.h ****     
1159:Generated_Source\PSoC6\pdl\drivers/peripheral/gpio/cy_gpio.h ****     pinLoc = (uint32_t)(pinNum << 1u) + CY_GPIO_CFG_OUT_DRIVE_OFFSET;
1160:Generated_Source\PSoC6\pdl\drivers/peripheral/gpio/cy_gpio.h ****     tempReg = GPIO_PRT_CFG_OUT(base) & ~(CY_GPIO_CFG_OUT_DRIVE_SEL_MASK << pinLoc);
1161:Generated_Source\PSoC6\pdl\drivers/peripheral/gpio/cy_gpio.h ****     GPIO_PRT_CFG_OUT(base) = tempReg | ((value & CY_GPIO_CFG_OUT_DRIVE_SEL_MASK) << pinLoc);
1162:Generated_Source\PSoC6\pdl\drivers/peripheral/gpio/cy_gpio.h **** }
1163:Generated_Source\PSoC6\pdl\drivers/peripheral/gpio/cy_gpio.h **** 
1164:Generated_Source\PSoC6\pdl\drivers/peripheral/gpio/cy_gpio.h **** 
1165:Generated_Source\PSoC6\pdl\drivers/peripheral/gpio/cy_gpio.h **** /*******************************************************************************
1166:Generated_Source\PSoC6\pdl\drivers/peripheral/gpio/cy_gpio.h **** * Function Name: Cy_GPIO_GetDriveSel
1167:Generated_Source\PSoC6\pdl\drivers/peripheral/gpio/cy_gpio.h **** ****************************************************************************//**
1168:Generated_Source\PSoC6\pdl\drivers/peripheral/gpio/cy_gpio.h **** *
1169:Generated_Source\PSoC6\pdl\drivers/peripheral/gpio/cy_gpio.h **** * Returns the pin output buffer drive strength.
1170:Generated_Source\PSoC6\pdl\drivers/peripheral/gpio/cy_gpio.h **** *
1171:Generated_Source\PSoC6\pdl\drivers/peripheral/gpio/cy_gpio.h **** * \param base
1172:Generated_Source\PSoC6\pdl\drivers/peripheral/gpio/cy_gpio.h **** * Pointer to the pin's port register base address
1173:Generated_Source\PSoC6\pdl\drivers/peripheral/gpio/cy_gpio.h **** *
1174:Generated_Source\PSoC6\pdl\drivers/peripheral/gpio/cy_gpio.h **** * \param pinNum
1175:Generated_Source\PSoC6\pdl\drivers/peripheral/gpio/cy_gpio.h **** * Position of the pin bit-field within the port register
1176:Generated_Source\PSoC6\pdl\drivers/peripheral/gpio/cy_gpio.h **** *
1177:Generated_Source\PSoC6\pdl\drivers/peripheral/gpio/cy_gpio.h **** * \return
1178:Generated_Source\PSoC6\pdl\drivers/peripheral/gpio/cy_gpio.h **** * Pin drive strength. Options are detailed in \ref group_gpio_driveStrength macros
1179:Generated_Source\PSoC6\pdl\drivers/peripheral/gpio/cy_gpio.h **** *
1180:Generated_Source\PSoC6\pdl\drivers/peripheral/gpio/cy_gpio.h **** * \funcusage
ARM GAS  C:\Users\Mathieu\AppData\Local\Temp\ccqdbTbw.s 			page 71


1181:Generated_Source\PSoC6\pdl\drivers/peripheral/gpio/cy_gpio.h **** * \snippet gpio/gpio_v1_10_sut_01.cydsn/main_cm4.c snippet_Cy_GPIO_SetDriveSel
1182:Generated_Source\PSoC6\pdl\drivers/peripheral/gpio/cy_gpio.h **** *
1183:Generated_Source\PSoC6\pdl\drivers/peripheral/gpio/cy_gpio.h **** *******************************************************************************/
1184:Generated_Source\PSoC6\pdl\drivers/peripheral/gpio/cy_gpio.h **** __STATIC_INLINE uint32_t Cy_GPIO_GetDriveSel(GPIO_PRT_Type* base, uint32_t pinNum)
1185:Generated_Source\PSoC6\pdl\drivers/peripheral/gpio/cy_gpio.h **** {
1186:Generated_Source\PSoC6\pdl\drivers/peripheral/gpio/cy_gpio.h ****     CY_ASSERT_L2(CY_GPIO_IS_PIN_VALID(pinNum));
1187:Generated_Source\PSoC6\pdl\drivers/peripheral/gpio/cy_gpio.h **** 
1188:Generated_Source\PSoC6\pdl\drivers/peripheral/gpio/cy_gpio.h ****     return ((GPIO_PRT_CFG_OUT(base) >> ((uint32_t)(pinNum << 1u) + CY_GPIO_CFG_OUT_DRIVE_OFFSET)) 
1189:Generated_Source\PSoC6\pdl\drivers/peripheral/gpio/cy_gpio.h ****             & CY_GPIO_CFG_OUT_DRIVE_SEL_MASK);
1190:Generated_Source\PSoC6\pdl\drivers/peripheral/gpio/cy_gpio.h **** }
1191:Generated_Source\PSoC6\pdl\drivers/peripheral/gpio/cy_gpio.h **** 
1192:Generated_Source\PSoC6\pdl\drivers/peripheral/gpio/cy_gpio.h **** /** \} group_gpio_functions_gpio */
1193:Generated_Source\PSoC6\pdl\drivers/peripheral/gpio/cy_gpio.h **** 
1194:Generated_Source\PSoC6\pdl\drivers/peripheral/gpio/cy_gpio.h **** /**
1195:Generated_Source\PSoC6\pdl\drivers/peripheral/gpio/cy_gpio.h **** * \addtogroup group_gpio_functions_sio
1196:Generated_Source\PSoC6\pdl\drivers/peripheral/gpio/cy_gpio.h **** * \{
1197:Generated_Source\PSoC6\pdl\drivers/peripheral/gpio/cy_gpio.h **** */
1198:Generated_Source\PSoC6\pdl\drivers/peripheral/gpio/cy_gpio.h **** 
1199:Generated_Source\PSoC6\pdl\drivers/peripheral/gpio/cy_gpio.h **** /*******************************************************************************
1200:Generated_Source\PSoC6\pdl\drivers/peripheral/gpio/cy_gpio.h **** * Function Name: Cy_GPIO_SetVregEn
1201:Generated_Source\PSoC6\pdl\drivers/peripheral/gpio/cy_gpio.h **** ****************************************************************************//**
1202:Generated_Source\PSoC6\pdl\drivers/peripheral/gpio/cy_gpio.h **** *
1203:Generated_Source\PSoC6\pdl\drivers/peripheral/gpio/cy_gpio.h **** * Configures the SIO pin pair output buffer regulation mode.
1204:Generated_Source\PSoC6\pdl\drivers/peripheral/gpio/cy_gpio.h **** *
1205:Generated_Source\PSoC6\pdl\drivers/peripheral/gpio/cy_gpio.h **** * Note that this function has no effect on non-SIO pins.
1206:Generated_Source\PSoC6\pdl\drivers/peripheral/gpio/cy_gpio.h **** *
1207:Generated_Source\PSoC6\pdl\drivers/peripheral/gpio/cy_gpio.h **** * \param base
1208:Generated_Source\PSoC6\pdl\drivers/peripheral/gpio/cy_gpio.h **** * Pointer to the pin's port register base address
1209:Generated_Source\PSoC6\pdl\drivers/peripheral/gpio/cy_gpio.h **** *
1210:Generated_Source\PSoC6\pdl\drivers/peripheral/gpio/cy_gpio.h **** * \param pinNum
1211:Generated_Source\PSoC6\pdl\drivers/peripheral/gpio/cy_gpio.h **** * Position of the pin bit-field within the port register
1212:Generated_Source\PSoC6\pdl\drivers/peripheral/gpio/cy_gpio.h **** *
1213:Generated_Source\PSoC6\pdl\drivers/peripheral/gpio/cy_gpio.h **** * \param value
1214:Generated_Source\PSoC6\pdl\drivers/peripheral/gpio/cy_gpio.h **** * SIO pair output buffer regulator mode. Options are detailed in \ref group_gpio_sioVreg macros
1215:Generated_Source\PSoC6\pdl\drivers/peripheral/gpio/cy_gpio.h **** *
1216:Generated_Source\PSoC6\pdl\drivers/peripheral/gpio/cy_gpio.h **** * \note 
1217:Generated_Source\PSoC6\pdl\drivers/peripheral/gpio/cy_gpio.h **** * This function modifies a port register in a read-modify-write operation. It is
1218:Generated_Source\PSoC6\pdl\drivers/peripheral/gpio/cy_gpio.h **** * not thread safe as the resource is shared among multiple pins on a port.
1219:Generated_Source\PSoC6\pdl\drivers/peripheral/gpio/cy_gpio.h **** *
1220:Generated_Source\PSoC6\pdl\drivers/peripheral/gpio/cy_gpio.h **** * \funcusage
1221:Generated_Source\PSoC6\pdl\drivers/peripheral/gpio/cy_gpio.h **** * \snippet gpio/gpio_v1_10_sut_01.cydsn/main_cm4.c snippet_Cy_GPIO_SetVregEn
1222:Generated_Source\PSoC6\pdl\drivers/peripheral/gpio/cy_gpio.h **** *
1223:Generated_Source\PSoC6\pdl\drivers/peripheral/gpio/cy_gpio.h **** *******************************************************************************/
1224:Generated_Source\PSoC6\pdl\drivers/peripheral/gpio/cy_gpio.h **** __STATIC_INLINE void Cy_GPIO_SetVregEn(GPIO_PRT_Type* base, uint32_t pinNum, uint32_t value)
1225:Generated_Source\PSoC6\pdl\drivers/peripheral/gpio/cy_gpio.h **** {
1226:Generated_Source\PSoC6\pdl\drivers/peripheral/gpio/cy_gpio.h ****     uint32_t tempReg;
1227:Generated_Source\PSoC6\pdl\drivers/peripheral/gpio/cy_gpio.h ****     uint32_t pinLoc;
1228:Generated_Source\PSoC6\pdl\drivers/peripheral/gpio/cy_gpio.h **** 
1229:Generated_Source\PSoC6\pdl\drivers/peripheral/gpio/cy_gpio.h ****     CY_ASSERT_L2(CY_GPIO_IS_PIN_VALID(pinNum));
1230:Generated_Source\PSoC6\pdl\drivers/peripheral/gpio/cy_gpio.h ****     CY_ASSERT_L2(CY_GPIO_IS_VALUE_VALID(value));
1231:Generated_Source\PSoC6\pdl\drivers/peripheral/gpio/cy_gpio.h **** 
1232:Generated_Source\PSoC6\pdl\drivers/peripheral/gpio/cy_gpio.h ****     pinLoc = (pinNum & CY_GPIO_SIO_ODD_PIN_MASK) << CY_GPIO_CFG_SIO_OFFSET;
1233:Generated_Source\PSoC6\pdl\drivers/peripheral/gpio/cy_gpio.h ****     tempReg = GPIO_PRT_CFG_SIO(base) & ~(CY_GPIO_VREG_EN_MASK << pinLoc);
1234:Generated_Source\PSoC6\pdl\drivers/peripheral/gpio/cy_gpio.h ****     GPIO_PRT_CFG_SIO(base) = tempReg | ((value & CY_GPIO_VREG_EN_MASK) << pinLoc);
1235:Generated_Source\PSoC6\pdl\drivers/peripheral/gpio/cy_gpio.h **** }
1236:Generated_Source\PSoC6\pdl\drivers/peripheral/gpio/cy_gpio.h **** 
1237:Generated_Source\PSoC6\pdl\drivers/peripheral/gpio/cy_gpio.h **** 
ARM GAS  C:\Users\Mathieu\AppData\Local\Temp\ccqdbTbw.s 			page 72


1238:Generated_Source\PSoC6\pdl\drivers/peripheral/gpio/cy_gpio.h **** /*******************************************************************************
1239:Generated_Source\PSoC6\pdl\drivers/peripheral/gpio/cy_gpio.h **** * Function Name: Cy_GPIO_GetVregEn
1240:Generated_Source\PSoC6\pdl\drivers/peripheral/gpio/cy_gpio.h **** ****************************************************************************//**
1241:Generated_Source\PSoC6\pdl\drivers/peripheral/gpio/cy_gpio.h **** *
1242:Generated_Source\PSoC6\pdl\drivers/peripheral/gpio/cy_gpio.h **** * Returns the SIO pin pair output buffer regulation mode.
1243:Generated_Source\PSoC6\pdl\drivers/peripheral/gpio/cy_gpio.h **** *
1244:Generated_Source\PSoC6\pdl\drivers/peripheral/gpio/cy_gpio.h **** * Note that this function has no effect on non-SIO pins.
1245:Generated_Source\PSoC6\pdl\drivers/peripheral/gpio/cy_gpio.h **** *
1246:Generated_Source\PSoC6\pdl\drivers/peripheral/gpio/cy_gpio.h **** * \param base
1247:Generated_Source\PSoC6\pdl\drivers/peripheral/gpio/cy_gpio.h **** * Pointer to the pin's port register base address
1248:Generated_Source\PSoC6\pdl\drivers/peripheral/gpio/cy_gpio.h **** *
1249:Generated_Source\PSoC6\pdl\drivers/peripheral/gpio/cy_gpio.h **** * \param pinNum
1250:Generated_Source\PSoC6\pdl\drivers/peripheral/gpio/cy_gpio.h **** * Position of the pin bit-field within the port register
1251:Generated_Source\PSoC6\pdl\drivers/peripheral/gpio/cy_gpio.h **** *
1252:Generated_Source\PSoC6\pdl\drivers/peripheral/gpio/cy_gpio.h **** * \return
1253:Generated_Source\PSoC6\pdl\drivers/peripheral/gpio/cy_gpio.h **** * SIO pair output buffer regulator mode. Options are detailed in \ref group_gpio_sioVreg macros
1254:Generated_Source\PSoC6\pdl\drivers/peripheral/gpio/cy_gpio.h **** *
1255:Generated_Source\PSoC6\pdl\drivers/peripheral/gpio/cy_gpio.h **** * \funcusage
1256:Generated_Source\PSoC6\pdl\drivers/peripheral/gpio/cy_gpio.h **** * \snippet gpio/gpio_v1_10_sut_01.cydsn/main_cm4.c snippet_Cy_GPIO_SetVregEn
1257:Generated_Source\PSoC6\pdl\drivers/peripheral/gpio/cy_gpio.h **** *
1258:Generated_Source\PSoC6\pdl\drivers/peripheral/gpio/cy_gpio.h **** *******************************************************************************/
1259:Generated_Source\PSoC6\pdl\drivers/peripheral/gpio/cy_gpio.h **** __STATIC_INLINE uint32_t Cy_GPIO_GetVregEn(GPIO_PRT_Type* base, uint32_t pinNum)
1260:Generated_Source\PSoC6\pdl\drivers/peripheral/gpio/cy_gpio.h **** {
1261:Generated_Source\PSoC6\pdl\drivers/peripheral/gpio/cy_gpio.h ****     CY_ASSERT_L2(CY_GPIO_IS_PIN_VALID(pinNum));
1262:Generated_Source\PSoC6\pdl\drivers/peripheral/gpio/cy_gpio.h ****     
1263:Generated_Source\PSoC6\pdl\drivers/peripheral/gpio/cy_gpio.h ****     return (GPIO_PRT_CFG_SIO(base) >> ((pinNum & CY_GPIO_SIO_ODD_PIN_MASK) << CY_GPIO_CFG_SIO_OFFSE
1264:Generated_Source\PSoC6\pdl\drivers/peripheral/gpio/cy_gpio.h **** }
1265:Generated_Source\PSoC6\pdl\drivers/peripheral/gpio/cy_gpio.h **** 
1266:Generated_Source\PSoC6\pdl\drivers/peripheral/gpio/cy_gpio.h **** 
1267:Generated_Source\PSoC6\pdl\drivers/peripheral/gpio/cy_gpio.h **** /*******************************************************************************
1268:Generated_Source\PSoC6\pdl\drivers/peripheral/gpio/cy_gpio.h **** * Function Name: Cy_GPIO_SetIbufMode
1269:Generated_Source\PSoC6\pdl\drivers/peripheral/gpio/cy_gpio.h **** ****************************************************************************//**
1270:Generated_Source\PSoC6\pdl\drivers/peripheral/gpio/cy_gpio.h **** *
1271:Generated_Source\PSoC6\pdl\drivers/peripheral/gpio/cy_gpio.h **** * Configures the SIO pin pair input buffer mode.
1272:Generated_Source\PSoC6\pdl\drivers/peripheral/gpio/cy_gpio.h **** *
1273:Generated_Source\PSoC6\pdl\drivers/peripheral/gpio/cy_gpio.h **** * Note that this function has no effect on non-SIO pins.
1274:Generated_Source\PSoC6\pdl\drivers/peripheral/gpio/cy_gpio.h **** *
1275:Generated_Source\PSoC6\pdl\drivers/peripheral/gpio/cy_gpio.h **** * \param base
1276:Generated_Source\PSoC6\pdl\drivers/peripheral/gpio/cy_gpio.h **** * Pointer to the pin's port register base address
1277:Generated_Source\PSoC6\pdl\drivers/peripheral/gpio/cy_gpio.h **** *
1278:Generated_Source\PSoC6\pdl\drivers/peripheral/gpio/cy_gpio.h **** * \param pinNum
1279:Generated_Source\PSoC6\pdl\drivers/peripheral/gpio/cy_gpio.h **** * Position of the pin bit-field within the port register
1280:Generated_Source\PSoC6\pdl\drivers/peripheral/gpio/cy_gpio.h **** *
1281:Generated_Source\PSoC6\pdl\drivers/peripheral/gpio/cy_gpio.h **** * \param value
1282:Generated_Source\PSoC6\pdl\drivers/peripheral/gpio/cy_gpio.h **** * SIO pair input buffer mode. Options are detailed in \ref group_gpio_sioIbuf macros
1283:Generated_Source\PSoC6\pdl\drivers/peripheral/gpio/cy_gpio.h **** *
1284:Generated_Source\PSoC6\pdl\drivers/peripheral/gpio/cy_gpio.h **** * \note 
1285:Generated_Source\PSoC6\pdl\drivers/peripheral/gpio/cy_gpio.h **** * This function modifies a port register in a read-modify-write operation. It is
1286:Generated_Source\PSoC6\pdl\drivers/peripheral/gpio/cy_gpio.h **** * not thread safe as the resource is shared among multiple pins on a port.
1287:Generated_Source\PSoC6\pdl\drivers/peripheral/gpio/cy_gpio.h **** *
1288:Generated_Source\PSoC6\pdl\drivers/peripheral/gpio/cy_gpio.h **** * \funcusage
1289:Generated_Source\PSoC6\pdl\drivers/peripheral/gpio/cy_gpio.h **** * \snippet gpio/gpio_v1_10_sut_01.cydsn/main_cm4.c snippet_Cy_GPIO_SetIbufMode
1290:Generated_Source\PSoC6\pdl\drivers/peripheral/gpio/cy_gpio.h **** *
1291:Generated_Source\PSoC6\pdl\drivers/peripheral/gpio/cy_gpio.h **** *******************************************************************************/
1292:Generated_Source\PSoC6\pdl\drivers/peripheral/gpio/cy_gpio.h **** __STATIC_INLINE void Cy_GPIO_SetIbufMode(GPIO_PRT_Type* base, uint32_t pinNum, uint32_t value)
1293:Generated_Source\PSoC6\pdl\drivers/peripheral/gpio/cy_gpio.h **** {
1294:Generated_Source\PSoC6\pdl\drivers/peripheral/gpio/cy_gpio.h ****     uint32_t tempReg;
ARM GAS  C:\Users\Mathieu\AppData\Local\Temp\ccqdbTbw.s 			page 73


1295:Generated_Source\PSoC6\pdl\drivers/peripheral/gpio/cy_gpio.h ****     uint32_t pinLoc;
1296:Generated_Source\PSoC6\pdl\drivers/peripheral/gpio/cy_gpio.h **** 
1297:Generated_Source\PSoC6\pdl\drivers/peripheral/gpio/cy_gpio.h ****     CY_ASSERT_L2(CY_GPIO_IS_PIN_VALID(pinNum));
1298:Generated_Source\PSoC6\pdl\drivers/peripheral/gpio/cy_gpio.h ****     CY_ASSERT_L2(CY_GPIO_IS_VALUE_VALID(value));
1299:Generated_Source\PSoC6\pdl\drivers/peripheral/gpio/cy_gpio.h **** 
1300:Generated_Source\PSoC6\pdl\drivers/peripheral/gpio/cy_gpio.h ****     pinLoc = ((pinNum & CY_GPIO_SIO_ODD_PIN_MASK) << CY_GPIO_CFG_SIO_OFFSET) + CY_GPIO_IBUF_SHIFT;
1301:Generated_Source\PSoC6\pdl\drivers/peripheral/gpio/cy_gpio.h ****     tempReg = (GPIO_PRT_CFG_SIO(base) & ~(CY_GPIO_IBUF_MASK << pinLoc));
1302:Generated_Source\PSoC6\pdl\drivers/peripheral/gpio/cy_gpio.h ****     GPIO_PRT_CFG_SIO(base) = tempReg | ((value & CY_GPIO_IBUF_MASK) << pinLoc);
1303:Generated_Source\PSoC6\pdl\drivers/peripheral/gpio/cy_gpio.h **** }
1304:Generated_Source\PSoC6\pdl\drivers/peripheral/gpio/cy_gpio.h **** 
1305:Generated_Source\PSoC6\pdl\drivers/peripheral/gpio/cy_gpio.h **** 
1306:Generated_Source\PSoC6\pdl\drivers/peripheral/gpio/cy_gpio.h **** /*******************************************************************************
1307:Generated_Source\PSoC6\pdl\drivers/peripheral/gpio/cy_gpio.h **** * Function Name: Cy_GPIO_GetIbufMode
1308:Generated_Source\PSoC6\pdl\drivers/peripheral/gpio/cy_gpio.h **** ****************************************************************************//**
1309:Generated_Source\PSoC6\pdl\drivers/peripheral/gpio/cy_gpio.h **** *
1310:Generated_Source\PSoC6\pdl\drivers/peripheral/gpio/cy_gpio.h **** * Returns the SIO pin pair input buffer mode.
1311:Generated_Source\PSoC6\pdl\drivers/peripheral/gpio/cy_gpio.h **** *
1312:Generated_Source\PSoC6\pdl\drivers/peripheral/gpio/cy_gpio.h **** * Note that this function has no effect on non-SIO pins.
1313:Generated_Source\PSoC6\pdl\drivers/peripheral/gpio/cy_gpio.h **** *
1314:Generated_Source\PSoC6\pdl\drivers/peripheral/gpio/cy_gpio.h **** * \param base
1315:Generated_Source\PSoC6\pdl\drivers/peripheral/gpio/cy_gpio.h **** * Pointer to the pin's port register base address
1316:Generated_Source\PSoC6\pdl\drivers/peripheral/gpio/cy_gpio.h **** *
1317:Generated_Source\PSoC6\pdl\drivers/peripheral/gpio/cy_gpio.h **** * \param pinNum
1318:Generated_Source\PSoC6\pdl\drivers/peripheral/gpio/cy_gpio.h **** * Position of the pin bit-field within the port register
1319:Generated_Source\PSoC6\pdl\drivers/peripheral/gpio/cy_gpio.h **** *
1320:Generated_Source\PSoC6\pdl\drivers/peripheral/gpio/cy_gpio.h **** * \return
1321:Generated_Source\PSoC6\pdl\drivers/peripheral/gpio/cy_gpio.h **** * SIO pair input buffer mode. Options are detailed in \ref group_gpio_sioIbuf macros
1322:Generated_Source\PSoC6\pdl\drivers/peripheral/gpio/cy_gpio.h **** *
1323:Generated_Source\PSoC6\pdl\drivers/peripheral/gpio/cy_gpio.h **** * \funcusage
1324:Generated_Source\PSoC6\pdl\drivers/peripheral/gpio/cy_gpio.h **** * \snippet gpio/gpio_v1_10_sut_01.cydsn/main_cm4.c snippet_Cy_GPIO_SetIbufMode
1325:Generated_Source\PSoC6\pdl\drivers/peripheral/gpio/cy_gpio.h **** *
1326:Generated_Source\PSoC6\pdl\drivers/peripheral/gpio/cy_gpio.h **** *******************************************************************************/
1327:Generated_Source\PSoC6\pdl\drivers/peripheral/gpio/cy_gpio.h **** __STATIC_INLINE uint32_t Cy_GPIO_GetIbufMode(GPIO_PRT_Type* base, uint32_t pinNum)
1328:Generated_Source\PSoC6\pdl\drivers/peripheral/gpio/cy_gpio.h **** {
1329:Generated_Source\PSoC6\pdl\drivers/peripheral/gpio/cy_gpio.h ****     CY_ASSERT_L2(CY_GPIO_IS_PIN_VALID(pinNum));
1330:Generated_Source\PSoC6\pdl\drivers/peripheral/gpio/cy_gpio.h ****     
1331:Generated_Source\PSoC6\pdl\drivers/peripheral/gpio/cy_gpio.h ****     return (GPIO_PRT_CFG_SIO(base) >> (((pinNum & CY_GPIO_SIO_ODD_PIN_MASK) << CY_GPIO_CFG_SIO_OFFS
1332:Generated_Source\PSoC6\pdl\drivers/peripheral/gpio/cy_gpio.h **** }
1333:Generated_Source\PSoC6\pdl\drivers/peripheral/gpio/cy_gpio.h **** 
1334:Generated_Source\PSoC6\pdl\drivers/peripheral/gpio/cy_gpio.h **** 
1335:Generated_Source\PSoC6\pdl\drivers/peripheral/gpio/cy_gpio.h **** /*******************************************************************************
1336:Generated_Source\PSoC6\pdl\drivers/peripheral/gpio/cy_gpio.h **** * Function Name: Cy_GPIO_SetVtripSel
1337:Generated_Source\PSoC6\pdl\drivers/peripheral/gpio/cy_gpio.h **** ****************************************************************************//**
1338:Generated_Source\PSoC6\pdl\drivers/peripheral/gpio/cy_gpio.h **** *
1339:Generated_Source\PSoC6\pdl\drivers/peripheral/gpio/cy_gpio.h **** * Configures the SIO pin pair input buffer trip point.
1340:Generated_Source\PSoC6\pdl\drivers/peripheral/gpio/cy_gpio.h **** *
1341:Generated_Source\PSoC6\pdl\drivers/peripheral/gpio/cy_gpio.h **** * Note that this function has no effect on non-SIO pins.
1342:Generated_Source\PSoC6\pdl\drivers/peripheral/gpio/cy_gpio.h **** *
1343:Generated_Source\PSoC6\pdl\drivers/peripheral/gpio/cy_gpio.h **** * \param base
1344:Generated_Source\PSoC6\pdl\drivers/peripheral/gpio/cy_gpio.h **** * Pointer to the pin's port register base address
1345:Generated_Source\PSoC6\pdl\drivers/peripheral/gpio/cy_gpio.h **** *
1346:Generated_Source\PSoC6\pdl\drivers/peripheral/gpio/cy_gpio.h **** * \param pinNum
1347:Generated_Source\PSoC6\pdl\drivers/peripheral/gpio/cy_gpio.h **** * Position of the pin bit-field within the port register
1348:Generated_Source\PSoC6\pdl\drivers/peripheral/gpio/cy_gpio.h **** *
1349:Generated_Source\PSoC6\pdl\drivers/peripheral/gpio/cy_gpio.h **** * \param value
1350:Generated_Source\PSoC6\pdl\drivers/peripheral/gpio/cy_gpio.h **** * SIO pair input buffer trip point. Options are detailed in \ref group_gpio_sioVtrip macros
1351:Generated_Source\PSoC6\pdl\drivers/peripheral/gpio/cy_gpio.h **** *
ARM GAS  C:\Users\Mathieu\AppData\Local\Temp\ccqdbTbw.s 			page 74


1352:Generated_Source\PSoC6\pdl\drivers/peripheral/gpio/cy_gpio.h **** * \note 
1353:Generated_Source\PSoC6\pdl\drivers/peripheral/gpio/cy_gpio.h **** * This function modifies a port register in a read-modify-write operation. It is
1354:Generated_Source\PSoC6\pdl\drivers/peripheral/gpio/cy_gpio.h **** * not thread safe as the resource is shared among multiple pins on a port.
1355:Generated_Source\PSoC6\pdl\drivers/peripheral/gpio/cy_gpio.h **** *
1356:Generated_Source\PSoC6\pdl\drivers/peripheral/gpio/cy_gpio.h **** * \funcusage
1357:Generated_Source\PSoC6\pdl\drivers/peripheral/gpio/cy_gpio.h **** * \snippet gpio/gpio_v1_10_sut_01.cydsn/main_cm4.c snippet_Cy_GPIO_SetVtripSel
1358:Generated_Source\PSoC6\pdl\drivers/peripheral/gpio/cy_gpio.h **** *
1359:Generated_Source\PSoC6\pdl\drivers/peripheral/gpio/cy_gpio.h **** *******************************************************************************/
1360:Generated_Source\PSoC6\pdl\drivers/peripheral/gpio/cy_gpio.h **** __STATIC_INLINE void Cy_GPIO_SetVtripSel(GPIO_PRT_Type* base, uint32_t pinNum, uint32_t value)
1361:Generated_Source\PSoC6\pdl\drivers/peripheral/gpio/cy_gpio.h **** {
1362:Generated_Source\PSoC6\pdl\drivers/peripheral/gpio/cy_gpio.h ****     uint32_t tempReg;
1363:Generated_Source\PSoC6\pdl\drivers/peripheral/gpio/cy_gpio.h ****     uint32_t pinLoc;
1364:Generated_Source\PSoC6\pdl\drivers/peripheral/gpio/cy_gpio.h **** 
1365:Generated_Source\PSoC6\pdl\drivers/peripheral/gpio/cy_gpio.h ****     CY_ASSERT_L2(CY_GPIO_IS_PIN_VALID(pinNum));
1366:Generated_Source\PSoC6\pdl\drivers/peripheral/gpio/cy_gpio.h ****     CY_ASSERT_L2(CY_GPIO_IS_VALUE_VALID(value));
1367:Generated_Source\PSoC6\pdl\drivers/peripheral/gpio/cy_gpio.h **** 
1368:Generated_Source\PSoC6\pdl\drivers/peripheral/gpio/cy_gpio.h ****     pinLoc = ((pinNum & CY_GPIO_SIO_ODD_PIN_MASK) << CY_GPIO_CFG_SIO_OFFSET) + CY_GPIO_VTRIP_SEL_SH
1369:Generated_Source\PSoC6\pdl\drivers/peripheral/gpio/cy_gpio.h ****     tempReg = (GPIO_PRT_CFG_SIO(base) & ~(CY_GPIO_VTRIP_SEL_MASK << pinLoc));
1370:Generated_Source\PSoC6\pdl\drivers/peripheral/gpio/cy_gpio.h ****     GPIO_PRT_CFG_SIO(base) = tempReg | ((value & CY_GPIO_VTRIP_SEL_MASK) << pinLoc);
1371:Generated_Source\PSoC6\pdl\drivers/peripheral/gpio/cy_gpio.h **** }
1372:Generated_Source\PSoC6\pdl\drivers/peripheral/gpio/cy_gpio.h **** 
1373:Generated_Source\PSoC6\pdl\drivers/peripheral/gpio/cy_gpio.h **** 
1374:Generated_Source\PSoC6\pdl\drivers/peripheral/gpio/cy_gpio.h **** /*******************************************************************************
1375:Generated_Source\PSoC6\pdl\drivers/peripheral/gpio/cy_gpio.h **** * Function Name: Cy_GPIO_GetVtripSel
1376:Generated_Source\PSoC6\pdl\drivers/peripheral/gpio/cy_gpio.h **** ****************************************************************************//**
1377:Generated_Source\PSoC6\pdl\drivers/peripheral/gpio/cy_gpio.h **** *
1378:Generated_Source\PSoC6\pdl\drivers/peripheral/gpio/cy_gpio.h **** * Returns the SIO pin pair input buffer trip point.
1379:Generated_Source\PSoC6\pdl\drivers/peripheral/gpio/cy_gpio.h **** *
1380:Generated_Source\PSoC6\pdl\drivers/peripheral/gpio/cy_gpio.h **** * Note that this function has no effect on non-SIO pins.
1381:Generated_Source\PSoC6\pdl\drivers/peripheral/gpio/cy_gpio.h **** *
1382:Generated_Source\PSoC6\pdl\drivers/peripheral/gpio/cy_gpio.h **** * \param base
1383:Generated_Source\PSoC6\pdl\drivers/peripheral/gpio/cy_gpio.h **** * Pointer to the pin's port register base address
1384:Generated_Source\PSoC6\pdl\drivers/peripheral/gpio/cy_gpio.h **** *
1385:Generated_Source\PSoC6\pdl\drivers/peripheral/gpio/cy_gpio.h **** * \param pinNum
1386:Generated_Source\PSoC6\pdl\drivers/peripheral/gpio/cy_gpio.h **** * Position of the pin bit-field within the port register
1387:Generated_Source\PSoC6\pdl\drivers/peripheral/gpio/cy_gpio.h **** *
1388:Generated_Source\PSoC6\pdl\drivers/peripheral/gpio/cy_gpio.h **** * \return
1389:Generated_Source\PSoC6\pdl\drivers/peripheral/gpio/cy_gpio.h **** * SIO pair input buffer trip point. Options are detailed in \ref group_gpio_sioVtrip macros
1390:Generated_Source\PSoC6\pdl\drivers/peripheral/gpio/cy_gpio.h **** *
1391:Generated_Source\PSoC6\pdl\drivers/peripheral/gpio/cy_gpio.h **** * \funcusage
1392:Generated_Source\PSoC6\pdl\drivers/peripheral/gpio/cy_gpio.h **** * \snippet gpio/gpio_v1_10_sut_01.cydsn/main_cm4.c snippet_Cy_GPIO_SetVtripSel
1393:Generated_Source\PSoC6\pdl\drivers/peripheral/gpio/cy_gpio.h **** *
1394:Generated_Source\PSoC6\pdl\drivers/peripheral/gpio/cy_gpio.h **** *******************************************************************************/
1395:Generated_Source\PSoC6\pdl\drivers/peripheral/gpio/cy_gpio.h **** __STATIC_INLINE uint32_t Cy_GPIO_GetVtripSel(GPIO_PRT_Type* base, uint32_t pinNum)
1396:Generated_Source\PSoC6\pdl\drivers/peripheral/gpio/cy_gpio.h **** {
1397:Generated_Source\PSoC6\pdl\drivers/peripheral/gpio/cy_gpio.h ****     CY_ASSERT_L2(CY_GPIO_IS_PIN_VALID(pinNum));
1398:Generated_Source\PSoC6\pdl\drivers/peripheral/gpio/cy_gpio.h **** 
1399:Generated_Source\PSoC6\pdl\drivers/peripheral/gpio/cy_gpio.h ****     return (GPIO_PRT_CFG_SIO(base) >> (((pinNum & CY_GPIO_SIO_ODD_PIN_MASK) << CY_GPIO_CFG_SIO_OFFS
1400:Generated_Source\PSoC6\pdl\drivers/peripheral/gpio/cy_gpio.h **** }
1401:Generated_Source\PSoC6\pdl\drivers/peripheral/gpio/cy_gpio.h **** 
1402:Generated_Source\PSoC6\pdl\drivers/peripheral/gpio/cy_gpio.h **** 
1403:Generated_Source\PSoC6\pdl\drivers/peripheral/gpio/cy_gpio.h **** /*******************************************************************************
1404:Generated_Source\PSoC6\pdl\drivers/peripheral/gpio/cy_gpio.h **** * Function Name: Cy_GPIO_SetVrefSel
1405:Generated_Source\PSoC6\pdl\drivers/peripheral/gpio/cy_gpio.h **** ****************************************************************************//**
1406:Generated_Source\PSoC6\pdl\drivers/peripheral/gpio/cy_gpio.h **** *
1407:Generated_Source\PSoC6\pdl\drivers/peripheral/gpio/cy_gpio.h **** * Configures the SIO reference voltage for the input buffer trip point.
1408:Generated_Source\PSoC6\pdl\drivers/peripheral/gpio/cy_gpio.h **** *
ARM GAS  C:\Users\Mathieu\AppData\Local\Temp\ccqdbTbw.s 			page 75


1409:Generated_Source\PSoC6\pdl\drivers/peripheral/gpio/cy_gpio.h **** * Note that this function has no effect on non-SIO pins.
1410:Generated_Source\PSoC6\pdl\drivers/peripheral/gpio/cy_gpio.h **** *
1411:Generated_Source\PSoC6\pdl\drivers/peripheral/gpio/cy_gpio.h **** * \param base
1412:Generated_Source\PSoC6\pdl\drivers/peripheral/gpio/cy_gpio.h **** * Pointer to the pin's port register base address
1413:Generated_Source\PSoC6\pdl\drivers/peripheral/gpio/cy_gpio.h **** *
1414:Generated_Source\PSoC6\pdl\drivers/peripheral/gpio/cy_gpio.h **** * \param pinNum
1415:Generated_Source\PSoC6\pdl\drivers/peripheral/gpio/cy_gpio.h **** * Position of the pin bit-field within the port register
1416:Generated_Source\PSoC6\pdl\drivers/peripheral/gpio/cy_gpio.h **** *
1417:Generated_Source\PSoC6\pdl\drivers/peripheral/gpio/cy_gpio.h **** * \param value
1418:Generated_Source\PSoC6\pdl\drivers/peripheral/gpio/cy_gpio.h **** * SIO pair reference voltage. Options are detailed in \ref group_gpio_sioVref macros
1419:Generated_Source\PSoC6\pdl\drivers/peripheral/gpio/cy_gpio.h **** *
1420:Generated_Source\PSoC6\pdl\drivers/peripheral/gpio/cy_gpio.h **** * \note 
1421:Generated_Source\PSoC6\pdl\drivers/peripheral/gpio/cy_gpio.h **** * This function modifies a port register in a read-modify-write operation. It is
1422:Generated_Source\PSoC6\pdl\drivers/peripheral/gpio/cy_gpio.h **** * not thread safe as the resource is shared among multiple pins on a port.
1423:Generated_Source\PSoC6\pdl\drivers/peripheral/gpio/cy_gpio.h **** *
1424:Generated_Source\PSoC6\pdl\drivers/peripheral/gpio/cy_gpio.h **** * \funcusage
1425:Generated_Source\PSoC6\pdl\drivers/peripheral/gpio/cy_gpio.h **** * \snippet gpio/gpio_v1_10_sut_01.cydsn/main_cm4.c snippet_Cy_GPIO_SetVrefSel
1426:Generated_Source\PSoC6\pdl\drivers/peripheral/gpio/cy_gpio.h **** *
1427:Generated_Source\PSoC6\pdl\drivers/peripheral/gpio/cy_gpio.h **** *******************************************************************************/
1428:Generated_Source\PSoC6\pdl\drivers/peripheral/gpio/cy_gpio.h **** __STATIC_INLINE void Cy_GPIO_SetVrefSel(GPIO_PRT_Type* base, uint32_t pinNum, uint32_t value)
1429:Generated_Source\PSoC6\pdl\drivers/peripheral/gpio/cy_gpio.h **** {
1430:Generated_Source\PSoC6\pdl\drivers/peripheral/gpio/cy_gpio.h ****     uint32_t tempReg;
1431:Generated_Source\PSoC6\pdl\drivers/peripheral/gpio/cy_gpio.h ****     uint32_t pinLoc;
1432:Generated_Source\PSoC6\pdl\drivers/peripheral/gpio/cy_gpio.h **** 
1433:Generated_Source\PSoC6\pdl\drivers/peripheral/gpio/cy_gpio.h ****     CY_ASSERT_L2(CY_GPIO_IS_PIN_VALID(pinNum));
1434:Generated_Source\PSoC6\pdl\drivers/peripheral/gpio/cy_gpio.h ****     CY_ASSERT_L2(CY_GPIO_IS_VREF_SEL_VALID(value));
1435:Generated_Source\PSoC6\pdl\drivers/peripheral/gpio/cy_gpio.h ****     
1436:Generated_Source\PSoC6\pdl\drivers/peripheral/gpio/cy_gpio.h ****     pinLoc = ((pinNum & CY_GPIO_SIO_ODD_PIN_MASK) << CY_GPIO_CFG_SIO_OFFSET) + CY_GPIO_VREF_SEL_SHI
1437:Generated_Source\PSoC6\pdl\drivers/peripheral/gpio/cy_gpio.h ****     tempReg = (GPIO_PRT_CFG_SIO(base) & ~(CY_GPIO_VREF_SEL_MASK << pinLoc));
1438:Generated_Source\PSoC6\pdl\drivers/peripheral/gpio/cy_gpio.h ****     GPIO_PRT_CFG_SIO(base) = tempReg | ((value & CY_GPIO_VREF_SEL_MASK) << pinLoc);
1439:Generated_Source\PSoC6\pdl\drivers/peripheral/gpio/cy_gpio.h **** }
1440:Generated_Source\PSoC6\pdl\drivers/peripheral/gpio/cy_gpio.h **** 
1441:Generated_Source\PSoC6\pdl\drivers/peripheral/gpio/cy_gpio.h **** 
1442:Generated_Source\PSoC6\pdl\drivers/peripheral/gpio/cy_gpio.h **** /*******************************************************************************
1443:Generated_Source\PSoC6\pdl\drivers/peripheral/gpio/cy_gpio.h **** * Function Name: Cy_GPIO_GetVrefSel
1444:Generated_Source\PSoC6\pdl\drivers/peripheral/gpio/cy_gpio.h **** ****************************************************************************//**
1445:Generated_Source\PSoC6\pdl\drivers/peripheral/gpio/cy_gpio.h **** *
1446:Generated_Source\PSoC6\pdl\drivers/peripheral/gpio/cy_gpio.h **** * Returns the SIO reference voltage for the input buffer trip point.
1447:Generated_Source\PSoC6\pdl\drivers/peripheral/gpio/cy_gpio.h **** *
1448:Generated_Source\PSoC6\pdl\drivers/peripheral/gpio/cy_gpio.h **** * Note that this function has no effect on non-SIO pins.
1449:Generated_Source\PSoC6\pdl\drivers/peripheral/gpio/cy_gpio.h **** *
1450:Generated_Source\PSoC6\pdl\drivers/peripheral/gpio/cy_gpio.h **** * \param base
1451:Generated_Source\PSoC6\pdl\drivers/peripheral/gpio/cy_gpio.h **** * Pointer to the pin's port register base address
1452:Generated_Source\PSoC6\pdl\drivers/peripheral/gpio/cy_gpio.h **** *
1453:Generated_Source\PSoC6\pdl\drivers/peripheral/gpio/cy_gpio.h **** * \param pinNum
1454:Generated_Source\PSoC6\pdl\drivers/peripheral/gpio/cy_gpio.h **** * Position of the pin bit-field within the port register
1455:Generated_Source\PSoC6\pdl\drivers/peripheral/gpio/cy_gpio.h **** *
1456:Generated_Source\PSoC6\pdl\drivers/peripheral/gpio/cy_gpio.h **** * \return
1457:Generated_Source\PSoC6\pdl\drivers/peripheral/gpio/cy_gpio.h **** * SIO pair reference voltage. Options are detailed in \ref group_gpio_sioVref macros
1458:Generated_Source\PSoC6\pdl\drivers/peripheral/gpio/cy_gpio.h **** *
1459:Generated_Source\PSoC6\pdl\drivers/peripheral/gpio/cy_gpio.h **** * \funcusage
1460:Generated_Source\PSoC6\pdl\drivers/peripheral/gpio/cy_gpio.h **** * \snippet gpio/gpio_v1_10_sut_01.cydsn/main_cm4.c snippet_Cy_GPIO_SetVrefSel
1461:Generated_Source\PSoC6\pdl\drivers/peripheral/gpio/cy_gpio.h **** *
1462:Generated_Source\PSoC6\pdl\drivers/peripheral/gpio/cy_gpio.h **** *******************************************************************************/
1463:Generated_Source\PSoC6\pdl\drivers/peripheral/gpio/cy_gpio.h **** __STATIC_INLINE uint32_t Cy_GPIO_GetVrefSel(GPIO_PRT_Type* base, uint32_t pinNum)
1464:Generated_Source\PSoC6\pdl\drivers/peripheral/gpio/cy_gpio.h **** {
1465:Generated_Source\PSoC6\pdl\drivers/peripheral/gpio/cy_gpio.h ****     CY_ASSERT_L2(CY_GPIO_IS_PIN_VALID(pinNum));
ARM GAS  C:\Users\Mathieu\AppData\Local\Temp\ccqdbTbw.s 			page 76


1466:Generated_Source\PSoC6\pdl\drivers/peripheral/gpio/cy_gpio.h ****     
1467:Generated_Source\PSoC6\pdl\drivers/peripheral/gpio/cy_gpio.h ****     return (GPIO_PRT_CFG_SIO(base) >> (((pinNum & CY_GPIO_SIO_ODD_PIN_MASK) << CY_GPIO_CFG_SIO_OFFS
1468:Generated_Source\PSoC6\pdl\drivers/peripheral/gpio/cy_gpio.h **** }
1469:Generated_Source\PSoC6\pdl\drivers/peripheral/gpio/cy_gpio.h **** 
1470:Generated_Source\PSoC6\pdl\drivers/peripheral/gpio/cy_gpio.h **** 
1471:Generated_Source\PSoC6\pdl\drivers/peripheral/gpio/cy_gpio.h **** /*******************************************************************************
1472:Generated_Source\PSoC6\pdl\drivers/peripheral/gpio/cy_gpio.h **** * Function Name: Cy_GPIO_SetVohSel
1473:Generated_Source\PSoC6\pdl\drivers/peripheral/gpio/cy_gpio.h **** ****************************************************************************//**
1474:Generated_Source\PSoC6\pdl\drivers/peripheral/gpio/cy_gpio.h **** *
1475:Generated_Source\PSoC6\pdl\drivers/peripheral/gpio/cy_gpio.h **** * Configures the regulated output reference multiplier for the SIO pin pair.
1476:Generated_Source\PSoC6\pdl\drivers/peripheral/gpio/cy_gpio.h **** *
1477:Generated_Source\PSoC6\pdl\drivers/peripheral/gpio/cy_gpio.h **** * The regulated output reference controls both the output level of digital output
1478:Generated_Source\PSoC6\pdl\drivers/peripheral/gpio/cy_gpio.h **** * pin and the input trip point of digital input pin in the SIO pair.
1479:Generated_Source\PSoC6\pdl\drivers/peripheral/gpio/cy_gpio.h **** *
1480:Generated_Source\PSoC6\pdl\drivers/peripheral/gpio/cy_gpio.h **** * Note that this function has no effect on non-SIO pins.
1481:Generated_Source\PSoC6\pdl\drivers/peripheral/gpio/cy_gpio.h **** *
1482:Generated_Source\PSoC6\pdl\drivers/peripheral/gpio/cy_gpio.h **** * \param base
1483:Generated_Source\PSoC6\pdl\drivers/peripheral/gpio/cy_gpio.h **** * Pointer to the pin's port register base address
1484:Generated_Source\PSoC6\pdl\drivers/peripheral/gpio/cy_gpio.h **** *
1485:Generated_Source\PSoC6\pdl\drivers/peripheral/gpio/cy_gpio.h **** * \param pinNum
1486:Generated_Source\PSoC6\pdl\drivers/peripheral/gpio/cy_gpio.h **** * Position of the pin bit-field within the port register
1487:Generated_Source\PSoC6\pdl\drivers/peripheral/gpio/cy_gpio.h **** *
1488:Generated_Source\PSoC6\pdl\drivers/peripheral/gpio/cy_gpio.h **** * \param value
1489:Generated_Source\PSoC6\pdl\drivers/peripheral/gpio/cy_gpio.h **** * SIO pair reference voltage. Options are detailed in \ref group_gpio_sioVoh macros
1490:Generated_Source\PSoC6\pdl\drivers/peripheral/gpio/cy_gpio.h **** *
1491:Generated_Source\PSoC6\pdl\drivers/peripheral/gpio/cy_gpio.h **** * \note 
1492:Generated_Source\PSoC6\pdl\drivers/peripheral/gpio/cy_gpio.h **** * This function modifies a port register in a read-modify-write operation. It is
1493:Generated_Source\PSoC6\pdl\drivers/peripheral/gpio/cy_gpio.h **** * not thread safe as the resource is shared among multiple pins on a port.
1494:Generated_Source\PSoC6\pdl\drivers/peripheral/gpio/cy_gpio.h **** *
1495:Generated_Source\PSoC6\pdl\drivers/peripheral/gpio/cy_gpio.h **** * \funcusage
1496:Generated_Source\PSoC6\pdl\drivers/peripheral/gpio/cy_gpio.h **** * \snippet gpio/gpio_v1_10_sut_01.cydsn/main_cm4.c snippet_Cy_GPIO_SetVohSel
1497:Generated_Source\PSoC6\pdl\drivers/peripheral/gpio/cy_gpio.h **** *
1498:Generated_Source\PSoC6\pdl\drivers/peripheral/gpio/cy_gpio.h **** *******************************************************************************/
1499:Generated_Source\PSoC6\pdl\drivers/peripheral/gpio/cy_gpio.h **** __STATIC_INLINE void Cy_GPIO_SetVohSel(GPIO_PRT_Type* base, uint32_t pinNum, uint32_t value)
1500:Generated_Source\PSoC6\pdl\drivers/peripheral/gpio/cy_gpio.h **** {
1501:Generated_Source\PSoC6\pdl\drivers/peripheral/gpio/cy_gpio.h ****     uint32_t tempReg;
1502:Generated_Source\PSoC6\pdl\drivers/peripheral/gpio/cy_gpio.h ****     uint32_t pinLoc;
1503:Generated_Source\PSoC6\pdl\drivers/peripheral/gpio/cy_gpio.h **** 
1504:Generated_Source\PSoC6\pdl\drivers/peripheral/gpio/cy_gpio.h ****     CY_ASSERT_L2(CY_GPIO_IS_PIN_VALID(pinNum));
1505:Generated_Source\PSoC6\pdl\drivers/peripheral/gpio/cy_gpio.h ****     CY_ASSERT_L2(CY_GPIO_IS_VOH_SEL_VALID(value));
1506:Generated_Source\PSoC6\pdl\drivers/peripheral/gpio/cy_gpio.h **** 
1507:Generated_Source\PSoC6\pdl\drivers/peripheral/gpio/cy_gpio.h ****     pinLoc = ((pinNum & CY_GPIO_SIO_ODD_PIN_MASK) << CY_GPIO_CFG_SIO_OFFSET) + CY_GPIO_VOH_SEL_SHIF
1508:Generated_Source\PSoC6\pdl\drivers/peripheral/gpio/cy_gpio.h ****     tempReg = (GPIO_PRT_CFG_SIO(base) & ~(CY_GPIO_VOH_SEL_MASK << pinLoc));
1509:Generated_Source\PSoC6\pdl\drivers/peripheral/gpio/cy_gpio.h ****     GPIO_PRT_CFG_SIO(base) = tempReg | ((value & CY_GPIO_VOH_SEL_MASK) << pinLoc);
1510:Generated_Source\PSoC6\pdl\drivers/peripheral/gpio/cy_gpio.h **** }
1511:Generated_Source\PSoC6\pdl\drivers/peripheral/gpio/cy_gpio.h **** 
1512:Generated_Source\PSoC6\pdl\drivers/peripheral/gpio/cy_gpio.h **** 
1513:Generated_Source\PSoC6\pdl\drivers/peripheral/gpio/cy_gpio.h **** /*******************************************************************************
1514:Generated_Source\PSoC6\pdl\drivers/peripheral/gpio/cy_gpio.h **** * Function Name: Cy_GPIO_GetVohSel
1515:Generated_Source\PSoC6\pdl\drivers/peripheral/gpio/cy_gpio.h **** ****************************************************************************//**
1516:Generated_Source\PSoC6\pdl\drivers/peripheral/gpio/cy_gpio.h **** *
1517:Generated_Source\PSoC6\pdl\drivers/peripheral/gpio/cy_gpio.h **** * Returns the regulated output reference multiplier for the SIO pin pair.
1518:Generated_Source\PSoC6\pdl\drivers/peripheral/gpio/cy_gpio.h **** *
1519:Generated_Source\PSoC6\pdl\drivers/peripheral/gpio/cy_gpio.h **** * Note that this function has no effect on non-SIO pins.
1520:Generated_Source\PSoC6\pdl\drivers/peripheral/gpio/cy_gpio.h **** *
1521:Generated_Source\PSoC6\pdl\drivers/peripheral/gpio/cy_gpio.h **** * \param base
1522:Generated_Source\PSoC6\pdl\drivers/peripheral/gpio/cy_gpio.h **** * Pointer to the pin's port register base address
ARM GAS  C:\Users\Mathieu\AppData\Local\Temp\ccqdbTbw.s 			page 77


1523:Generated_Source\PSoC6\pdl\drivers/peripheral/gpio/cy_gpio.h **** *
1524:Generated_Source\PSoC6\pdl\drivers/peripheral/gpio/cy_gpio.h **** * \param pinNum
1525:Generated_Source\PSoC6\pdl\drivers/peripheral/gpio/cy_gpio.h **** * Position of the pin bit-field within the port register
1526:Generated_Source\PSoC6\pdl\drivers/peripheral/gpio/cy_gpio.h **** *
1527:Generated_Source\PSoC6\pdl\drivers/peripheral/gpio/cy_gpio.h **** * \return
1528:Generated_Source\PSoC6\pdl\drivers/peripheral/gpio/cy_gpio.h **** * SIO pair reference voltage. Options are detailed in \ref group_gpio_sioVoh macros
1529:Generated_Source\PSoC6\pdl\drivers/peripheral/gpio/cy_gpio.h **** *
1530:Generated_Source\PSoC6\pdl\drivers/peripheral/gpio/cy_gpio.h **** * \funcusage
1531:Generated_Source\PSoC6\pdl\drivers/peripheral/gpio/cy_gpio.h **** * \snippet gpio/gpio_v1_10_sut_01.cydsn/main_cm4.c snippet_Cy_GPIO_SetVohSel
1532:Generated_Source\PSoC6\pdl\drivers/peripheral/gpio/cy_gpio.h **** *
1533:Generated_Source\PSoC6\pdl\drivers/peripheral/gpio/cy_gpio.h **** *******************************************************************************/
1534:Generated_Source\PSoC6\pdl\drivers/peripheral/gpio/cy_gpio.h **** __STATIC_INLINE uint32_t Cy_GPIO_GetVohSel(GPIO_PRT_Type* base, uint32_t pinNum)
1535:Generated_Source\PSoC6\pdl\drivers/peripheral/gpio/cy_gpio.h **** {
1536:Generated_Source\PSoC6\pdl\drivers/peripheral/gpio/cy_gpio.h ****     CY_ASSERT_L2(CY_GPIO_IS_PIN_VALID(pinNum));
1537:Generated_Source\PSoC6\pdl\drivers/peripheral/gpio/cy_gpio.h ****     
1538:Generated_Source\PSoC6\pdl\drivers/peripheral/gpio/cy_gpio.h ****     return (GPIO_PRT_CFG_SIO(base) >> (((pinNum & CY_GPIO_SIO_ODD_PIN_MASK) << CY_GPIO_CFG_SIO_OFFS
1539:Generated_Source\PSoC6\pdl\drivers/peripheral/gpio/cy_gpio.h **** }
1540:Generated_Source\PSoC6\pdl\drivers/peripheral/gpio/cy_gpio.h **** 
1541:Generated_Source\PSoC6\pdl\drivers/peripheral/gpio/cy_gpio.h **** /** \} group_gpio_functions_sio */
1542:Generated_Source\PSoC6\pdl\drivers/peripheral/gpio/cy_gpio.h **** 
1543:Generated_Source\PSoC6\pdl\drivers/peripheral/gpio/cy_gpio.h **** /**
1544:Generated_Source\PSoC6\pdl\drivers/peripheral/gpio/cy_gpio.h **** * \addtogroup group_gpio_functions_interrupt
1545:Generated_Source\PSoC6\pdl\drivers/peripheral/gpio/cy_gpio.h **** * \{
1546:Generated_Source\PSoC6\pdl\drivers/peripheral/gpio/cy_gpio.h **** */
1547:Generated_Source\PSoC6\pdl\drivers/peripheral/gpio/cy_gpio.h **** 
1548:Generated_Source\PSoC6\pdl\drivers/peripheral/gpio/cy_gpio.h **** /*******************************************************************************
1549:Generated_Source\PSoC6\pdl\drivers/peripheral/gpio/cy_gpio.h **** * Function Name: Cy_GPIO_GetInterruptStatus
1550:Generated_Source\PSoC6\pdl\drivers/peripheral/gpio/cy_gpio.h **** ****************************************************************************//**
1551:Generated_Source\PSoC6\pdl\drivers/peripheral/gpio/cy_gpio.h **** *
1552:Generated_Source\PSoC6\pdl\drivers/peripheral/gpio/cy_gpio.h **** * Returns the current unmasked interrupt state of the pin.
1553:Generated_Source\PSoC6\pdl\drivers/peripheral/gpio/cy_gpio.h **** *
1554:Generated_Source\PSoC6\pdl\drivers/peripheral/gpio/cy_gpio.h **** * The core processor's NVIC is triggered by the masked interrupt bits. This 
1555:Generated_Source\PSoC6\pdl\drivers/peripheral/gpio/cy_gpio.h **** * function allows reading the unmasked interrupt state. Whether the bit
1556:Generated_Source\PSoC6\pdl\drivers/peripheral/gpio/cy_gpio.h **** * positions actually trigger the interrupt are defined by the interrupt mask bits.
1557:Generated_Source\PSoC6\pdl\drivers/peripheral/gpio/cy_gpio.h **** *
1558:Generated_Source\PSoC6\pdl\drivers/peripheral/gpio/cy_gpio.h **** * \param base
1559:Generated_Source\PSoC6\pdl\drivers/peripheral/gpio/cy_gpio.h **** * Pointer to the pin's port register base address
1560:Generated_Source\PSoC6\pdl\drivers/peripheral/gpio/cy_gpio.h **** *
1561:Generated_Source\PSoC6\pdl\drivers/peripheral/gpio/cy_gpio.h **** * \param pinNum
1562:Generated_Source\PSoC6\pdl\drivers/peripheral/gpio/cy_gpio.h **** * Position of the pin bit-field within the port register
1563:Generated_Source\PSoC6\pdl\drivers/peripheral/gpio/cy_gpio.h **** * Bit position 8 is the routed pin through the port glitch filter.
1564:Generated_Source\PSoC6\pdl\drivers/peripheral/gpio/cy_gpio.h **** *
1565:Generated_Source\PSoC6\pdl\drivers/peripheral/gpio/cy_gpio.h **** * \return
1566:Generated_Source\PSoC6\pdl\drivers/peripheral/gpio/cy_gpio.h **** * 0 = Pin interrupt condition not detected
1567:Generated_Source\PSoC6\pdl\drivers/peripheral/gpio/cy_gpio.h **** * 1 = Pin interrupt condition detected
1568:Generated_Source\PSoC6\pdl\drivers/peripheral/gpio/cy_gpio.h **** *
1569:Generated_Source\PSoC6\pdl\drivers/peripheral/gpio/cy_gpio.h **** * \funcusage
1570:Generated_Source\PSoC6\pdl\drivers/peripheral/gpio/cy_gpio.h **** * \snippet gpio/gpio_v1_10_sut_01.cydsn/main_cm4.c snippet_Cy_GPIO_GetInterruptStatus
1571:Generated_Source\PSoC6\pdl\drivers/peripheral/gpio/cy_gpio.h **** *
1572:Generated_Source\PSoC6\pdl\drivers/peripheral/gpio/cy_gpio.h **** *******************************************************************************/
1573:Generated_Source\PSoC6\pdl\drivers/peripheral/gpio/cy_gpio.h **** __STATIC_INLINE uint32_t Cy_GPIO_GetInterruptStatus(GPIO_PRT_Type* base, uint32_t pinNum)
1574:Generated_Source\PSoC6\pdl\drivers/peripheral/gpio/cy_gpio.h **** {
1575:Generated_Source\PSoC6\pdl\drivers/peripheral/gpio/cy_gpio.h ****     CY_ASSERT_L2(CY_GPIO_IS_FILTER_PIN_VALID(pinNum));
1576:Generated_Source\PSoC6\pdl\drivers/peripheral/gpio/cy_gpio.h ****     
1577:Generated_Source\PSoC6\pdl\drivers/peripheral/gpio/cy_gpio.h ****     return (GPIO_PRT_INTR(base) >> pinNum) & CY_GPIO_INTR_STATUS_MASK;
1578:Generated_Source\PSoC6\pdl\drivers/peripheral/gpio/cy_gpio.h **** }
1579:Generated_Source\PSoC6\pdl\drivers/peripheral/gpio/cy_gpio.h **** 
ARM GAS  C:\Users\Mathieu\AppData\Local\Temp\ccqdbTbw.s 			page 78


1580:Generated_Source\PSoC6\pdl\drivers/peripheral/gpio/cy_gpio.h **** 
1581:Generated_Source\PSoC6\pdl\drivers/peripheral/gpio/cy_gpio.h **** /*******************************************************************************
1582:Generated_Source\PSoC6\pdl\drivers/peripheral/gpio/cy_gpio.h **** * Function Name: Cy_GPIO_ClearInterrupt
1583:Generated_Source\PSoC6\pdl\drivers/peripheral/gpio/cy_gpio.h **** ****************************************************************************//**
1584:Generated_Source\PSoC6\pdl\drivers/peripheral/gpio/cy_gpio.h **** *
1585:Generated_Source\PSoC6\pdl\drivers/peripheral/gpio/cy_gpio.h **** * Clears the triggered pin interrupt.
1586:Generated_Source\PSoC6\pdl\drivers/peripheral/gpio/cy_gpio.h **** *
1587:Generated_Source\PSoC6\pdl\drivers/peripheral/gpio/cy_gpio.h **** * \param base
1588:Generated_Source\PSoC6\pdl\drivers/peripheral/gpio/cy_gpio.h **** * Pointer to the pin's port register base address
1589:Generated_Source\PSoC6\pdl\drivers/peripheral/gpio/cy_gpio.h **** *
1590:Generated_Source\PSoC6\pdl\drivers/peripheral/gpio/cy_gpio.h **** * \param pinNum
1591:Generated_Source\PSoC6\pdl\drivers/peripheral/gpio/cy_gpio.h **** * Position of the pin bit-field within the port register
1592:Generated_Source\PSoC6\pdl\drivers/peripheral/gpio/cy_gpio.h **** * Bit position 8 is the routed pin through the port glitch filter.
1593:Generated_Source\PSoC6\pdl\drivers/peripheral/gpio/cy_gpio.h **** *
1594:Generated_Source\PSoC6\pdl\drivers/peripheral/gpio/cy_gpio.h **** * \funcusage
1595:Generated_Source\PSoC6\pdl\drivers/peripheral/gpio/cy_gpio.h **** * \snippet gpio/gpio_v1_10_sut_01.cydsn/main_cm4.c snippet_Cy_GPIO_ClearInterrupt
1596:Generated_Source\PSoC6\pdl\drivers/peripheral/gpio/cy_gpio.h **** *
1597:Generated_Source\PSoC6\pdl\drivers/peripheral/gpio/cy_gpio.h **** *******************************************************************************/
1598:Generated_Source\PSoC6\pdl\drivers/peripheral/gpio/cy_gpio.h **** __STATIC_INLINE void Cy_GPIO_ClearInterrupt(GPIO_PRT_Type* base, uint32_t pinNum)
1599:Generated_Source\PSoC6\pdl\drivers/peripheral/gpio/cy_gpio.h **** {
1600:Generated_Source\PSoC6\pdl\drivers/peripheral/gpio/cy_gpio.h ****     CY_ASSERT_L2(CY_GPIO_IS_FILTER_PIN_VALID(pinNum));
1601:Generated_Source\PSoC6\pdl\drivers/peripheral/gpio/cy_gpio.h ****     
1602:Generated_Source\PSoC6\pdl\drivers/peripheral/gpio/cy_gpio.h ****     /* Any INTR MMIO registers AHB clearing must be preceded with an AHB read access */
1603:Generated_Source\PSoC6\pdl\drivers/peripheral/gpio/cy_gpio.h ****     (void)GPIO_PRT_INTR(base);
 2075              		.loc 2 1603 0
 2076 0002 184B     		ldr	r3, .L108
 2077 0004 5A69     		ldr	r2, [r3, #20]
1604:Generated_Source\PSoC6\pdl\drivers/peripheral/gpio/cy_gpio.h **** 
1605:Generated_Source\PSoC6\pdl\drivers/peripheral/gpio/cy_gpio.h ****     GPIO_PRT_INTR(base) = CY_GPIO_INTR_STATUS_MASK << pinNum;
 2078              		.loc 2 1605 0
 2079 0006 1022     		movs	r2, #16
 2080 0008 5A61     		str	r2, [r3, #20]
1606:Generated_Source\PSoC6\pdl\drivers/peripheral/gpio/cy_gpio.h **** 
1607:Generated_Source\PSoC6\pdl\drivers/peripheral/gpio/cy_gpio.h ****     /* This read ensures that the initial write has been flushed out to the hardware */
1608:Generated_Source\PSoC6\pdl\drivers/peripheral/gpio/cy_gpio.h ****     (void)GPIO_PRT_INTR(base);
 2081              		.loc 2 1608 0
 2082 000a 5B69     		ldr	r3, [r3, #20]
 2083              	.LVL261:
 2084              	.LBE21:
 2085              	.LBE20:
 693:interface.c   ****   
 694:interface.c   ****     Cy_GPIO_ClearInterrupt(SW2_0_PORT,SW2_0_NUM);
 695:interface.c   ****     NVIC_ClearPendingIRQ(SW2_isr_cfg.intrSrc);
 2086              		.loc 1 695 0
 2087 000c 164B     		ldr	r3, .L108+4
 2088 000e B3F90040 		ldrsh	r4, [r3]
 2089              	.LVL262:
 2090              	.LBB22:
 2091              	.LBB23:
 2092              		.file 3 "Generated_Source\\PSoC6\\pdl\\cmsis/include/core_cm4.h"
   1:Generated_Source\PSoC6\pdl\cmsis/include/core_cm4.h **** /**************************************************************************//**
   2:Generated_Source\PSoC6\pdl\cmsis/include/core_cm4.h ****  * @file     core_cm4.h
   3:Generated_Source\PSoC6\pdl\cmsis/include/core_cm4.h ****  * @brief    CMSIS Cortex-M4 Core Peripheral Access Layer Header File
   4:Generated_Source\PSoC6\pdl\cmsis/include/core_cm4.h ****  * @version  V5.0.5
   5:Generated_Source\PSoC6\pdl\cmsis/include/core_cm4.h ****  * @date     08. January 2018
   6:Generated_Source\PSoC6\pdl\cmsis/include/core_cm4.h ****  ******************************************************************************/
   7:Generated_Source\PSoC6\pdl\cmsis/include/core_cm4.h **** /*
ARM GAS  C:\Users\Mathieu\AppData\Local\Temp\ccqdbTbw.s 			page 79


   8:Generated_Source\PSoC6\pdl\cmsis/include/core_cm4.h ****  * Copyright (c) 2009-2017 ARM Limited. All rights reserved.
   9:Generated_Source\PSoC6\pdl\cmsis/include/core_cm4.h ****  *
  10:Generated_Source\PSoC6\pdl\cmsis/include/core_cm4.h ****  * SPDX-License-Identifier: Apache-2.0
  11:Generated_Source\PSoC6\pdl\cmsis/include/core_cm4.h ****  *
  12:Generated_Source\PSoC6\pdl\cmsis/include/core_cm4.h ****  * Licensed under the Apache License, Version 2.0 (the License); you may
  13:Generated_Source\PSoC6\pdl\cmsis/include/core_cm4.h ****  * not use this file except in compliance with the License.
  14:Generated_Source\PSoC6\pdl\cmsis/include/core_cm4.h ****  * You may obtain a copy of the License at
  15:Generated_Source\PSoC6\pdl\cmsis/include/core_cm4.h ****  *
  16:Generated_Source\PSoC6\pdl\cmsis/include/core_cm4.h ****  * www.apache.org/licenses/LICENSE-2.0
  17:Generated_Source\PSoC6\pdl\cmsis/include/core_cm4.h ****  *
  18:Generated_Source\PSoC6\pdl\cmsis/include/core_cm4.h ****  * Unless required by applicable law or agreed to in writing, software
  19:Generated_Source\PSoC6\pdl\cmsis/include/core_cm4.h ****  * distributed under the License is distributed on an AS IS BASIS, WITHOUT
  20:Generated_Source\PSoC6\pdl\cmsis/include/core_cm4.h ****  * WARRANTIES OR CONDITIONS OF ANY KIND, either express or implied.
  21:Generated_Source\PSoC6\pdl\cmsis/include/core_cm4.h ****  * See the License for the specific language governing permissions and
  22:Generated_Source\PSoC6\pdl\cmsis/include/core_cm4.h ****  * limitations under the License.
  23:Generated_Source\PSoC6\pdl\cmsis/include/core_cm4.h ****  */
  24:Generated_Source\PSoC6\pdl\cmsis/include/core_cm4.h **** 
  25:Generated_Source\PSoC6\pdl\cmsis/include/core_cm4.h **** #if   defined ( __ICCARM__ )
  26:Generated_Source\PSoC6\pdl\cmsis/include/core_cm4.h ****   #pragma system_include         /* treat file as system include file for MISRA check */
  27:Generated_Source\PSoC6\pdl\cmsis/include/core_cm4.h **** #elif defined (__clang__)
  28:Generated_Source\PSoC6\pdl\cmsis/include/core_cm4.h ****   #pragma clang system_header   /* treat file as system include file */
  29:Generated_Source\PSoC6\pdl\cmsis/include/core_cm4.h **** #endif
  30:Generated_Source\PSoC6\pdl\cmsis/include/core_cm4.h **** 
  31:Generated_Source\PSoC6\pdl\cmsis/include/core_cm4.h **** #ifndef __CORE_CM4_H_GENERIC
  32:Generated_Source\PSoC6\pdl\cmsis/include/core_cm4.h **** #define __CORE_CM4_H_GENERIC
  33:Generated_Source\PSoC6\pdl\cmsis/include/core_cm4.h **** 
  34:Generated_Source\PSoC6\pdl\cmsis/include/core_cm4.h **** #include <stdint.h>
  35:Generated_Source\PSoC6\pdl\cmsis/include/core_cm4.h **** 
  36:Generated_Source\PSoC6\pdl\cmsis/include/core_cm4.h **** #ifdef __cplusplus
  37:Generated_Source\PSoC6\pdl\cmsis/include/core_cm4.h ****  extern "C" {
  38:Generated_Source\PSoC6\pdl\cmsis/include/core_cm4.h **** #endif
  39:Generated_Source\PSoC6\pdl\cmsis/include/core_cm4.h **** 
  40:Generated_Source\PSoC6\pdl\cmsis/include/core_cm4.h **** /**
  41:Generated_Source\PSoC6\pdl\cmsis/include/core_cm4.h ****   \page CMSIS_MISRA_Exceptions  MISRA-C:2004 Compliance Exceptions
  42:Generated_Source\PSoC6\pdl\cmsis/include/core_cm4.h ****   CMSIS violates the following MISRA-C:2004 rules:
  43:Generated_Source\PSoC6\pdl\cmsis/include/core_cm4.h **** 
  44:Generated_Source\PSoC6\pdl\cmsis/include/core_cm4.h ****    \li Required Rule 8.5, object/function definition in header file.<br>
  45:Generated_Source\PSoC6\pdl\cmsis/include/core_cm4.h ****      Function definitions in header files are used to allow 'inlining'.
  46:Generated_Source\PSoC6\pdl\cmsis/include/core_cm4.h **** 
  47:Generated_Source\PSoC6\pdl\cmsis/include/core_cm4.h ****    \li Required Rule 18.4, declaration of union type or object of union type: '{...}'.<br>
  48:Generated_Source\PSoC6\pdl\cmsis/include/core_cm4.h ****      Unions are used for effective representation of core registers.
  49:Generated_Source\PSoC6\pdl\cmsis/include/core_cm4.h **** 
  50:Generated_Source\PSoC6\pdl\cmsis/include/core_cm4.h ****    \li Advisory Rule 19.7, Function-like macro defined.<br>
  51:Generated_Source\PSoC6\pdl\cmsis/include/core_cm4.h ****      Function-like macros are used to allow more efficient code.
  52:Generated_Source\PSoC6\pdl\cmsis/include/core_cm4.h ****  */
  53:Generated_Source\PSoC6\pdl\cmsis/include/core_cm4.h **** 
  54:Generated_Source\PSoC6\pdl\cmsis/include/core_cm4.h **** 
  55:Generated_Source\PSoC6\pdl\cmsis/include/core_cm4.h **** /*******************************************************************************
  56:Generated_Source\PSoC6\pdl\cmsis/include/core_cm4.h ****  *                 CMSIS definitions
  57:Generated_Source\PSoC6\pdl\cmsis/include/core_cm4.h ****  ******************************************************************************/
  58:Generated_Source\PSoC6\pdl\cmsis/include/core_cm4.h **** /**
  59:Generated_Source\PSoC6\pdl\cmsis/include/core_cm4.h ****   \ingroup Cortex_M4
  60:Generated_Source\PSoC6\pdl\cmsis/include/core_cm4.h ****   @{
  61:Generated_Source\PSoC6\pdl\cmsis/include/core_cm4.h ****  */
  62:Generated_Source\PSoC6\pdl\cmsis/include/core_cm4.h **** 
  63:Generated_Source\PSoC6\pdl\cmsis/include/core_cm4.h **** #include "cmsis_version.h"
  64:Generated_Source\PSoC6\pdl\cmsis/include/core_cm4.h ****  
ARM GAS  C:\Users\Mathieu\AppData\Local\Temp\ccqdbTbw.s 			page 80


  65:Generated_Source\PSoC6\pdl\cmsis/include/core_cm4.h **** /* CMSIS CM4 definitions */
  66:Generated_Source\PSoC6\pdl\cmsis/include/core_cm4.h **** #define __CM4_CMSIS_VERSION_MAIN  (__CM_CMSIS_VERSION_MAIN)              /*!< \deprecated [31:16] C
  67:Generated_Source\PSoC6\pdl\cmsis/include/core_cm4.h **** #define __CM4_CMSIS_VERSION_SUB   (__CM_CMSIS_VERSION_SUB)               /*!< \deprecated [15:0]  C
  68:Generated_Source\PSoC6\pdl\cmsis/include/core_cm4.h **** #define __CM4_CMSIS_VERSION       ((__CM4_CMSIS_VERSION_MAIN << 16U) | \
  69:Generated_Source\PSoC6\pdl\cmsis/include/core_cm4.h ****                                     __CM4_CMSIS_VERSION_SUB           )  /*!< \deprecated CMSIS HAL
  70:Generated_Source\PSoC6\pdl\cmsis/include/core_cm4.h **** 
  71:Generated_Source\PSoC6\pdl\cmsis/include/core_cm4.h **** #define __CORTEX_M                (4U)                                   /*!< Cortex-M Core */
  72:Generated_Source\PSoC6\pdl\cmsis/include/core_cm4.h **** 
  73:Generated_Source\PSoC6\pdl\cmsis/include/core_cm4.h **** /** __FPU_USED indicates whether an FPU is used or not.
  74:Generated_Source\PSoC6\pdl\cmsis/include/core_cm4.h ****     For this, __FPU_PRESENT has to be checked prior to making use of FPU specific registers and fun
  75:Generated_Source\PSoC6\pdl\cmsis/include/core_cm4.h **** */
  76:Generated_Source\PSoC6\pdl\cmsis/include/core_cm4.h **** #if defined ( __CC_ARM )
  77:Generated_Source\PSoC6\pdl\cmsis/include/core_cm4.h ****   #if defined __TARGET_FPU_VFP
  78:Generated_Source\PSoC6\pdl\cmsis/include/core_cm4.h ****     #if defined (__FPU_PRESENT) && (__FPU_PRESENT == 1U)
  79:Generated_Source\PSoC6\pdl\cmsis/include/core_cm4.h ****       #define __FPU_USED       1U
  80:Generated_Source\PSoC6\pdl\cmsis/include/core_cm4.h ****     #else
  81:Generated_Source\PSoC6\pdl\cmsis/include/core_cm4.h ****       #error "Compiler generates FPU instructions for a device without an FPU (check __FPU_PRESENT)
  82:Generated_Source\PSoC6\pdl\cmsis/include/core_cm4.h ****       #define __FPU_USED       0U
  83:Generated_Source\PSoC6\pdl\cmsis/include/core_cm4.h ****     #endif
  84:Generated_Source\PSoC6\pdl\cmsis/include/core_cm4.h ****   #else
  85:Generated_Source\PSoC6\pdl\cmsis/include/core_cm4.h ****     #define __FPU_USED         0U
  86:Generated_Source\PSoC6\pdl\cmsis/include/core_cm4.h ****   #endif
  87:Generated_Source\PSoC6\pdl\cmsis/include/core_cm4.h **** 
  88:Generated_Source\PSoC6\pdl\cmsis/include/core_cm4.h **** #elif defined (__ARMCC_VERSION) && (__ARMCC_VERSION >= 6010050)
  89:Generated_Source\PSoC6\pdl\cmsis/include/core_cm4.h ****   #if defined __ARM_PCS_VFP
  90:Generated_Source\PSoC6\pdl\cmsis/include/core_cm4.h ****     #if defined (__FPU_PRESENT) && (__FPU_PRESENT == 1U)
  91:Generated_Source\PSoC6\pdl\cmsis/include/core_cm4.h ****       #define __FPU_USED       1U
  92:Generated_Source\PSoC6\pdl\cmsis/include/core_cm4.h ****     #else
  93:Generated_Source\PSoC6\pdl\cmsis/include/core_cm4.h ****       #warning "Compiler generates FPU instructions for a device without an FPU (check __FPU_PRESEN
  94:Generated_Source\PSoC6\pdl\cmsis/include/core_cm4.h ****       #define __FPU_USED       0U
  95:Generated_Source\PSoC6\pdl\cmsis/include/core_cm4.h ****     #endif
  96:Generated_Source\PSoC6\pdl\cmsis/include/core_cm4.h ****   #else
  97:Generated_Source\PSoC6\pdl\cmsis/include/core_cm4.h ****     #define __FPU_USED         0U
  98:Generated_Source\PSoC6\pdl\cmsis/include/core_cm4.h ****   #endif
  99:Generated_Source\PSoC6\pdl\cmsis/include/core_cm4.h **** 
 100:Generated_Source\PSoC6\pdl\cmsis/include/core_cm4.h **** #elif defined ( __GNUC__ )
 101:Generated_Source\PSoC6\pdl\cmsis/include/core_cm4.h ****   #if defined (__VFP_FP__) && !defined(__SOFTFP__)
 102:Generated_Source\PSoC6\pdl\cmsis/include/core_cm4.h ****     #if defined (__FPU_PRESENT) && (__FPU_PRESENT == 1U)
 103:Generated_Source\PSoC6\pdl\cmsis/include/core_cm4.h ****       #define __FPU_USED       1U
 104:Generated_Source\PSoC6\pdl\cmsis/include/core_cm4.h ****     #else
 105:Generated_Source\PSoC6\pdl\cmsis/include/core_cm4.h ****       #error "Compiler generates FPU instructions for a device without an FPU (check __FPU_PRESENT)
 106:Generated_Source\PSoC6\pdl\cmsis/include/core_cm4.h ****       #define __FPU_USED       0U
 107:Generated_Source\PSoC6\pdl\cmsis/include/core_cm4.h ****     #endif
 108:Generated_Source\PSoC6\pdl\cmsis/include/core_cm4.h ****   #else
 109:Generated_Source\PSoC6\pdl\cmsis/include/core_cm4.h ****     #define __FPU_USED         0U
 110:Generated_Source\PSoC6\pdl\cmsis/include/core_cm4.h ****   #endif
 111:Generated_Source\PSoC6\pdl\cmsis/include/core_cm4.h **** 
 112:Generated_Source\PSoC6\pdl\cmsis/include/core_cm4.h **** #elif defined ( __ICCARM__ )
 113:Generated_Source\PSoC6\pdl\cmsis/include/core_cm4.h ****   #if defined __ARMVFP__
 114:Generated_Source\PSoC6\pdl\cmsis/include/core_cm4.h ****     #if defined (__FPU_PRESENT) && (__FPU_PRESENT == 1U)
 115:Generated_Source\PSoC6\pdl\cmsis/include/core_cm4.h ****       #define __FPU_USED       1U
 116:Generated_Source\PSoC6\pdl\cmsis/include/core_cm4.h ****     #else
 117:Generated_Source\PSoC6\pdl\cmsis/include/core_cm4.h ****       #error "Compiler generates FPU instructions for a device without an FPU (check __FPU_PRESENT)
 118:Generated_Source\PSoC6\pdl\cmsis/include/core_cm4.h ****       #define __FPU_USED       0U
 119:Generated_Source\PSoC6\pdl\cmsis/include/core_cm4.h ****     #endif
 120:Generated_Source\PSoC6\pdl\cmsis/include/core_cm4.h ****   #else
 121:Generated_Source\PSoC6\pdl\cmsis/include/core_cm4.h ****     #define __FPU_USED         0U
ARM GAS  C:\Users\Mathieu\AppData\Local\Temp\ccqdbTbw.s 			page 81


 122:Generated_Source\PSoC6\pdl\cmsis/include/core_cm4.h ****   #endif
 123:Generated_Source\PSoC6\pdl\cmsis/include/core_cm4.h **** 
 124:Generated_Source\PSoC6\pdl\cmsis/include/core_cm4.h **** #elif defined ( __TI_ARM__ )
 125:Generated_Source\PSoC6\pdl\cmsis/include/core_cm4.h ****   #if defined __TI_VFP_SUPPORT__
 126:Generated_Source\PSoC6\pdl\cmsis/include/core_cm4.h ****     #if defined (__FPU_PRESENT) && (__FPU_PRESENT == 1U)
 127:Generated_Source\PSoC6\pdl\cmsis/include/core_cm4.h ****       #define __FPU_USED       1U
 128:Generated_Source\PSoC6\pdl\cmsis/include/core_cm4.h ****     #else
 129:Generated_Source\PSoC6\pdl\cmsis/include/core_cm4.h ****       #error "Compiler generates FPU instructions for a device without an FPU (check __FPU_PRESENT)
 130:Generated_Source\PSoC6\pdl\cmsis/include/core_cm4.h ****       #define __FPU_USED       0U
 131:Generated_Source\PSoC6\pdl\cmsis/include/core_cm4.h ****     #endif
 132:Generated_Source\PSoC6\pdl\cmsis/include/core_cm4.h ****   #else
 133:Generated_Source\PSoC6\pdl\cmsis/include/core_cm4.h ****     #define __FPU_USED         0U
 134:Generated_Source\PSoC6\pdl\cmsis/include/core_cm4.h ****   #endif
 135:Generated_Source\PSoC6\pdl\cmsis/include/core_cm4.h **** 
 136:Generated_Source\PSoC6\pdl\cmsis/include/core_cm4.h **** #elif defined ( __TASKING__ )
 137:Generated_Source\PSoC6\pdl\cmsis/include/core_cm4.h ****   #if defined __FPU_VFP__
 138:Generated_Source\PSoC6\pdl\cmsis/include/core_cm4.h ****     #if defined (__FPU_PRESENT) && (__FPU_PRESENT == 1U)
 139:Generated_Source\PSoC6\pdl\cmsis/include/core_cm4.h ****       #define __FPU_USED       1U
 140:Generated_Source\PSoC6\pdl\cmsis/include/core_cm4.h ****     #else
 141:Generated_Source\PSoC6\pdl\cmsis/include/core_cm4.h ****       #error "Compiler generates FPU instructions for a device without an FPU (check __FPU_PRESENT)
 142:Generated_Source\PSoC6\pdl\cmsis/include/core_cm4.h ****       #define __FPU_USED       0U
 143:Generated_Source\PSoC6\pdl\cmsis/include/core_cm4.h ****     #endif
 144:Generated_Source\PSoC6\pdl\cmsis/include/core_cm4.h ****   #else
 145:Generated_Source\PSoC6\pdl\cmsis/include/core_cm4.h ****     #define __FPU_USED         0U
 146:Generated_Source\PSoC6\pdl\cmsis/include/core_cm4.h ****   #endif
 147:Generated_Source\PSoC6\pdl\cmsis/include/core_cm4.h **** 
 148:Generated_Source\PSoC6\pdl\cmsis/include/core_cm4.h **** #elif defined ( __CSMC__ )
 149:Generated_Source\PSoC6\pdl\cmsis/include/core_cm4.h ****   #if ( __CSMC__ & 0x400U)
 150:Generated_Source\PSoC6\pdl\cmsis/include/core_cm4.h ****     #if defined (__FPU_PRESENT) && (__FPU_PRESENT == 1U)
 151:Generated_Source\PSoC6\pdl\cmsis/include/core_cm4.h ****       #define __FPU_USED       1U
 152:Generated_Source\PSoC6\pdl\cmsis/include/core_cm4.h ****     #else
 153:Generated_Source\PSoC6\pdl\cmsis/include/core_cm4.h ****       #error "Compiler generates FPU instructions for a device without an FPU (check __FPU_PRESENT)
 154:Generated_Source\PSoC6\pdl\cmsis/include/core_cm4.h ****       #define __FPU_USED       0U
 155:Generated_Source\PSoC6\pdl\cmsis/include/core_cm4.h ****     #endif
 156:Generated_Source\PSoC6\pdl\cmsis/include/core_cm4.h ****   #else
 157:Generated_Source\PSoC6\pdl\cmsis/include/core_cm4.h ****     #define __FPU_USED         0U
 158:Generated_Source\PSoC6\pdl\cmsis/include/core_cm4.h ****   #endif
 159:Generated_Source\PSoC6\pdl\cmsis/include/core_cm4.h **** 
 160:Generated_Source\PSoC6\pdl\cmsis/include/core_cm4.h **** #endif
 161:Generated_Source\PSoC6\pdl\cmsis/include/core_cm4.h **** 
 162:Generated_Source\PSoC6\pdl\cmsis/include/core_cm4.h **** #include "cmsis_compiler.h"               /* CMSIS compiler specific defines */
 163:Generated_Source\PSoC6\pdl\cmsis/include/core_cm4.h **** 
 164:Generated_Source\PSoC6\pdl\cmsis/include/core_cm4.h **** 
 165:Generated_Source\PSoC6\pdl\cmsis/include/core_cm4.h **** #ifdef __cplusplus
 166:Generated_Source\PSoC6\pdl\cmsis/include/core_cm4.h **** }
 167:Generated_Source\PSoC6\pdl\cmsis/include/core_cm4.h **** #endif
 168:Generated_Source\PSoC6\pdl\cmsis/include/core_cm4.h **** 
 169:Generated_Source\PSoC6\pdl\cmsis/include/core_cm4.h **** #endif /* __CORE_CM4_H_GENERIC */
 170:Generated_Source\PSoC6\pdl\cmsis/include/core_cm4.h **** 
 171:Generated_Source\PSoC6\pdl\cmsis/include/core_cm4.h **** #ifndef __CMSIS_GENERIC
 172:Generated_Source\PSoC6\pdl\cmsis/include/core_cm4.h **** 
 173:Generated_Source\PSoC6\pdl\cmsis/include/core_cm4.h **** #ifndef __CORE_CM4_H_DEPENDANT
 174:Generated_Source\PSoC6\pdl\cmsis/include/core_cm4.h **** #define __CORE_CM4_H_DEPENDANT
 175:Generated_Source\PSoC6\pdl\cmsis/include/core_cm4.h **** 
 176:Generated_Source\PSoC6\pdl\cmsis/include/core_cm4.h **** #ifdef __cplusplus
 177:Generated_Source\PSoC6\pdl\cmsis/include/core_cm4.h ****  extern "C" {
 178:Generated_Source\PSoC6\pdl\cmsis/include/core_cm4.h **** #endif
ARM GAS  C:\Users\Mathieu\AppData\Local\Temp\ccqdbTbw.s 			page 82


 179:Generated_Source\PSoC6\pdl\cmsis/include/core_cm4.h **** 
 180:Generated_Source\PSoC6\pdl\cmsis/include/core_cm4.h **** /* check device defines and use defaults */
 181:Generated_Source\PSoC6\pdl\cmsis/include/core_cm4.h **** #if defined __CHECK_DEVICE_DEFINES
 182:Generated_Source\PSoC6\pdl\cmsis/include/core_cm4.h ****   #ifndef __CM4_REV
 183:Generated_Source\PSoC6\pdl\cmsis/include/core_cm4.h ****     #define __CM4_REV               0x0000U
 184:Generated_Source\PSoC6\pdl\cmsis/include/core_cm4.h ****     #warning "__CM4_REV not defined in device header file; using default!"
 185:Generated_Source\PSoC6\pdl\cmsis/include/core_cm4.h ****   #endif
 186:Generated_Source\PSoC6\pdl\cmsis/include/core_cm4.h **** 
 187:Generated_Source\PSoC6\pdl\cmsis/include/core_cm4.h ****   #ifndef __FPU_PRESENT
 188:Generated_Source\PSoC6\pdl\cmsis/include/core_cm4.h ****     #define __FPU_PRESENT             0U
 189:Generated_Source\PSoC6\pdl\cmsis/include/core_cm4.h ****     #warning "__FPU_PRESENT not defined in device header file; using default!"
 190:Generated_Source\PSoC6\pdl\cmsis/include/core_cm4.h ****   #endif
 191:Generated_Source\PSoC6\pdl\cmsis/include/core_cm4.h **** 
 192:Generated_Source\PSoC6\pdl\cmsis/include/core_cm4.h ****   #ifndef __MPU_PRESENT
 193:Generated_Source\PSoC6\pdl\cmsis/include/core_cm4.h ****     #define __MPU_PRESENT             0U
 194:Generated_Source\PSoC6\pdl\cmsis/include/core_cm4.h ****     #warning "__MPU_PRESENT not defined in device header file; using default!"
 195:Generated_Source\PSoC6\pdl\cmsis/include/core_cm4.h ****   #endif
 196:Generated_Source\PSoC6\pdl\cmsis/include/core_cm4.h **** 
 197:Generated_Source\PSoC6\pdl\cmsis/include/core_cm4.h ****   #ifndef __NVIC_PRIO_BITS
 198:Generated_Source\PSoC6\pdl\cmsis/include/core_cm4.h ****     #define __NVIC_PRIO_BITS          3U
 199:Generated_Source\PSoC6\pdl\cmsis/include/core_cm4.h ****     #warning "__NVIC_PRIO_BITS not defined in device header file; using default!"
 200:Generated_Source\PSoC6\pdl\cmsis/include/core_cm4.h ****   #endif
 201:Generated_Source\PSoC6\pdl\cmsis/include/core_cm4.h **** 
 202:Generated_Source\PSoC6\pdl\cmsis/include/core_cm4.h ****   #ifndef __Vendor_SysTickConfig
 203:Generated_Source\PSoC6\pdl\cmsis/include/core_cm4.h ****     #define __Vendor_SysTickConfig    0U
 204:Generated_Source\PSoC6\pdl\cmsis/include/core_cm4.h ****     #warning "__Vendor_SysTickConfig not defined in device header file; using default!"
 205:Generated_Source\PSoC6\pdl\cmsis/include/core_cm4.h ****   #endif
 206:Generated_Source\PSoC6\pdl\cmsis/include/core_cm4.h **** #endif
 207:Generated_Source\PSoC6\pdl\cmsis/include/core_cm4.h **** 
 208:Generated_Source\PSoC6\pdl\cmsis/include/core_cm4.h **** /* IO definitions (access restrictions to peripheral registers) */
 209:Generated_Source\PSoC6\pdl\cmsis/include/core_cm4.h **** /**
 210:Generated_Source\PSoC6\pdl\cmsis/include/core_cm4.h ****     \defgroup CMSIS_glob_defs CMSIS Global Defines
 211:Generated_Source\PSoC6\pdl\cmsis/include/core_cm4.h **** 
 212:Generated_Source\PSoC6\pdl\cmsis/include/core_cm4.h ****     <strong>IO Type Qualifiers</strong> are used
 213:Generated_Source\PSoC6\pdl\cmsis/include/core_cm4.h ****     \li to specify the access to peripheral variables.
 214:Generated_Source\PSoC6\pdl\cmsis/include/core_cm4.h ****     \li for automatic generation of peripheral register debug information.
 215:Generated_Source\PSoC6\pdl\cmsis/include/core_cm4.h **** */
 216:Generated_Source\PSoC6\pdl\cmsis/include/core_cm4.h **** #ifdef __cplusplus
 217:Generated_Source\PSoC6\pdl\cmsis/include/core_cm4.h ****   #define   __I     volatile             /*!< Defines 'read only' permissions */
 218:Generated_Source\PSoC6\pdl\cmsis/include/core_cm4.h **** #else
 219:Generated_Source\PSoC6\pdl\cmsis/include/core_cm4.h ****   #define   __I     volatile const       /*!< Defines 'read only' permissions */
 220:Generated_Source\PSoC6\pdl\cmsis/include/core_cm4.h **** #endif
 221:Generated_Source\PSoC6\pdl\cmsis/include/core_cm4.h **** #define     __O     volatile             /*!< Defines 'write only' permissions */
 222:Generated_Source\PSoC6\pdl\cmsis/include/core_cm4.h **** #define     __IO    volatile             /*!< Defines 'read / write' permissions */
 223:Generated_Source\PSoC6\pdl\cmsis/include/core_cm4.h **** 
 224:Generated_Source\PSoC6\pdl\cmsis/include/core_cm4.h **** /* following defines should be used for structure members */
 225:Generated_Source\PSoC6\pdl\cmsis/include/core_cm4.h **** #define     __IM     volatile const      /*! Defines 'read only' structure member permissions */
 226:Generated_Source\PSoC6\pdl\cmsis/include/core_cm4.h **** #define     __OM     volatile            /*! Defines 'write only' structure member permissions */
 227:Generated_Source\PSoC6\pdl\cmsis/include/core_cm4.h **** #define     __IOM    volatile            /*! Defines 'read / write' structure member permissions */
 228:Generated_Source\PSoC6\pdl\cmsis/include/core_cm4.h **** 
 229:Generated_Source\PSoC6\pdl\cmsis/include/core_cm4.h **** /*@} end of group Cortex_M4 */
 230:Generated_Source\PSoC6\pdl\cmsis/include/core_cm4.h **** 
 231:Generated_Source\PSoC6\pdl\cmsis/include/core_cm4.h **** 
 232:Generated_Source\PSoC6\pdl\cmsis/include/core_cm4.h **** 
 233:Generated_Source\PSoC6\pdl\cmsis/include/core_cm4.h **** /*******************************************************************************
 234:Generated_Source\PSoC6\pdl\cmsis/include/core_cm4.h ****  *                 Register Abstraction
 235:Generated_Source\PSoC6\pdl\cmsis/include/core_cm4.h ****   Core Register contain:
ARM GAS  C:\Users\Mathieu\AppData\Local\Temp\ccqdbTbw.s 			page 83


 236:Generated_Source\PSoC6\pdl\cmsis/include/core_cm4.h ****   - Core Register
 237:Generated_Source\PSoC6\pdl\cmsis/include/core_cm4.h ****   - Core NVIC Register
 238:Generated_Source\PSoC6\pdl\cmsis/include/core_cm4.h ****   - Core SCB Register
 239:Generated_Source\PSoC6\pdl\cmsis/include/core_cm4.h ****   - Core SysTick Register
 240:Generated_Source\PSoC6\pdl\cmsis/include/core_cm4.h ****   - Core Debug Register
 241:Generated_Source\PSoC6\pdl\cmsis/include/core_cm4.h ****   - Core MPU Register
 242:Generated_Source\PSoC6\pdl\cmsis/include/core_cm4.h ****   - Core FPU Register
 243:Generated_Source\PSoC6\pdl\cmsis/include/core_cm4.h ****  ******************************************************************************/
 244:Generated_Source\PSoC6\pdl\cmsis/include/core_cm4.h **** /**
 245:Generated_Source\PSoC6\pdl\cmsis/include/core_cm4.h ****   \defgroup CMSIS_core_register Defines and Type Definitions
 246:Generated_Source\PSoC6\pdl\cmsis/include/core_cm4.h ****   \brief Type definitions and defines for Cortex-M processor based devices.
 247:Generated_Source\PSoC6\pdl\cmsis/include/core_cm4.h **** */
 248:Generated_Source\PSoC6\pdl\cmsis/include/core_cm4.h **** 
 249:Generated_Source\PSoC6\pdl\cmsis/include/core_cm4.h **** /**
 250:Generated_Source\PSoC6\pdl\cmsis/include/core_cm4.h ****   \ingroup    CMSIS_core_register
 251:Generated_Source\PSoC6\pdl\cmsis/include/core_cm4.h ****   \defgroup   CMSIS_CORE  Status and Control Registers
 252:Generated_Source\PSoC6\pdl\cmsis/include/core_cm4.h ****   \brief      Core Register type definitions.
 253:Generated_Source\PSoC6\pdl\cmsis/include/core_cm4.h ****   @{
 254:Generated_Source\PSoC6\pdl\cmsis/include/core_cm4.h ****  */
 255:Generated_Source\PSoC6\pdl\cmsis/include/core_cm4.h **** 
 256:Generated_Source\PSoC6\pdl\cmsis/include/core_cm4.h **** /**
 257:Generated_Source\PSoC6\pdl\cmsis/include/core_cm4.h ****   \brief  Union type to access the Application Program Status Register (APSR).
 258:Generated_Source\PSoC6\pdl\cmsis/include/core_cm4.h ****  */
 259:Generated_Source\PSoC6\pdl\cmsis/include/core_cm4.h **** typedef union
 260:Generated_Source\PSoC6\pdl\cmsis/include/core_cm4.h **** {
 261:Generated_Source\PSoC6\pdl\cmsis/include/core_cm4.h ****   struct
 262:Generated_Source\PSoC6\pdl\cmsis/include/core_cm4.h ****   {
 263:Generated_Source\PSoC6\pdl\cmsis/include/core_cm4.h ****     uint32_t _reserved0:16;              /*!< bit:  0..15  Reserved */
 264:Generated_Source\PSoC6\pdl\cmsis/include/core_cm4.h ****     uint32_t GE:4;                       /*!< bit: 16..19  Greater than or Equal flags */
 265:Generated_Source\PSoC6\pdl\cmsis/include/core_cm4.h ****     uint32_t _reserved1:7;               /*!< bit: 20..26  Reserved */
 266:Generated_Source\PSoC6\pdl\cmsis/include/core_cm4.h ****     uint32_t Q:1;                        /*!< bit:     27  Saturation condition flag */
 267:Generated_Source\PSoC6\pdl\cmsis/include/core_cm4.h ****     uint32_t V:1;                        /*!< bit:     28  Overflow condition code flag */
 268:Generated_Source\PSoC6\pdl\cmsis/include/core_cm4.h ****     uint32_t C:1;                        /*!< bit:     29  Carry condition code flag */
 269:Generated_Source\PSoC6\pdl\cmsis/include/core_cm4.h ****     uint32_t Z:1;                        /*!< bit:     30  Zero condition code flag */
 270:Generated_Source\PSoC6\pdl\cmsis/include/core_cm4.h ****     uint32_t N:1;                        /*!< bit:     31  Negative condition code flag */
 271:Generated_Source\PSoC6\pdl\cmsis/include/core_cm4.h ****   } b;                                   /*!< Structure used for bit  access */
 272:Generated_Source\PSoC6\pdl\cmsis/include/core_cm4.h ****   uint32_t w;                            /*!< Type      used for word access */
 273:Generated_Source\PSoC6\pdl\cmsis/include/core_cm4.h **** } APSR_Type;
 274:Generated_Source\PSoC6\pdl\cmsis/include/core_cm4.h **** 
 275:Generated_Source\PSoC6\pdl\cmsis/include/core_cm4.h **** /* APSR Register Definitions */
 276:Generated_Source\PSoC6\pdl\cmsis/include/core_cm4.h **** #define APSR_N_Pos                         31U                                            /*!< APSR
 277:Generated_Source\PSoC6\pdl\cmsis/include/core_cm4.h **** #define APSR_N_Msk                         (1UL << APSR_N_Pos)                            /*!< APSR
 278:Generated_Source\PSoC6\pdl\cmsis/include/core_cm4.h **** 
 279:Generated_Source\PSoC6\pdl\cmsis/include/core_cm4.h **** #define APSR_Z_Pos                         30U                                            /*!< APSR
 280:Generated_Source\PSoC6\pdl\cmsis/include/core_cm4.h **** #define APSR_Z_Msk                         (1UL << APSR_Z_Pos)                            /*!< APSR
 281:Generated_Source\PSoC6\pdl\cmsis/include/core_cm4.h **** 
 282:Generated_Source\PSoC6\pdl\cmsis/include/core_cm4.h **** #define APSR_C_Pos                         29U                                            /*!< APSR
 283:Generated_Source\PSoC6\pdl\cmsis/include/core_cm4.h **** #define APSR_C_Msk                         (1UL << APSR_C_Pos)                            /*!< APSR
 284:Generated_Source\PSoC6\pdl\cmsis/include/core_cm4.h **** 
 285:Generated_Source\PSoC6\pdl\cmsis/include/core_cm4.h **** #define APSR_V_Pos                         28U                                            /*!< APSR
 286:Generated_Source\PSoC6\pdl\cmsis/include/core_cm4.h **** #define APSR_V_Msk                         (1UL << APSR_V_Pos)                            /*!< APSR
 287:Generated_Source\PSoC6\pdl\cmsis/include/core_cm4.h **** 
 288:Generated_Source\PSoC6\pdl\cmsis/include/core_cm4.h **** #define APSR_Q_Pos                         27U                                            /*!< APSR
 289:Generated_Source\PSoC6\pdl\cmsis/include/core_cm4.h **** #define APSR_Q_Msk                         (1UL << APSR_Q_Pos)                            /*!< APSR
 290:Generated_Source\PSoC6\pdl\cmsis/include/core_cm4.h **** 
 291:Generated_Source\PSoC6\pdl\cmsis/include/core_cm4.h **** #define APSR_GE_Pos                        16U                                            /*!< APSR
 292:Generated_Source\PSoC6\pdl\cmsis/include/core_cm4.h **** #define APSR_GE_Msk                        (0xFUL << APSR_GE_Pos)                         /*!< APSR
ARM GAS  C:\Users\Mathieu\AppData\Local\Temp\ccqdbTbw.s 			page 84


 293:Generated_Source\PSoC6\pdl\cmsis/include/core_cm4.h **** 
 294:Generated_Source\PSoC6\pdl\cmsis/include/core_cm4.h **** 
 295:Generated_Source\PSoC6\pdl\cmsis/include/core_cm4.h **** /**
 296:Generated_Source\PSoC6\pdl\cmsis/include/core_cm4.h ****   \brief  Union type to access the Interrupt Program Status Register (IPSR).
 297:Generated_Source\PSoC6\pdl\cmsis/include/core_cm4.h ****  */
 298:Generated_Source\PSoC6\pdl\cmsis/include/core_cm4.h **** typedef union
 299:Generated_Source\PSoC6\pdl\cmsis/include/core_cm4.h **** {
 300:Generated_Source\PSoC6\pdl\cmsis/include/core_cm4.h ****   struct
 301:Generated_Source\PSoC6\pdl\cmsis/include/core_cm4.h ****   {
 302:Generated_Source\PSoC6\pdl\cmsis/include/core_cm4.h ****     uint32_t ISR:9;                      /*!< bit:  0.. 8  Exception number */
 303:Generated_Source\PSoC6\pdl\cmsis/include/core_cm4.h ****     uint32_t _reserved0:23;              /*!< bit:  9..31  Reserved */
 304:Generated_Source\PSoC6\pdl\cmsis/include/core_cm4.h ****   } b;                                   /*!< Structure used for bit  access */
 305:Generated_Source\PSoC6\pdl\cmsis/include/core_cm4.h ****   uint32_t w;                            /*!< Type      used for word access */
 306:Generated_Source\PSoC6\pdl\cmsis/include/core_cm4.h **** } IPSR_Type;
 307:Generated_Source\PSoC6\pdl\cmsis/include/core_cm4.h **** 
 308:Generated_Source\PSoC6\pdl\cmsis/include/core_cm4.h **** /* IPSR Register Definitions */
 309:Generated_Source\PSoC6\pdl\cmsis/include/core_cm4.h **** #define IPSR_ISR_Pos                        0U                                            /*!< IPSR
 310:Generated_Source\PSoC6\pdl\cmsis/include/core_cm4.h **** #define IPSR_ISR_Msk                       (0x1FFUL /*<< IPSR_ISR_Pos*/)                  /*!< IPSR
 311:Generated_Source\PSoC6\pdl\cmsis/include/core_cm4.h **** 
 312:Generated_Source\PSoC6\pdl\cmsis/include/core_cm4.h **** 
 313:Generated_Source\PSoC6\pdl\cmsis/include/core_cm4.h **** /**
 314:Generated_Source\PSoC6\pdl\cmsis/include/core_cm4.h ****   \brief  Union type to access the Special-Purpose Program Status Registers (xPSR).
 315:Generated_Source\PSoC6\pdl\cmsis/include/core_cm4.h ****  */
 316:Generated_Source\PSoC6\pdl\cmsis/include/core_cm4.h **** typedef union
 317:Generated_Source\PSoC6\pdl\cmsis/include/core_cm4.h **** {
 318:Generated_Source\PSoC6\pdl\cmsis/include/core_cm4.h ****   struct
 319:Generated_Source\PSoC6\pdl\cmsis/include/core_cm4.h ****   {
 320:Generated_Source\PSoC6\pdl\cmsis/include/core_cm4.h ****     uint32_t ISR:9;                      /*!< bit:  0.. 8  Exception number */
 321:Generated_Source\PSoC6\pdl\cmsis/include/core_cm4.h ****     uint32_t _reserved0:1;               /*!< bit:      9  Reserved */
 322:Generated_Source\PSoC6\pdl\cmsis/include/core_cm4.h ****     uint32_t ICI_IT_1:6;                 /*!< bit: 10..15  ICI/IT part 1 */
 323:Generated_Source\PSoC6\pdl\cmsis/include/core_cm4.h ****     uint32_t GE:4;                       /*!< bit: 16..19  Greater than or Equal flags */
 324:Generated_Source\PSoC6\pdl\cmsis/include/core_cm4.h ****     uint32_t _reserved1:4;               /*!< bit: 20..23  Reserved */
 325:Generated_Source\PSoC6\pdl\cmsis/include/core_cm4.h ****     uint32_t T:1;                        /*!< bit:     24  Thumb bit */
 326:Generated_Source\PSoC6\pdl\cmsis/include/core_cm4.h ****     uint32_t ICI_IT_2:2;                 /*!< bit: 25..26  ICI/IT part 2 */
 327:Generated_Source\PSoC6\pdl\cmsis/include/core_cm4.h ****     uint32_t Q:1;                        /*!< bit:     27  Saturation condition flag */
 328:Generated_Source\PSoC6\pdl\cmsis/include/core_cm4.h ****     uint32_t V:1;                        /*!< bit:     28  Overflow condition code flag */
 329:Generated_Source\PSoC6\pdl\cmsis/include/core_cm4.h ****     uint32_t C:1;                        /*!< bit:     29  Carry condition code flag */
 330:Generated_Source\PSoC6\pdl\cmsis/include/core_cm4.h ****     uint32_t Z:1;                        /*!< bit:     30  Zero condition code flag */
 331:Generated_Source\PSoC6\pdl\cmsis/include/core_cm4.h ****     uint32_t N:1;                        /*!< bit:     31  Negative condition code flag */
 332:Generated_Source\PSoC6\pdl\cmsis/include/core_cm4.h ****   } b;                                   /*!< Structure used for bit  access */
 333:Generated_Source\PSoC6\pdl\cmsis/include/core_cm4.h ****   uint32_t w;                            /*!< Type      used for word access */
 334:Generated_Source\PSoC6\pdl\cmsis/include/core_cm4.h **** } xPSR_Type;
 335:Generated_Source\PSoC6\pdl\cmsis/include/core_cm4.h **** 
 336:Generated_Source\PSoC6\pdl\cmsis/include/core_cm4.h **** /* xPSR Register Definitions */
 337:Generated_Source\PSoC6\pdl\cmsis/include/core_cm4.h **** #define xPSR_N_Pos                         31U                                            /*!< xPSR
 338:Generated_Source\PSoC6\pdl\cmsis/include/core_cm4.h **** #define xPSR_N_Msk                         (1UL << xPSR_N_Pos)                            /*!< xPSR
 339:Generated_Source\PSoC6\pdl\cmsis/include/core_cm4.h **** 
 340:Generated_Source\PSoC6\pdl\cmsis/include/core_cm4.h **** #define xPSR_Z_Pos                         30U                                            /*!< xPSR
 341:Generated_Source\PSoC6\pdl\cmsis/include/core_cm4.h **** #define xPSR_Z_Msk                         (1UL << xPSR_Z_Pos)                            /*!< xPSR
 342:Generated_Source\PSoC6\pdl\cmsis/include/core_cm4.h **** 
 343:Generated_Source\PSoC6\pdl\cmsis/include/core_cm4.h **** #define xPSR_C_Pos                         29U                                            /*!< xPSR
 344:Generated_Source\PSoC6\pdl\cmsis/include/core_cm4.h **** #define xPSR_C_Msk                         (1UL << xPSR_C_Pos)                            /*!< xPSR
 345:Generated_Source\PSoC6\pdl\cmsis/include/core_cm4.h **** 
 346:Generated_Source\PSoC6\pdl\cmsis/include/core_cm4.h **** #define xPSR_V_Pos                         28U                                            /*!< xPSR
 347:Generated_Source\PSoC6\pdl\cmsis/include/core_cm4.h **** #define xPSR_V_Msk                         (1UL << xPSR_V_Pos)                            /*!< xPSR
 348:Generated_Source\PSoC6\pdl\cmsis/include/core_cm4.h **** 
 349:Generated_Source\PSoC6\pdl\cmsis/include/core_cm4.h **** #define xPSR_Q_Pos                         27U                                            /*!< xPSR
ARM GAS  C:\Users\Mathieu\AppData\Local\Temp\ccqdbTbw.s 			page 85


 350:Generated_Source\PSoC6\pdl\cmsis/include/core_cm4.h **** #define xPSR_Q_Msk                         (1UL << xPSR_Q_Pos)                            /*!< xPSR
 351:Generated_Source\PSoC6\pdl\cmsis/include/core_cm4.h **** 
 352:Generated_Source\PSoC6\pdl\cmsis/include/core_cm4.h **** #define xPSR_ICI_IT_2_Pos                  25U                                            /*!< xPSR
 353:Generated_Source\PSoC6\pdl\cmsis/include/core_cm4.h **** #define xPSR_ICI_IT_2_Msk                  (3UL << xPSR_ICI_IT_2_Pos)                     /*!< xPSR
 354:Generated_Source\PSoC6\pdl\cmsis/include/core_cm4.h **** 
 355:Generated_Source\PSoC6\pdl\cmsis/include/core_cm4.h **** #define xPSR_T_Pos                         24U                                            /*!< xPSR
 356:Generated_Source\PSoC6\pdl\cmsis/include/core_cm4.h **** #define xPSR_T_Msk                         (1UL << xPSR_T_Pos)                            /*!< xPSR
 357:Generated_Source\PSoC6\pdl\cmsis/include/core_cm4.h **** 
 358:Generated_Source\PSoC6\pdl\cmsis/include/core_cm4.h **** #define xPSR_GE_Pos                        16U                                            /*!< xPSR
 359:Generated_Source\PSoC6\pdl\cmsis/include/core_cm4.h **** #define xPSR_GE_Msk                        (0xFUL << xPSR_GE_Pos)                         /*!< xPSR
 360:Generated_Source\PSoC6\pdl\cmsis/include/core_cm4.h **** 
 361:Generated_Source\PSoC6\pdl\cmsis/include/core_cm4.h **** #define xPSR_ICI_IT_1_Pos                  10U                                            /*!< xPSR
 362:Generated_Source\PSoC6\pdl\cmsis/include/core_cm4.h **** #define xPSR_ICI_IT_1_Msk                  (0x3FUL << xPSR_ICI_IT_1_Pos)                  /*!< xPSR
 363:Generated_Source\PSoC6\pdl\cmsis/include/core_cm4.h **** 
 364:Generated_Source\PSoC6\pdl\cmsis/include/core_cm4.h **** #define xPSR_ISR_Pos                        0U                                            /*!< xPSR
 365:Generated_Source\PSoC6\pdl\cmsis/include/core_cm4.h **** #define xPSR_ISR_Msk                       (0x1FFUL /*<< xPSR_ISR_Pos*/)                  /*!< xPSR
 366:Generated_Source\PSoC6\pdl\cmsis/include/core_cm4.h **** 
 367:Generated_Source\PSoC6\pdl\cmsis/include/core_cm4.h **** 
 368:Generated_Source\PSoC6\pdl\cmsis/include/core_cm4.h **** /**
 369:Generated_Source\PSoC6\pdl\cmsis/include/core_cm4.h ****   \brief  Union type to access the Control Registers (CONTROL).
 370:Generated_Source\PSoC6\pdl\cmsis/include/core_cm4.h ****  */
 371:Generated_Source\PSoC6\pdl\cmsis/include/core_cm4.h **** typedef union
 372:Generated_Source\PSoC6\pdl\cmsis/include/core_cm4.h **** {
 373:Generated_Source\PSoC6\pdl\cmsis/include/core_cm4.h ****   struct
 374:Generated_Source\PSoC6\pdl\cmsis/include/core_cm4.h ****   {
 375:Generated_Source\PSoC6\pdl\cmsis/include/core_cm4.h ****     uint32_t nPRIV:1;                    /*!< bit:      0  Execution privilege in Thread mode */
 376:Generated_Source\PSoC6\pdl\cmsis/include/core_cm4.h ****     uint32_t SPSEL:1;                    /*!< bit:      1  Stack to be used */
 377:Generated_Source\PSoC6\pdl\cmsis/include/core_cm4.h ****     uint32_t FPCA:1;                     /*!< bit:      2  FP extension active flag */
 378:Generated_Source\PSoC6\pdl\cmsis/include/core_cm4.h ****     uint32_t _reserved0:29;              /*!< bit:  3..31  Reserved */
 379:Generated_Source\PSoC6\pdl\cmsis/include/core_cm4.h ****   } b;                                   /*!< Structure used for bit  access */
 380:Generated_Source\PSoC6\pdl\cmsis/include/core_cm4.h ****   uint32_t w;                            /*!< Type      used for word access */
 381:Generated_Source\PSoC6\pdl\cmsis/include/core_cm4.h **** } CONTROL_Type;
 382:Generated_Source\PSoC6\pdl\cmsis/include/core_cm4.h **** 
 383:Generated_Source\PSoC6\pdl\cmsis/include/core_cm4.h **** /* CONTROL Register Definitions */
 384:Generated_Source\PSoC6\pdl\cmsis/include/core_cm4.h **** #define CONTROL_FPCA_Pos                    2U                                            /*!< CONT
 385:Generated_Source\PSoC6\pdl\cmsis/include/core_cm4.h **** #define CONTROL_FPCA_Msk                   (1UL << CONTROL_FPCA_Pos)                      /*!< CONT
 386:Generated_Source\PSoC6\pdl\cmsis/include/core_cm4.h **** 
 387:Generated_Source\PSoC6\pdl\cmsis/include/core_cm4.h **** #define CONTROL_SPSEL_Pos                   1U                                            /*!< CONT
 388:Generated_Source\PSoC6\pdl\cmsis/include/core_cm4.h **** #define CONTROL_SPSEL_Msk                  (1UL << CONTROL_SPSEL_Pos)                     /*!< CONT
 389:Generated_Source\PSoC6\pdl\cmsis/include/core_cm4.h **** 
 390:Generated_Source\PSoC6\pdl\cmsis/include/core_cm4.h **** #define CONTROL_nPRIV_Pos                   0U                                            /*!< CONT
 391:Generated_Source\PSoC6\pdl\cmsis/include/core_cm4.h **** #define CONTROL_nPRIV_Msk                  (1UL /*<< CONTROL_nPRIV_Pos*/)                 /*!< CONT
 392:Generated_Source\PSoC6\pdl\cmsis/include/core_cm4.h **** 
 393:Generated_Source\PSoC6\pdl\cmsis/include/core_cm4.h **** /*@} end of group CMSIS_CORE */
 394:Generated_Source\PSoC6\pdl\cmsis/include/core_cm4.h **** 
 395:Generated_Source\PSoC6\pdl\cmsis/include/core_cm4.h **** 
 396:Generated_Source\PSoC6\pdl\cmsis/include/core_cm4.h **** /**
 397:Generated_Source\PSoC6\pdl\cmsis/include/core_cm4.h ****   \ingroup    CMSIS_core_register
 398:Generated_Source\PSoC6\pdl\cmsis/include/core_cm4.h ****   \defgroup   CMSIS_NVIC  Nested Vectored Interrupt Controller (NVIC)
 399:Generated_Source\PSoC6\pdl\cmsis/include/core_cm4.h ****   \brief      Type definitions for the NVIC Registers
 400:Generated_Source\PSoC6\pdl\cmsis/include/core_cm4.h ****   @{
 401:Generated_Source\PSoC6\pdl\cmsis/include/core_cm4.h ****  */
 402:Generated_Source\PSoC6\pdl\cmsis/include/core_cm4.h **** 
 403:Generated_Source\PSoC6\pdl\cmsis/include/core_cm4.h **** /**
 404:Generated_Source\PSoC6\pdl\cmsis/include/core_cm4.h ****   \brief  Structure type to access the Nested Vectored Interrupt Controller (NVIC).
 405:Generated_Source\PSoC6\pdl\cmsis/include/core_cm4.h ****  */
 406:Generated_Source\PSoC6\pdl\cmsis/include/core_cm4.h **** typedef struct
ARM GAS  C:\Users\Mathieu\AppData\Local\Temp\ccqdbTbw.s 			page 86


 407:Generated_Source\PSoC6\pdl\cmsis/include/core_cm4.h **** {
 408:Generated_Source\PSoC6\pdl\cmsis/include/core_cm4.h ****   __IOM uint32_t ISER[8U];               /*!< Offset: 0x000 (R/W)  Interrupt Set Enable Register */
 409:Generated_Source\PSoC6\pdl\cmsis/include/core_cm4.h ****         uint32_t RESERVED0[24U];
 410:Generated_Source\PSoC6\pdl\cmsis/include/core_cm4.h ****   __IOM uint32_t ICER[8U];               /*!< Offset: 0x080 (R/W)  Interrupt Clear Enable Register 
 411:Generated_Source\PSoC6\pdl\cmsis/include/core_cm4.h ****         uint32_t RSERVED1[24U];
 412:Generated_Source\PSoC6\pdl\cmsis/include/core_cm4.h ****   __IOM uint32_t ISPR[8U];               /*!< Offset: 0x100 (R/W)  Interrupt Set Pending Register *
 413:Generated_Source\PSoC6\pdl\cmsis/include/core_cm4.h ****         uint32_t RESERVED2[24U];
 414:Generated_Source\PSoC6\pdl\cmsis/include/core_cm4.h ****   __IOM uint32_t ICPR[8U];               /*!< Offset: 0x180 (R/W)  Interrupt Clear Pending Register
 415:Generated_Source\PSoC6\pdl\cmsis/include/core_cm4.h ****         uint32_t RESERVED3[24U];
 416:Generated_Source\PSoC6\pdl\cmsis/include/core_cm4.h ****   __IOM uint32_t IABR[8U];               /*!< Offset: 0x200 (R/W)  Interrupt Active bit Register */
 417:Generated_Source\PSoC6\pdl\cmsis/include/core_cm4.h ****         uint32_t RESERVED4[56U];
 418:Generated_Source\PSoC6\pdl\cmsis/include/core_cm4.h ****   __IOM uint8_t  IP[240U];               /*!< Offset: 0x300 (R/W)  Interrupt Priority Register (8Bi
 419:Generated_Source\PSoC6\pdl\cmsis/include/core_cm4.h ****         uint32_t RESERVED5[644U];
 420:Generated_Source\PSoC6\pdl\cmsis/include/core_cm4.h ****   __OM  uint32_t STIR;                   /*!< Offset: 0xE00 ( /W)  Software Trigger Interrupt Regis
 421:Generated_Source\PSoC6\pdl\cmsis/include/core_cm4.h **** }  NVIC_Type;
 422:Generated_Source\PSoC6\pdl\cmsis/include/core_cm4.h **** 
 423:Generated_Source\PSoC6\pdl\cmsis/include/core_cm4.h **** /* Software Triggered Interrupt Register Definitions */
 424:Generated_Source\PSoC6\pdl\cmsis/include/core_cm4.h **** #define NVIC_STIR_INTID_Pos                 0U                                         /*!< STIR: I
 425:Generated_Source\PSoC6\pdl\cmsis/include/core_cm4.h **** #define NVIC_STIR_INTID_Msk                (0x1FFUL /*<< NVIC_STIR_INTID_Pos*/)        /*!< STIR: I
 426:Generated_Source\PSoC6\pdl\cmsis/include/core_cm4.h **** 
 427:Generated_Source\PSoC6\pdl\cmsis/include/core_cm4.h **** /*@} end of group CMSIS_NVIC */
 428:Generated_Source\PSoC6\pdl\cmsis/include/core_cm4.h **** 
 429:Generated_Source\PSoC6\pdl\cmsis/include/core_cm4.h **** 
 430:Generated_Source\PSoC6\pdl\cmsis/include/core_cm4.h **** /**
 431:Generated_Source\PSoC6\pdl\cmsis/include/core_cm4.h ****   \ingroup  CMSIS_core_register
 432:Generated_Source\PSoC6\pdl\cmsis/include/core_cm4.h ****   \defgroup CMSIS_SCB     System Control Block (SCB)
 433:Generated_Source\PSoC6\pdl\cmsis/include/core_cm4.h ****   \brief    Type definitions for the System Control Block Registers
 434:Generated_Source\PSoC6\pdl\cmsis/include/core_cm4.h ****   @{
 435:Generated_Source\PSoC6\pdl\cmsis/include/core_cm4.h ****  */
 436:Generated_Source\PSoC6\pdl\cmsis/include/core_cm4.h **** 
 437:Generated_Source\PSoC6\pdl\cmsis/include/core_cm4.h **** /**
 438:Generated_Source\PSoC6\pdl\cmsis/include/core_cm4.h ****   \brief  Structure type to access the System Control Block (SCB).
 439:Generated_Source\PSoC6\pdl\cmsis/include/core_cm4.h ****  */
 440:Generated_Source\PSoC6\pdl\cmsis/include/core_cm4.h **** typedef struct
 441:Generated_Source\PSoC6\pdl\cmsis/include/core_cm4.h **** {
 442:Generated_Source\PSoC6\pdl\cmsis/include/core_cm4.h ****   __IM  uint32_t CPUID;                  /*!< Offset: 0x000 (R/ )  CPUID Base Register */
 443:Generated_Source\PSoC6\pdl\cmsis/include/core_cm4.h ****   __IOM uint32_t ICSR;                   /*!< Offset: 0x004 (R/W)  Interrupt Control and State Regi
 444:Generated_Source\PSoC6\pdl\cmsis/include/core_cm4.h ****   __IOM uint32_t VTOR;                   /*!< Offset: 0x008 (R/W)  Vector Table Offset Register */
 445:Generated_Source\PSoC6\pdl\cmsis/include/core_cm4.h ****   __IOM uint32_t AIRCR;                  /*!< Offset: 0x00C (R/W)  Application Interrupt and Reset 
 446:Generated_Source\PSoC6\pdl\cmsis/include/core_cm4.h ****   __IOM uint32_t SCR;                    /*!< Offset: 0x010 (R/W)  System Control Register */
 447:Generated_Source\PSoC6\pdl\cmsis/include/core_cm4.h ****   __IOM uint32_t CCR;                    /*!< Offset: 0x014 (R/W)  Configuration Control Register *
 448:Generated_Source\PSoC6\pdl\cmsis/include/core_cm4.h ****   __IOM uint8_t  SHP[12U];               /*!< Offset: 0x018 (R/W)  System Handlers Priority Registe
 449:Generated_Source\PSoC6\pdl\cmsis/include/core_cm4.h ****   __IOM uint32_t SHCSR;                  /*!< Offset: 0x024 (R/W)  System Handler Control and State
 450:Generated_Source\PSoC6\pdl\cmsis/include/core_cm4.h ****   __IOM uint32_t CFSR;                   /*!< Offset: 0x028 (R/W)  Configurable Fault Status Regist
 451:Generated_Source\PSoC6\pdl\cmsis/include/core_cm4.h ****   __IOM uint32_t HFSR;                   /*!< Offset: 0x02C (R/W)  HardFault Status Register */
 452:Generated_Source\PSoC6\pdl\cmsis/include/core_cm4.h ****   __IOM uint32_t DFSR;                   /*!< Offset: 0x030 (R/W)  Debug Fault Status Register */
 453:Generated_Source\PSoC6\pdl\cmsis/include/core_cm4.h ****   __IOM uint32_t MMFAR;                  /*!< Offset: 0x034 (R/W)  MemManage Fault Address Register
 454:Generated_Source\PSoC6\pdl\cmsis/include/core_cm4.h ****   __IOM uint32_t BFAR;                   /*!< Offset: 0x038 (R/W)  BusFault Address Register */
 455:Generated_Source\PSoC6\pdl\cmsis/include/core_cm4.h ****   __IOM uint32_t AFSR;                   /*!< Offset: 0x03C (R/W)  Auxiliary Fault Status Register 
 456:Generated_Source\PSoC6\pdl\cmsis/include/core_cm4.h ****   __IM  uint32_t PFR[2U];                /*!< Offset: 0x040 (R/ )  Processor Feature Register */
 457:Generated_Source\PSoC6\pdl\cmsis/include/core_cm4.h ****   __IM  uint32_t DFR;                    /*!< Offset: 0x048 (R/ )  Debug Feature Register */
 458:Generated_Source\PSoC6\pdl\cmsis/include/core_cm4.h ****   __IM  uint32_t ADR;                    /*!< Offset: 0x04C (R/ )  Auxiliary Feature Register */
 459:Generated_Source\PSoC6\pdl\cmsis/include/core_cm4.h ****   __IM  uint32_t MMFR[4U];               /*!< Offset: 0x050 (R/ )  Memory Model Feature Register */
 460:Generated_Source\PSoC6\pdl\cmsis/include/core_cm4.h ****   __IM  uint32_t ISAR[5U];               /*!< Offset: 0x060 (R/ )  Instruction Set Attributes Regis
 461:Generated_Source\PSoC6\pdl\cmsis/include/core_cm4.h ****         uint32_t RESERVED0[5U];
 462:Generated_Source\PSoC6\pdl\cmsis/include/core_cm4.h ****   __IOM uint32_t CPACR;                  /*!< Offset: 0x088 (R/W)  Coprocessor Access Control Regis
 463:Generated_Source\PSoC6\pdl\cmsis/include/core_cm4.h **** } SCB_Type;
ARM GAS  C:\Users\Mathieu\AppData\Local\Temp\ccqdbTbw.s 			page 87


 464:Generated_Source\PSoC6\pdl\cmsis/include/core_cm4.h **** 
 465:Generated_Source\PSoC6\pdl\cmsis/include/core_cm4.h **** /* SCB CPUID Register Definitions */
 466:Generated_Source\PSoC6\pdl\cmsis/include/core_cm4.h **** #define SCB_CPUID_IMPLEMENTER_Pos          24U                                            /*!< SCB 
 467:Generated_Source\PSoC6\pdl\cmsis/include/core_cm4.h **** #define SCB_CPUID_IMPLEMENTER_Msk          (0xFFUL << SCB_CPUID_IMPLEMENTER_Pos)          /*!< SCB 
 468:Generated_Source\PSoC6\pdl\cmsis/include/core_cm4.h **** 
 469:Generated_Source\PSoC6\pdl\cmsis/include/core_cm4.h **** #define SCB_CPUID_VARIANT_Pos              20U                                            /*!< SCB 
 470:Generated_Source\PSoC6\pdl\cmsis/include/core_cm4.h **** #define SCB_CPUID_VARIANT_Msk              (0xFUL << SCB_CPUID_VARIANT_Pos)               /*!< SCB 
 471:Generated_Source\PSoC6\pdl\cmsis/include/core_cm4.h **** 
 472:Generated_Source\PSoC6\pdl\cmsis/include/core_cm4.h **** #define SCB_CPUID_ARCHITECTURE_Pos         16U                                            /*!< SCB 
 473:Generated_Source\PSoC6\pdl\cmsis/include/core_cm4.h **** #define SCB_CPUID_ARCHITECTURE_Msk         (0xFUL << SCB_CPUID_ARCHITECTURE_Pos)          /*!< SCB 
 474:Generated_Source\PSoC6\pdl\cmsis/include/core_cm4.h **** 
 475:Generated_Source\PSoC6\pdl\cmsis/include/core_cm4.h **** #define SCB_CPUID_PARTNO_Pos                4U                                            /*!< SCB 
 476:Generated_Source\PSoC6\pdl\cmsis/include/core_cm4.h **** #define SCB_CPUID_PARTNO_Msk               (0xFFFUL << SCB_CPUID_PARTNO_Pos)              /*!< SCB 
 477:Generated_Source\PSoC6\pdl\cmsis/include/core_cm4.h **** 
 478:Generated_Source\PSoC6\pdl\cmsis/include/core_cm4.h **** #define SCB_CPUID_REVISION_Pos              0U                                            /*!< SCB 
 479:Generated_Source\PSoC6\pdl\cmsis/include/core_cm4.h **** #define SCB_CPUID_REVISION_Msk             (0xFUL /*<< SCB_CPUID_REVISION_Pos*/)          /*!< SCB 
 480:Generated_Source\PSoC6\pdl\cmsis/include/core_cm4.h **** 
 481:Generated_Source\PSoC6\pdl\cmsis/include/core_cm4.h **** /* SCB Interrupt Control State Register Definitions */
 482:Generated_Source\PSoC6\pdl\cmsis/include/core_cm4.h **** #define SCB_ICSR_NMIPENDSET_Pos            31U                                            /*!< SCB 
 483:Generated_Source\PSoC6\pdl\cmsis/include/core_cm4.h **** #define SCB_ICSR_NMIPENDSET_Msk            (1UL << SCB_ICSR_NMIPENDSET_Pos)               /*!< SCB 
 484:Generated_Source\PSoC6\pdl\cmsis/include/core_cm4.h **** 
 485:Generated_Source\PSoC6\pdl\cmsis/include/core_cm4.h **** #define SCB_ICSR_PENDSVSET_Pos             28U                                            /*!< SCB 
 486:Generated_Source\PSoC6\pdl\cmsis/include/core_cm4.h **** #define SCB_ICSR_PENDSVSET_Msk             (1UL << SCB_ICSR_PENDSVSET_Pos)                /*!< SCB 
 487:Generated_Source\PSoC6\pdl\cmsis/include/core_cm4.h **** 
 488:Generated_Source\PSoC6\pdl\cmsis/include/core_cm4.h **** #define SCB_ICSR_PENDSVCLR_Pos             27U                                            /*!< SCB 
 489:Generated_Source\PSoC6\pdl\cmsis/include/core_cm4.h **** #define SCB_ICSR_PENDSVCLR_Msk             (1UL << SCB_ICSR_PENDSVCLR_Pos)                /*!< SCB 
 490:Generated_Source\PSoC6\pdl\cmsis/include/core_cm4.h **** 
 491:Generated_Source\PSoC6\pdl\cmsis/include/core_cm4.h **** #define SCB_ICSR_PENDSTSET_Pos             26U                                            /*!< SCB 
 492:Generated_Source\PSoC6\pdl\cmsis/include/core_cm4.h **** #define SCB_ICSR_PENDSTSET_Msk             (1UL << SCB_ICSR_PENDSTSET_Pos)                /*!< SCB 
 493:Generated_Source\PSoC6\pdl\cmsis/include/core_cm4.h **** 
 494:Generated_Source\PSoC6\pdl\cmsis/include/core_cm4.h **** #define SCB_ICSR_PENDSTCLR_Pos             25U                                            /*!< SCB 
 495:Generated_Source\PSoC6\pdl\cmsis/include/core_cm4.h **** #define SCB_ICSR_PENDSTCLR_Msk             (1UL << SCB_ICSR_PENDSTCLR_Pos)                /*!< SCB 
 496:Generated_Source\PSoC6\pdl\cmsis/include/core_cm4.h **** 
 497:Generated_Source\PSoC6\pdl\cmsis/include/core_cm4.h **** #define SCB_ICSR_ISRPREEMPT_Pos            23U                                            /*!< SCB 
 498:Generated_Source\PSoC6\pdl\cmsis/include/core_cm4.h **** #define SCB_ICSR_ISRPREEMPT_Msk            (1UL << SCB_ICSR_ISRPREEMPT_Pos)               /*!< SCB 
 499:Generated_Source\PSoC6\pdl\cmsis/include/core_cm4.h **** 
 500:Generated_Source\PSoC6\pdl\cmsis/include/core_cm4.h **** #define SCB_ICSR_ISRPENDING_Pos            22U                                            /*!< SCB 
 501:Generated_Source\PSoC6\pdl\cmsis/include/core_cm4.h **** #define SCB_ICSR_ISRPENDING_Msk            (1UL << SCB_ICSR_ISRPENDING_Pos)               /*!< SCB 
 502:Generated_Source\PSoC6\pdl\cmsis/include/core_cm4.h **** 
 503:Generated_Source\PSoC6\pdl\cmsis/include/core_cm4.h **** #define SCB_ICSR_VECTPENDING_Pos           12U                                            /*!< SCB 
 504:Generated_Source\PSoC6\pdl\cmsis/include/core_cm4.h **** #define SCB_ICSR_VECTPENDING_Msk           (0x1FFUL << SCB_ICSR_VECTPENDING_Pos)          /*!< SCB 
 505:Generated_Source\PSoC6\pdl\cmsis/include/core_cm4.h **** 
 506:Generated_Source\PSoC6\pdl\cmsis/include/core_cm4.h **** #define SCB_ICSR_RETTOBASE_Pos             11U                                            /*!< SCB 
 507:Generated_Source\PSoC6\pdl\cmsis/include/core_cm4.h **** #define SCB_ICSR_RETTOBASE_Msk             (1UL << SCB_ICSR_RETTOBASE_Pos)                /*!< SCB 
 508:Generated_Source\PSoC6\pdl\cmsis/include/core_cm4.h **** 
 509:Generated_Source\PSoC6\pdl\cmsis/include/core_cm4.h **** #define SCB_ICSR_VECTACTIVE_Pos             0U                                            /*!< SCB 
 510:Generated_Source\PSoC6\pdl\cmsis/include/core_cm4.h **** #define SCB_ICSR_VECTACTIVE_Msk            (0x1FFUL /*<< SCB_ICSR_VECTACTIVE_Pos*/)       /*!< SCB 
 511:Generated_Source\PSoC6\pdl\cmsis/include/core_cm4.h **** 
 512:Generated_Source\PSoC6\pdl\cmsis/include/core_cm4.h **** /* SCB Vector Table Offset Register Definitions */
 513:Generated_Source\PSoC6\pdl\cmsis/include/core_cm4.h **** #define SCB_VTOR_TBLOFF_Pos                 7U                                            /*!< SCB 
 514:Generated_Source\PSoC6\pdl\cmsis/include/core_cm4.h **** #define SCB_VTOR_TBLOFF_Msk                (0x1FFFFFFUL << SCB_VTOR_TBLOFF_Pos)           /*!< SCB 
 515:Generated_Source\PSoC6\pdl\cmsis/include/core_cm4.h **** 
 516:Generated_Source\PSoC6\pdl\cmsis/include/core_cm4.h **** /* SCB Application Interrupt and Reset Control Register Definitions */
 517:Generated_Source\PSoC6\pdl\cmsis/include/core_cm4.h **** #define SCB_AIRCR_VECTKEY_Pos              16U                                            /*!< SCB 
 518:Generated_Source\PSoC6\pdl\cmsis/include/core_cm4.h **** #define SCB_AIRCR_VECTKEY_Msk              (0xFFFFUL << SCB_AIRCR_VECTKEY_Pos)            /*!< SCB 
 519:Generated_Source\PSoC6\pdl\cmsis/include/core_cm4.h **** 
 520:Generated_Source\PSoC6\pdl\cmsis/include/core_cm4.h **** #define SCB_AIRCR_VECTKEYSTAT_Pos          16U                                            /*!< SCB 
ARM GAS  C:\Users\Mathieu\AppData\Local\Temp\ccqdbTbw.s 			page 88


 521:Generated_Source\PSoC6\pdl\cmsis/include/core_cm4.h **** #define SCB_AIRCR_VECTKEYSTAT_Msk          (0xFFFFUL << SCB_AIRCR_VECTKEYSTAT_Pos)        /*!< SCB 
 522:Generated_Source\PSoC6\pdl\cmsis/include/core_cm4.h **** 
 523:Generated_Source\PSoC6\pdl\cmsis/include/core_cm4.h **** #define SCB_AIRCR_ENDIANESS_Pos            15U                                            /*!< SCB 
 524:Generated_Source\PSoC6\pdl\cmsis/include/core_cm4.h **** #define SCB_AIRCR_ENDIANESS_Msk            (1UL << SCB_AIRCR_ENDIANESS_Pos)               /*!< SCB 
 525:Generated_Source\PSoC6\pdl\cmsis/include/core_cm4.h **** 
 526:Generated_Source\PSoC6\pdl\cmsis/include/core_cm4.h **** #define SCB_AIRCR_PRIGROUP_Pos              8U                                            /*!< SCB 
 527:Generated_Source\PSoC6\pdl\cmsis/include/core_cm4.h **** #define SCB_AIRCR_PRIGROUP_Msk             (7UL << SCB_AIRCR_PRIGROUP_Pos)                /*!< SCB 
 528:Generated_Source\PSoC6\pdl\cmsis/include/core_cm4.h **** 
 529:Generated_Source\PSoC6\pdl\cmsis/include/core_cm4.h **** #define SCB_AIRCR_SYSRESETREQ_Pos           2U                                            /*!< SCB 
 530:Generated_Source\PSoC6\pdl\cmsis/include/core_cm4.h **** #define SCB_AIRCR_SYSRESETREQ_Msk          (1UL << SCB_AIRCR_SYSRESETREQ_Pos)             /*!< SCB 
 531:Generated_Source\PSoC6\pdl\cmsis/include/core_cm4.h **** 
 532:Generated_Source\PSoC6\pdl\cmsis/include/core_cm4.h **** #define SCB_AIRCR_VECTCLRACTIVE_Pos         1U                                            /*!< SCB 
 533:Generated_Source\PSoC6\pdl\cmsis/include/core_cm4.h **** #define SCB_AIRCR_VECTCLRACTIVE_Msk        (1UL << SCB_AIRCR_VECTCLRACTIVE_Pos)           /*!< SCB 
 534:Generated_Source\PSoC6\pdl\cmsis/include/core_cm4.h **** 
 535:Generated_Source\PSoC6\pdl\cmsis/include/core_cm4.h **** #define SCB_AIRCR_VECTRESET_Pos             0U                                            /*!< SCB 
 536:Generated_Source\PSoC6\pdl\cmsis/include/core_cm4.h **** #define SCB_AIRCR_VECTRESET_Msk            (1UL /*<< SCB_AIRCR_VECTRESET_Pos*/)           /*!< SCB 
 537:Generated_Source\PSoC6\pdl\cmsis/include/core_cm4.h **** 
 538:Generated_Source\PSoC6\pdl\cmsis/include/core_cm4.h **** /* SCB System Control Register Definitions */
 539:Generated_Source\PSoC6\pdl\cmsis/include/core_cm4.h **** #define SCB_SCR_SEVONPEND_Pos               4U                                            /*!< SCB 
 540:Generated_Source\PSoC6\pdl\cmsis/include/core_cm4.h **** #define SCB_SCR_SEVONPEND_Msk              (1UL << SCB_SCR_SEVONPEND_Pos)                 /*!< SCB 
 541:Generated_Source\PSoC6\pdl\cmsis/include/core_cm4.h **** 
 542:Generated_Source\PSoC6\pdl\cmsis/include/core_cm4.h **** #define SCB_SCR_SLEEPDEEP_Pos               2U                                            /*!< SCB 
 543:Generated_Source\PSoC6\pdl\cmsis/include/core_cm4.h **** #define SCB_SCR_SLEEPDEEP_Msk              (1UL << SCB_SCR_SLEEPDEEP_Pos)                 /*!< SCB 
 544:Generated_Source\PSoC6\pdl\cmsis/include/core_cm4.h **** 
 545:Generated_Source\PSoC6\pdl\cmsis/include/core_cm4.h **** #define SCB_SCR_SLEEPONEXIT_Pos             1U                                            /*!< SCB 
 546:Generated_Source\PSoC6\pdl\cmsis/include/core_cm4.h **** #define SCB_SCR_SLEEPONEXIT_Msk            (1UL << SCB_SCR_SLEEPONEXIT_Pos)               /*!< SCB 
 547:Generated_Source\PSoC6\pdl\cmsis/include/core_cm4.h **** 
 548:Generated_Source\PSoC6\pdl\cmsis/include/core_cm4.h **** /* SCB Configuration Control Register Definitions */
 549:Generated_Source\PSoC6\pdl\cmsis/include/core_cm4.h **** #define SCB_CCR_STKALIGN_Pos                9U                                            /*!< SCB 
 550:Generated_Source\PSoC6\pdl\cmsis/include/core_cm4.h **** #define SCB_CCR_STKALIGN_Msk               (1UL << SCB_CCR_STKALIGN_Pos)                  /*!< SCB 
 551:Generated_Source\PSoC6\pdl\cmsis/include/core_cm4.h **** 
 552:Generated_Source\PSoC6\pdl\cmsis/include/core_cm4.h **** #define SCB_CCR_BFHFNMIGN_Pos               8U                                            /*!< SCB 
 553:Generated_Source\PSoC6\pdl\cmsis/include/core_cm4.h **** #define SCB_CCR_BFHFNMIGN_Msk              (1UL << SCB_CCR_BFHFNMIGN_Pos)                 /*!< SCB 
 554:Generated_Source\PSoC6\pdl\cmsis/include/core_cm4.h **** 
 555:Generated_Source\PSoC6\pdl\cmsis/include/core_cm4.h **** #define SCB_CCR_DIV_0_TRP_Pos               4U                                            /*!< SCB 
 556:Generated_Source\PSoC6\pdl\cmsis/include/core_cm4.h **** #define SCB_CCR_DIV_0_TRP_Msk              (1UL << SCB_CCR_DIV_0_TRP_Pos)                 /*!< SCB 
 557:Generated_Source\PSoC6\pdl\cmsis/include/core_cm4.h **** 
 558:Generated_Source\PSoC6\pdl\cmsis/include/core_cm4.h **** #define SCB_CCR_UNALIGN_TRP_Pos             3U                                            /*!< SCB 
 559:Generated_Source\PSoC6\pdl\cmsis/include/core_cm4.h **** #define SCB_CCR_UNALIGN_TRP_Msk            (1UL << SCB_CCR_UNALIGN_TRP_Pos)               /*!< SCB 
 560:Generated_Source\PSoC6\pdl\cmsis/include/core_cm4.h **** 
 561:Generated_Source\PSoC6\pdl\cmsis/include/core_cm4.h **** #define SCB_CCR_USERSETMPEND_Pos            1U                                            /*!< SCB 
 562:Generated_Source\PSoC6\pdl\cmsis/include/core_cm4.h **** #define SCB_CCR_USERSETMPEND_Msk           (1UL << SCB_CCR_USERSETMPEND_Pos)              /*!< SCB 
 563:Generated_Source\PSoC6\pdl\cmsis/include/core_cm4.h **** 
 564:Generated_Source\PSoC6\pdl\cmsis/include/core_cm4.h **** #define SCB_CCR_NONBASETHRDENA_Pos          0U                                            /*!< SCB 
 565:Generated_Source\PSoC6\pdl\cmsis/include/core_cm4.h **** #define SCB_CCR_NONBASETHRDENA_Msk         (1UL /*<< SCB_CCR_NONBASETHRDENA_Pos*/)        /*!< SCB 
 566:Generated_Source\PSoC6\pdl\cmsis/include/core_cm4.h **** 
 567:Generated_Source\PSoC6\pdl\cmsis/include/core_cm4.h **** /* SCB System Handler Control and State Register Definitions */
 568:Generated_Source\PSoC6\pdl\cmsis/include/core_cm4.h **** #define SCB_SHCSR_USGFAULTENA_Pos          18U                                            /*!< SCB 
 569:Generated_Source\PSoC6\pdl\cmsis/include/core_cm4.h **** #define SCB_SHCSR_USGFAULTENA_Msk          (1UL << SCB_SHCSR_USGFAULTENA_Pos)             /*!< SCB 
 570:Generated_Source\PSoC6\pdl\cmsis/include/core_cm4.h **** 
 571:Generated_Source\PSoC6\pdl\cmsis/include/core_cm4.h **** #define SCB_SHCSR_BUSFAULTENA_Pos          17U                                            /*!< SCB 
 572:Generated_Source\PSoC6\pdl\cmsis/include/core_cm4.h **** #define SCB_SHCSR_BUSFAULTENA_Msk          (1UL << SCB_SHCSR_BUSFAULTENA_Pos)             /*!< SCB 
 573:Generated_Source\PSoC6\pdl\cmsis/include/core_cm4.h **** 
 574:Generated_Source\PSoC6\pdl\cmsis/include/core_cm4.h **** #define SCB_SHCSR_MEMFAULTENA_Pos          16U                                            /*!< SCB 
 575:Generated_Source\PSoC6\pdl\cmsis/include/core_cm4.h **** #define SCB_SHCSR_MEMFAULTENA_Msk          (1UL << SCB_SHCSR_MEMFAULTENA_Pos)             /*!< SCB 
 576:Generated_Source\PSoC6\pdl\cmsis/include/core_cm4.h **** 
 577:Generated_Source\PSoC6\pdl\cmsis/include/core_cm4.h **** #define SCB_SHCSR_SVCALLPENDED_Pos         15U                                            /*!< SCB 
ARM GAS  C:\Users\Mathieu\AppData\Local\Temp\ccqdbTbw.s 			page 89


 578:Generated_Source\PSoC6\pdl\cmsis/include/core_cm4.h **** #define SCB_SHCSR_SVCALLPENDED_Msk         (1UL << SCB_SHCSR_SVCALLPENDED_Pos)            /*!< SCB 
 579:Generated_Source\PSoC6\pdl\cmsis/include/core_cm4.h **** 
 580:Generated_Source\PSoC6\pdl\cmsis/include/core_cm4.h **** #define SCB_SHCSR_BUSFAULTPENDED_Pos       14U                                            /*!< SCB 
 581:Generated_Source\PSoC6\pdl\cmsis/include/core_cm4.h **** #define SCB_SHCSR_BUSFAULTPENDED_Msk       (1UL << SCB_SHCSR_BUSFAULTPENDED_Pos)          /*!< SCB 
 582:Generated_Source\PSoC6\pdl\cmsis/include/core_cm4.h **** 
 583:Generated_Source\PSoC6\pdl\cmsis/include/core_cm4.h **** #define SCB_SHCSR_MEMFAULTPENDED_Pos       13U                                            /*!< SCB 
 584:Generated_Source\PSoC6\pdl\cmsis/include/core_cm4.h **** #define SCB_SHCSR_MEMFAULTPENDED_Msk       (1UL << SCB_SHCSR_MEMFAULTPENDED_Pos)          /*!< SCB 
 585:Generated_Source\PSoC6\pdl\cmsis/include/core_cm4.h **** 
 586:Generated_Source\PSoC6\pdl\cmsis/include/core_cm4.h **** #define SCB_SHCSR_USGFAULTPENDED_Pos       12U                                            /*!< SCB 
 587:Generated_Source\PSoC6\pdl\cmsis/include/core_cm4.h **** #define SCB_SHCSR_USGFAULTPENDED_Msk       (1UL << SCB_SHCSR_USGFAULTPENDED_Pos)          /*!< SCB 
 588:Generated_Source\PSoC6\pdl\cmsis/include/core_cm4.h **** 
 589:Generated_Source\PSoC6\pdl\cmsis/include/core_cm4.h **** #define SCB_SHCSR_SYSTICKACT_Pos           11U                                            /*!< SCB 
 590:Generated_Source\PSoC6\pdl\cmsis/include/core_cm4.h **** #define SCB_SHCSR_SYSTICKACT_Msk           (1UL << SCB_SHCSR_SYSTICKACT_Pos)              /*!< SCB 
 591:Generated_Source\PSoC6\pdl\cmsis/include/core_cm4.h **** 
 592:Generated_Source\PSoC6\pdl\cmsis/include/core_cm4.h **** #define SCB_SHCSR_PENDSVACT_Pos            10U                                            /*!< SCB 
 593:Generated_Source\PSoC6\pdl\cmsis/include/core_cm4.h **** #define SCB_SHCSR_PENDSVACT_Msk            (1UL << SCB_SHCSR_PENDSVACT_Pos)               /*!< SCB 
 594:Generated_Source\PSoC6\pdl\cmsis/include/core_cm4.h **** 
 595:Generated_Source\PSoC6\pdl\cmsis/include/core_cm4.h **** #define SCB_SHCSR_MONITORACT_Pos            8U                                            /*!< SCB 
 596:Generated_Source\PSoC6\pdl\cmsis/include/core_cm4.h **** #define SCB_SHCSR_MONITORACT_Msk           (1UL << SCB_SHCSR_MONITORACT_Pos)              /*!< SCB 
 597:Generated_Source\PSoC6\pdl\cmsis/include/core_cm4.h **** 
 598:Generated_Source\PSoC6\pdl\cmsis/include/core_cm4.h **** #define SCB_SHCSR_SVCALLACT_Pos             7U                                            /*!< SCB 
 599:Generated_Source\PSoC6\pdl\cmsis/include/core_cm4.h **** #define SCB_SHCSR_SVCALLACT_Msk            (1UL << SCB_SHCSR_SVCALLACT_Pos)               /*!< SCB 
 600:Generated_Source\PSoC6\pdl\cmsis/include/core_cm4.h **** 
 601:Generated_Source\PSoC6\pdl\cmsis/include/core_cm4.h **** #define SCB_SHCSR_USGFAULTACT_Pos           3U                                            /*!< SCB 
 602:Generated_Source\PSoC6\pdl\cmsis/include/core_cm4.h **** #define SCB_SHCSR_USGFAULTACT_Msk          (1UL << SCB_SHCSR_USGFAULTACT_Pos)             /*!< SCB 
 603:Generated_Source\PSoC6\pdl\cmsis/include/core_cm4.h **** 
 604:Generated_Source\PSoC6\pdl\cmsis/include/core_cm4.h **** #define SCB_SHCSR_BUSFAULTACT_Pos           1U                                            /*!< SCB 
 605:Generated_Source\PSoC6\pdl\cmsis/include/core_cm4.h **** #define SCB_SHCSR_BUSFAULTACT_Msk          (1UL << SCB_SHCSR_BUSFAULTACT_Pos)             /*!< SCB 
 606:Generated_Source\PSoC6\pdl\cmsis/include/core_cm4.h **** 
 607:Generated_Source\PSoC6\pdl\cmsis/include/core_cm4.h **** #define SCB_SHCSR_MEMFAULTACT_Pos           0U                                            /*!< SCB 
 608:Generated_Source\PSoC6\pdl\cmsis/include/core_cm4.h **** #define SCB_SHCSR_MEMFAULTACT_Msk          (1UL /*<< SCB_SHCSR_MEMFAULTACT_Pos*/)         /*!< SCB 
 609:Generated_Source\PSoC6\pdl\cmsis/include/core_cm4.h **** 
 610:Generated_Source\PSoC6\pdl\cmsis/include/core_cm4.h **** /* SCB Configurable Fault Status Register Definitions */
 611:Generated_Source\PSoC6\pdl\cmsis/include/core_cm4.h **** #define SCB_CFSR_USGFAULTSR_Pos            16U                                            /*!< SCB 
 612:Generated_Source\PSoC6\pdl\cmsis/include/core_cm4.h **** #define SCB_CFSR_USGFAULTSR_Msk            (0xFFFFUL << SCB_CFSR_USGFAULTSR_Pos)          /*!< SCB 
 613:Generated_Source\PSoC6\pdl\cmsis/include/core_cm4.h **** 
 614:Generated_Source\PSoC6\pdl\cmsis/include/core_cm4.h **** #define SCB_CFSR_BUSFAULTSR_Pos             8U                                            /*!< SCB 
 615:Generated_Source\PSoC6\pdl\cmsis/include/core_cm4.h **** #define SCB_CFSR_BUSFAULTSR_Msk            (0xFFUL << SCB_CFSR_BUSFAULTSR_Pos)            /*!< SCB 
 616:Generated_Source\PSoC6\pdl\cmsis/include/core_cm4.h **** 
 617:Generated_Source\PSoC6\pdl\cmsis/include/core_cm4.h **** #define SCB_CFSR_MEMFAULTSR_Pos             0U                                            /*!< SCB 
 618:Generated_Source\PSoC6\pdl\cmsis/include/core_cm4.h **** #define SCB_CFSR_MEMFAULTSR_Msk            (0xFFUL /*<< SCB_CFSR_MEMFAULTSR_Pos*/)        /*!< SCB 
 619:Generated_Source\PSoC6\pdl\cmsis/include/core_cm4.h **** 
 620:Generated_Source\PSoC6\pdl\cmsis/include/core_cm4.h **** /* MemManage Fault Status Register (part of SCB Configurable Fault Status Register) */
 621:Generated_Source\PSoC6\pdl\cmsis/include/core_cm4.h **** #define SCB_CFSR_MMARVALID_Pos             (SCB_SHCSR_MEMFAULTACT_Pos + 7U)               /*!< SCB 
 622:Generated_Source\PSoC6\pdl\cmsis/include/core_cm4.h **** #define SCB_CFSR_MMARVALID_Msk             (1UL << SCB_CFSR_MMARVALID_Pos)                /*!< SCB 
 623:Generated_Source\PSoC6\pdl\cmsis/include/core_cm4.h **** 
 624:Generated_Source\PSoC6\pdl\cmsis/include/core_cm4.h **** #define SCB_CFSR_MLSPERR_Pos               (SCB_SHCSR_MEMFAULTACT_Pos + 5U)               /*!< SCB 
 625:Generated_Source\PSoC6\pdl\cmsis/include/core_cm4.h **** #define SCB_CFSR_MLSPERR_Msk               (1UL << SCB_CFSR_MLSPERR_Pos)                  /*!< SCB 
 626:Generated_Source\PSoC6\pdl\cmsis/include/core_cm4.h **** 
 627:Generated_Source\PSoC6\pdl\cmsis/include/core_cm4.h **** #define SCB_CFSR_MSTKERR_Pos               (SCB_SHCSR_MEMFAULTACT_Pos + 4U)               /*!< SCB 
 628:Generated_Source\PSoC6\pdl\cmsis/include/core_cm4.h **** #define SCB_CFSR_MSTKERR_Msk               (1UL << SCB_CFSR_MSTKERR_Pos)                  /*!< SCB 
 629:Generated_Source\PSoC6\pdl\cmsis/include/core_cm4.h **** 
 630:Generated_Source\PSoC6\pdl\cmsis/include/core_cm4.h **** #define SCB_CFSR_MUNSTKERR_Pos             (SCB_SHCSR_MEMFAULTACT_Pos + 3U)               /*!< SCB 
 631:Generated_Source\PSoC6\pdl\cmsis/include/core_cm4.h **** #define SCB_CFSR_MUNSTKERR_Msk             (1UL << SCB_CFSR_MUNSTKERR_Pos)                /*!< SCB 
 632:Generated_Source\PSoC6\pdl\cmsis/include/core_cm4.h **** 
 633:Generated_Source\PSoC6\pdl\cmsis/include/core_cm4.h **** #define SCB_CFSR_DACCVIOL_Pos              (SCB_SHCSR_MEMFAULTACT_Pos + 1U)               /*!< SCB 
 634:Generated_Source\PSoC6\pdl\cmsis/include/core_cm4.h **** #define SCB_CFSR_DACCVIOL_Msk              (1UL << SCB_CFSR_DACCVIOL_Pos)                 /*!< SCB 
ARM GAS  C:\Users\Mathieu\AppData\Local\Temp\ccqdbTbw.s 			page 90


 635:Generated_Source\PSoC6\pdl\cmsis/include/core_cm4.h **** 
 636:Generated_Source\PSoC6\pdl\cmsis/include/core_cm4.h **** #define SCB_CFSR_IACCVIOL_Pos              (SCB_SHCSR_MEMFAULTACT_Pos + 0U)               /*!< SCB 
 637:Generated_Source\PSoC6\pdl\cmsis/include/core_cm4.h **** #define SCB_CFSR_IACCVIOL_Msk              (1UL /*<< SCB_CFSR_IACCVIOL_Pos*/)             /*!< SCB 
 638:Generated_Source\PSoC6\pdl\cmsis/include/core_cm4.h **** 
 639:Generated_Source\PSoC6\pdl\cmsis/include/core_cm4.h **** /* BusFault Status Register (part of SCB Configurable Fault Status Register) */
 640:Generated_Source\PSoC6\pdl\cmsis/include/core_cm4.h **** #define SCB_CFSR_BFARVALID_Pos            (SCB_CFSR_BUSFAULTSR_Pos + 7U)                  /*!< SCB 
 641:Generated_Source\PSoC6\pdl\cmsis/include/core_cm4.h **** #define SCB_CFSR_BFARVALID_Msk            (1UL << SCB_CFSR_BFARVALID_Pos)                 /*!< SCB 
 642:Generated_Source\PSoC6\pdl\cmsis/include/core_cm4.h **** 
 643:Generated_Source\PSoC6\pdl\cmsis/include/core_cm4.h **** #define SCB_CFSR_LSPERR_Pos               (SCB_CFSR_BUSFAULTSR_Pos + 5U)                  /*!< SCB 
 644:Generated_Source\PSoC6\pdl\cmsis/include/core_cm4.h **** #define SCB_CFSR_LSPERR_Msk               (1UL << SCB_CFSR_LSPERR_Pos)                    /*!< SCB 
 645:Generated_Source\PSoC6\pdl\cmsis/include/core_cm4.h **** 
 646:Generated_Source\PSoC6\pdl\cmsis/include/core_cm4.h **** #define SCB_CFSR_STKERR_Pos               (SCB_CFSR_BUSFAULTSR_Pos + 4U)                  /*!< SCB 
 647:Generated_Source\PSoC6\pdl\cmsis/include/core_cm4.h **** #define SCB_CFSR_STKERR_Msk               (1UL << SCB_CFSR_STKERR_Pos)                    /*!< SCB 
 648:Generated_Source\PSoC6\pdl\cmsis/include/core_cm4.h **** 
 649:Generated_Source\PSoC6\pdl\cmsis/include/core_cm4.h **** #define SCB_CFSR_UNSTKERR_Pos             (SCB_CFSR_BUSFAULTSR_Pos + 3U)                  /*!< SCB 
 650:Generated_Source\PSoC6\pdl\cmsis/include/core_cm4.h **** #define SCB_CFSR_UNSTKERR_Msk             (1UL << SCB_CFSR_UNSTKERR_Pos)                  /*!< SCB 
 651:Generated_Source\PSoC6\pdl\cmsis/include/core_cm4.h **** 
 652:Generated_Source\PSoC6\pdl\cmsis/include/core_cm4.h **** #define SCB_CFSR_IMPRECISERR_Pos          (SCB_CFSR_BUSFAULTSR_Pos + 2U)                  /*!< SCB 
 653:Generated_Source\PSoC6\pdl\cmsis/include/core_cm4.h **** #define SCB_CFSR_IMPRECISERR_Msk          (1UL << SCB_CFSR_IMPRECISERR_Pos)               /*!< SCB 
 654:Generated_Source\PSoC6\pdl\cmsis/include/core_cm4.h **** 
 655:Generated_Source\PSoC6\pdl\cmsis/include/core_cm4.h **** #define SCB_CFSR_PRECISERR_Pos            (SCB_CFSR_BUSFAULTSR_Pos + 1U)                  /*!< SCB 
 656:Generated_Source\PSoC6\pdl\cmsis/include/core_cm4.h **** #define SCB_CFSR_PRECISERR_Msk            (1UL << SCB_CFSR_PRECISERR_Pos)                 /*!< SCB 
 657:Generated_Source\PSoC6\pdl\cmsis/include/core_cm4.h **** 
 658:Generated_Source\PSoC6\pdl\cmsis/include/core_cm4.h **** #define SCB_CFSR_IBUSERR_Pos              (SCB_CFSR_BUSFAULTSR_Pos + 0U)                  /*!< SCB 
 659:Generated_Source\PSoC6\pdl\cmsis/include/core_cm4.h **** #define SCB_CFSR_IBUSERR_Msk              (1UL << SCB_CFSR_IBUSERR_Pos)                   /*!< SCB 
 660:Generated_Source\PSoC6\pdl\cmsis/include/core_cm4.h **** 
 661:Generated_Source\PSoC6\pdl\cmsis/include/core_cm4.h **** /* UsageFault Status Register (part of SCB Configurable Fault Status Register) */
 662:Generated_Source\PSoC6\pdl\cmsis/include/core_cm4.h **** #define SCB_CFSR_DIVBYZERO_Pos            (SCB_CFSR_USGFAULTSR_Pos + 9U)                  /*!< SCB 
 663:Generated_Source\PSoC6\pdl\cmsis/include/core_cm4.h **** #define SCB_CFSR_DIVBYZERO_Msk            (1UL << SCB_CFSR_DIVBYZERO_Pos)                 /*!< SCB 
 664:Generated_Source\PSoC6\pdl\cmsis/include/core_cm4.h **** 
 665:Generated_Source\PSoC6\pdl\cmsis/include/core_cm4.h **** #define SCB_CFSR_UNALIGNED_Pos            (SCB_CFSR_USGFAULTSR_Pos + 8U)                  /*!< SCB 
 666:Generated_Source\PSoC6\pdl\cmsis/include/core_cm4.h **** #define SCB_CFSR_UNALIGNED_Msk            (1UL << SCB_CFSR_UNALIGNED_Pos)                 /*!< SCB 
 667:Generated_Source\PSoC6\pdl\cmsis/include/core_cm4.h **** 
 668:Generated_Source\PSoC6\pdl\cmsis/include/core_cm4.h **** #define SCB_CFSR_NOCP_Pos                 (SCB_CFSR_USGFAULTSR_Pos + 3U)                  /*!< SCB 
 669:Generated_Source\PSoC6\pdl\cmsis/include/core_cm4.h **** #define SCB_CFSR_NOCP_Msk                 (1UL << SCB_CFSR_NOCP_Pos)                      /*!< SCB 
 670:Generated_Source\PSoC6\pdl\cmsis/include/core_cm4.h **** 
 671:Generated_Source\PSoC6\pdl\cmsis/include/core_cm4.h **** #define SCB_CFSR_INVPC_Pos                (SCB_CFSR_USGFAULTSR_Pos + 2U)                  /*!< SCB 
 672:Generated_Source\PSoC6\pdl\cmsis/include/core_cm4.h **** #define SCB_CFSR_INVPC_Msk                (1UL << SCB_CFSR_INVPC_Pos)                     /*!< SCB 
 673:Generated_Source\PSoC6\pdl\cmsis/include/core_cm4.h **** 
 674:Generated_Source\PSoC6\pdl\cmsis/include/core_cm4.h **** #define SCB_CFSR_INVSTATE_Pos             (SCB_CFSR_USGFAULTSR_Pos + 1U)                  /*!< SCB 
 675:Generated_Source\PSoC6\pdl\cmsis/include/core_cm4.h **** #define SCB_CFSR_INVSTATE_Msk             (1UL << SCB_CFSR_INVSTATE_Pos)                  /*!< SCB 
 676:Generated_Source\PSoC6\pdl\cmsis/include/core_cm4.h **** 
 677:Generated_Source\PSoC6\pdl\cmsis/include/core_cm4.h **** #define SCB_CFSR_UNDEFINSTR_Pos           (SCB_CFSR_USGFAULTSR_Pos + 0U)                  /*!< SCB 
 678:Generated_Source\PSoC6\pdl\cmsis/include/core_cm4.h **** #define SCB_CFSR_UNDEFINSTR_Msk           (1UL << SCB_CFSR_UNDEFINSTR_Pos)                /*!< SCB 
 679:Generated_Source\PSoC6\pdl\cmsis/include/core_cm4.h **** 
 680:Generated_Source\PSoC6\pdl\cmsis/include/core_cm4.h **** /* SCB Hard Fault Status Register Definitions */
 681:Generated_Source\PSoC6\pdl\cmsis/include/core_cm4.h **** #define SCB_HFSR_DEBUGEVT_Pos              31U                                            /*!< SCB 
 682:Generated_Source\PSoC6\pdl\cmsis/include/core_cm4.h **** #define SCB_HFSR_DEBUGEVT_Msk              (1UL << SCB_HFSR_DEBUGEVT_Pos)                 /*!< SCB 
 683:Generated_Source\PSoC6\pdl\cmsis/include/core_cm4.h **** 
 684:Generated_Source\PSoC6\pdl\cmsis/include/core_cm4.h **** #define SCB_HFSR_FORCED_Pos                30U                                            /*!< SCB 
 685:Generated_Source\PSoC6\pdl\cmsis/include/core_cm4.h **** #define SCB_HFSR_FORCED_Msk                (1UL << SCB_HFSR_FORCED_Pos)                   /*!< SCB 
 686:Generated_Source\PSoC6\pdl\cmsis/include/core_cm4.h **** 
 687:Generated_Source\PSoC6\pdl\cmsis/include/core_cm4.h **** #define SCB_HFSR_VECTTBL_Pos                1U                                            /*!< SCB 
 688:Generated_Source\PSoC6\pdl\cmsis/include/core_cm4.h **** #define SCB_HFSR_VECTTBL_Msk               (1UL << SCB_HFSR_VECTTBL_Pos)                  /*!< SCB 
 689:Generated_Source\PSoC6\pdl\cmsis/include/core_cm4.h **** 
 690:Generated_Source\PSoC6\pdl\cmsis/include/core_cm4.h **** /* SCB Debug Fault Status Register Definitions */
 691:Generated_Source\PSoC6\pdl\cmsis/include/core_cm4.h **** #define SCB_DFSR_EXTERNAL_Pos               4U                                            /*!< SCB 
ARM GAS  C:\Users\Mathieu\AppData\Local\Temp\ccqdbTbw.s 			page 91


 692:Generated_Source\PSoC6\pdl\cmsis/include/core_cm4.h **** #define SCB_DFSR_EXTERNAL_Msk              (1UL << SCB_DFSR_EXTERNAL_Pos)                 /*!< SCB 
 693:Generated_Source\PSoC6\pdl\cmsis/include/core_cm4.h **** 
 694:Generated_Source\PSoC6\pdl\cmsis/include/core_cm4.h **** #define SCB_DFSR_VCATCH_Pos                 3U                                            /*!< SCB 
 695:Generated_Source\PSoC6\pdl\cmsis/include/core_cm4.h **** #define SCB_DFSR_VCATCH_Msk                (1UL << SCB_DFSR_VCATCH_Pos)                   /*!< SCB 
 696:Generated_Source\PSoC6\pdl\cmsis/include/core_cm4.h **** 
 697:Generated_Source\PSoC6\pdl\cmsis/include/core_cm4.h **** #define SCB_DFSR_DWTTRAP_Pos                2U                                            /*!< SCB 
 698:Generated_Source\PSoC6\pdl\cmsis/include/core_cm4.h **** #define SCB_DFSR_DWTTRAP_Msk               (1UL << SCB_DFSR_DWTTRAP_Pos)                  /*!< SCB 
 699:Generated_Source\PSoC6\pdl\cmsis/include/core_cm4.h **** 
 700:Generated_Source\PSoC6\pdl\cmsis/include/core_cm4.h **** #define SCB_DFSR_BKPT_Pos                   1U                                            /*!< SCB 
 701:Generated_Source\PSoC6\pdl\cmsis/include/core_cm4.h **** #define SCB_DFSR_BKPT_Msk                  (1UL << SCB_DFSR_BKPT_Pos)                     /*!< SCB 
 702:Generated_Source\PSoC6\pdl\cmsis/include/core_cm4.h **** 
 703:Generated_Source\PSoC6\pdl\cmsis/include/core_cm4.h **** #define SCB_DFSR_HALTED_Pos                 0U                                            /*!< SCB 
 704:Generated_Source\PSoC6\pdl\cmsis/include/core_cm4.h **** #define SCB_DFSR_HALTED_Msk                (1UL /*<< SCB_DFSR_HALTED_Pos*/)               /*!< SCB 
 705:Generated_Source\PSoC6\pdl\cmsis/include/core_cm4.h **** 
 706:Generated_Source\PSoC6\pdl\cmsis/include/core_cm4.h **** /*@} end of group CMSIS_SCB */
 707:Generated_Source\PSoC6\pdl\cmsis/include/core_cm4.h **** 
 708:Generated_Source\PSoC6\pdl\cmsis/include/core_cm4.h **** 
 709:Generated_Source\PSoC6\pdl\cmsis/include/core_cm4.h **** /**
 710:Generated_Source\PSoC6\pdl\cmsis/include/core_cm4.h ****   \ingroup  CMSIS_core_register
 711:Generated_Source\PSoC6\pdl\cmsis/include/core_cm4.h ****   \defgroup CMSIS_SCnSCB System Controls not in SCB (SCnSCB)
 712:Generated_Source\PSoC6\pdl\cmsis/include/core_cm4.h ****   \brief    Type definitions for the System Control and ID Register not in the SCB
 713:Generated_Source\PSoC6\pdl\cmsis/include/core_cm4.h ****   @{
 714:Generated_Source\PSoC6\pdl\cmsis/include/core_cm4.h ****  */
 715:Generated_Source\PSoC6\pdl\cmsis/include/core_cm4.h **** 
 716:Generated_Source\PSoC6\pdl\cmsis/include/core_cm4.h **** /**
 717:Generated_Source\PSoC6\pdl\cmsis/include/core_cm4.h ****   \brief  Structure type to access the System Control and ID Register not in the SCB.
 718:Generated_Source\PSoC6\pdl\cmsis/include/core_cm4.h ****  */
 719:Generated_Source\PSoC6\pdl\cmsis/include/core_cm4.h **** typedef struct
 720:Generated_Source\PSoC6\pdl\cmsis/include/core_cm4.h **** {
 721:Generated_Source\PSoC6\pdl\cmsis/include/core_cm4.h ****         uint32_t RESERVED0[1U];
 722:Generated_Source\PSoC6\pdl\cmsis/include/core_cm4.h ****   __IM  uint32_t ICTR;                   /*!< Offset: 0x004 (R/ )  Interrupt Controller Type Regist
 723:Generated_Source\PSoC6\pdl\cmsis/include/core_cm4.h ****   __IOM uint32_t ACTLR;                  /*!< Offset: 0x008 (R/W)  Auxiliary Control Register */
 724:Generated_Source\PSoC6\pdl\cmsis/include/core_cm4.h **** } SCnSCB_Type;
 725:Generated_Source\PSoC6\pdl\cmsis/include/core_cm4.h **** 
 726:Generated_Source\PSoC6\pdl\cmsis/include/core_cm4.h **** /* Interrupt Controller Type Register Definitions */
 727:Generated_Source\PSoC6\pdl\cmsis/include/core_cm4.h **** #define SCnSCB_ICTR_INTLINESNUM_Pos         0U                                         /*!< ICTR: I
 728:Generated_Source\PSoC6\pdl\cmsis/include/core_cm4.h **** #define SCnSCB_ICTR_INTLINESNUM_Msk        (0xFUL /*<< SCnSCB_ICTR_INTLINESNUM_Pos*/)  /*!< ICTR: I
 729:Generated_Source\PSoC6\pdl\cmsis/include/core_cm4.h **** 
 730:Generated_Source\PSoC6\pdl\cmsis/include/core_cm4.h **** /* Auxiliary Control Register Definitions */
 731:Generated_Source\PSoC6\pdl\cmsis/include/core_cm4.h **** #define SCnSCB_ACTLR_DISOOFP_Pos            9U                                         /*!< ACTLR: 
 732:Generated_Source\PSoC6\pdl\cmsis/include/core_cm4.h **** #define SCnSCB_ACTLR_DISOOFP_Msk           (1UL << SCnSCB_ACTLR_DISOOFP_Pos)           /*!< ACTLR: 
 733:Generated_Source\PSoC6\pdl\cmsis/include/core_cm4.h **** 
 734:Generated_Source\PSoC6\pdl\cmsis/include/core_cm4.h **** #define SCnSCB_ACTLR_DISFPCA_Pos            8U                                         /*!< ACTLR: 
 735:Generated_Source\PSoC6\pdl\cmsis/include/core_cm4.h **** #define SCnSCB_ACTLR_DISFPCA_Msk           (1UL << SCnSCB_ACTLR_DISFPCA_Pos)           /*!< ACTLR: 
 736:Generated_Source\PSoC6\pdl\cmsis/include/core_cm4.h **** 
 737:Generated_Source\PSoC6\pdl\cmsis/include/core_cm4.h **** #define SCnSCB_ACTLR_DISFOLD_Pos            2U                                         /*!< ACTLR: 
 738:Generated_Source\PSoC6\pdl\cmsis/include/core_cm4.h **** #define SCnSCB_ACTLR_DISFOLD_Msk           (1UL << SCnSCB_ACTLR_DISFOLD_Pos)           /*!< ACTLR: 
 739:Generated_Source\PSoC6\pdl\cmsis/include/core_cm4.h **** 
 740:Generated_Source\PSoC6\pdl\cmsis/include/core_cm4.h **** #define SCnSCB_ACTLR_DISDEFWBUF_Pos         1U                                         /*!< ACTLR: 
 741:Generated_Source\PSoC6\pdl\cmsis/include/core_cm4.h **** #define SCnSCB_ACTLR_DISDEFWBUF_Msk        (1UL << SCnSCB_ACTLR_DISDEFWBUF_Pos)        /*!< ACTLR: 
 742:Generated_Source\PSoC6\pdl\cmsis/include/core_cm4.h **** 
 743:Generated_Source\PSoC6\pdl\cmsis/include/core_cm4.h **** #define SCnSCB_ACTLR_DISMCYCINT_Pos         0U                                         /*!< ACTLR: 
 744:Generated_Source\PSoC6\pdl\cmsis/include/core_cm4.h **** #define SCnSCB_ACTLR_DISMCYCINT_Msk        (1UL /*<< SCnSCB_ACTLR_DISMCYCINT_Pos*/)    /*!< ACTLR: 
 745:Generated_Source\PSoC6\pdl\cmsis/include/core_cm4.h **** 
 746:Generated_Source\PSoC6\pdl\cmsis/include/core_cm4.h **** /*@} end of group CMSIS_SCnotSCB */
 747:Generated_Source\PSoC6\pdl\cmsis/include/core_cm4.h **** 
 748:Generated_Source\PSoC6\pdl\cmsis/include/core_cm4.h **** 
ARM GAS  C:\Users\Mathieu\AppData\Local\Temp\ccqdbTbw.s 			page 92


 749:Generated_Source\PSoC6\pdl\cmsis/include/core_cm4.h **** /**
 750:Generated_Source\PSoC6\pdl\cmsis/include/core_cm4.h ****   \ingroup  CMSIS_core_register
 751:Generated_Source\PSoC6\pdl\cmsis/include/core_cm4.h ****   \defgroup CMSIS_SysTick     System Tick Timer (SysTick)
 752:Generated_Source\PSoC6\pdl\cmsis/include/core_cm4.h ****   \brief    Type definitions for the System Timer Registers.
 753:Generated_Source\PSoC6\pdl\cmsis/include/core_cm4.h ****   @{
 754:Generated_Source\PSoC6\pdl\cmsis/include/core_cm4.h ****  */
 755:Generated_Source\PSoC6\pdl\cmsis/include/core_cm4.h **** 
 756:Generated_Source\PSoC6\pdl\cmsis/include/core_cm4.h **** /**
 757:Generated_Source\PSoC6\pdl\cmsis/include/core_cm4.h ****   \brief  Structure type to access the System Timer (SysTick).
 758:Generated_Source\PSoC6\pdl\cmsis/include/core_cm4.h ****  */
 759:Generated_Source\PSoC6\pdl\cmsis/include/core_cm4.h **** typedef struct
 760:Generated_Source\PSoC6\pdl\cmsis/include/core_cm4.h **** {
 761:Generated_Source\PSoC6\pdl\cmsis/include/core_cm4.h ****   __IOM uint32_t CTRL;                   /*!< Offset: 0x000 (R/W)  SysTick Control and Status Regis
 762:Generated_Source\PSoC6\pdl\cmsis/include/core_cm4.h ****   __IOM uint32_t LOAD;                   /*!< Offset: 0x004 (R/W)  SysTick Reload Value Register */
 763:Generated_Source\PSoC6\pdl\cmsis/include/core_cm4.h ****   __IOM uint32_t VAL;                    /*!< Offset: 0x008 (R/W)  SysTick Current Value Register *
 764:Generated_Source\PSoC6\pdl\cmsis/include/core_cm4.h ****   __IM  uint32_t CALIB;                  /*!< Offset: 0x00C (R/ )  SysTick Calibration Register */
 765:Generated_Source\PSoC6\pdl\cmsis/include/core_cm4.h **** } SysTick_Type;
 766:Generated_Source\PSoC6\pdl\cmsis/include/core_cm4.h **** 
 767:Generated_Source\PSoC6\pdl\cmsis/include/core_cm4.h **** /* SysTick Control / Status Register Definitions */
 768:Generated_Source\PSoC6\pdl\cmsis/include/core_cm4.h **** #define SysTick_CTRL_COUNTFLAG_Pos         16U                                            /*!< SysT
 769:Generated_Source\PSoC6\pdl\cmsis/include/core_cm4.h **** #define SysTick_CTRL_COUNTFLAG_Msk         (1UL << SysTick_CTRL_COUNTFLAG_Pos)            /*!< SysT
 770:Generated_Source\PSoC6\pdl\cmsis/include/core_cm4.h **** 
 771:Generated_Source\PSoC6\pdl\cmsis/include/core_cm4.h **** #define SysTick_CTRL_CLKSOURCE_Pos          2U                                            /*!< SysT
 772:Generated_Source\PSoC6\pdl\cmsis/include/core_cm4.h **** #define SysTick_CTRL_CLKSOURCE_Msk         (1UL << SysTick_CTRL_CLKSOURCE_Pos)            /*!< SysT
 773:Generated_Source\PSoC6\pdl\cmsis/include/core_cm4.h **** 
 774:Generated_Source\PSoC6\pdl\cmsis/include/core_cm4.h **** #define SysTick_CTRL_TICKINT_Pos            1U                                            /*!< SysT
 775:Generated_Source\PSoC6\pdl\cmsis/include/core_cm4.h **** #define SysTick_CTRL_TICKINT_Msk           (1UL << SysTick_CTRL_TICKINT_Pos)              /*!< SysT
 776:Generated_Source\PSoC6\pdl\cmsis/include/core_cm4.h **** 
 777:Generated_Source\PSoC6\pdl\cmsis/include/core_cm4.h **** #define SysTick_CTRL_ENABLE_Pos             0U                                            /*!< SysT
 778:Generated_Source\PSoC6\pdl\cmsis/include/core_cm4.h **** #define SysTick_CTRL_ENABLE_Msk            (1UL /*<< SysTick_CTRL_ENABLE_Pos*/)           /*!< SysT
 779:Generated_Source\PSoC6\pdl\cmsis/include/core_cm4.h **** 
 780:Generated_Source\PSoC6\pdl\cmsis/include/core_cm4.h **** /* SysTick Reload Register Definitions */
 781:Generated_Source\PSoC6\pdl\cmsis/include/core_cm4.h **** #define SysTick_LOAD_RELOAD_Pos             0U                                            /*!< SysT
 782:Generated_Source\PSoC6\pdl\cmsis/include/core_cm4.h **** #define SysTick_LOAD_RELOAD_Msk            (0xFFFFFFUL /*<< SysTick_LOAD_RELOAD_Pos*/)    /*!< SysT
 783:Generated_Source\PSoC6\pdl\cmsis/include/core_cm4.h **** 
 784:Generated_Source\PSoC6\pdl\cmsis/include/core_cm4.h **** /* SysTick Current Register Definitions */
 785:Generated_Source\PSoC6\pdl\cmsis/include/core_cm4.h **** #define SysTick_VAL_CURRENT_Pos             0U                                            /*!< SysT
 786:Generated_Source\PSoC6\pdl\cmsis/include/core_cm4.h **** #define SysTick_VAL_CURRENT_Msk            (0xFFFFFFUL /*<< SysTick_VAL_CURRENT_Pos*/)    /*!< SysT
 787:Generated_Source\PSoC6\pdl\cmsis/include/core_cm4.h **** 
 788:Generated_Source\PSoC6\pdl\cmsis/include/core_cm4.h **** /* SysTick Calibration Register Definitions */
 789:Generated_Source\PSoC6\pdl\cmsis/include/core_cm4.h **** #define SysTick_CALIB_NOREF_Pos            31U                                            /*!< SysT
 790:Generated_Source\PSoC6\pdl\cmsis/include/core_cm4.h **** #define SysTick_CALIB_NOREF_Msk            (1UL << SysTick_CALIB_NOREF_Pos)               /*!< SysT
 791:Generated_Source\PSoC6\pdl\cmsis/include/core_cm4.h **** 
 792:Generated_Source\PSoC6\pdl\cmsis/include/core_cm4.h **** #define SysTick_CALIB_SKEW_Pos             30U                                            /*!< SysT
 793:Generated_Source\PSoC6\pdl\cmsis/include/core_cm4.h **** #define SysTick_CALIB_SKEW_Msk             (1UL << SysTick_CALIB_SKEW_Pos)                /*!< SysT
 794:Generated_Source\PSoC6\pdl\cmsis/include/core_cm4.h **** 
 795:Generated_Source\PSoC6\pdl\cmsis/include/core_cm4.h **** #define SysTick_CALIB_TENMS_Pos             0U                                            /*!< SysT
 796:Generated_Source\PSoC6\pdl\cmsis/include/core_cm4.h **** #define SysTick_CALIB_TENMS_Msk            (0xFFFFFFUL /*<< SysTick_CALIB_TENMS_Pos*/)    /*!< SysT
 797:Generated_Source\PSoC6\pdl\cmsis/include/core_cm4.h **** 
 798:Generated_Source\PSoC6\pdl\cmsis/include/core_cm4.h **** /*@} end of group CMSIS_SysTick */
 799:Generated_Source\PSoC6\pdl\cmsis/include/core_cm4.h **** 
 800:Generated_Source\PSoC6\pdl\cmsis/include/core_cm4.h **** 
 801:Generated_Source\PSoC6\pdl\cmsis/include/core_cm4.h **** /**
 802:Generated_Source\PSoC6\pdl\cmsis/include/core_cm4.h ****   \ingroup  CMSIS_core_register
 803:Generated_Source\PSoC6\pdl\cmsis/include/core_cm4.h ****   \defgroup CMSIS_ITM     Instrumentation Trace Macrocell (ITM)
 804:Generated_Source\PSoC6\pdl\cmsis/include/core_cm4.h ****   \brief    Type definitions for the Instrumentation Trace Macrocell (ITM)
 805:Generated_Source\PSoC6\pdl\cmsis/include/core_cm4.h ****   @{
ARM GAS  C:\Users\Mathieu\AppData\Local\Temp\ccqdbTbw.s 			page 93


 806:Generated_Source\PSoC6\pdl\cmsis/include/core_cm4.h ****  */
 807:Generated_Source\PSoC6\pdl\cmsis/include/core_cm4.h **** 
 808:Generated_Source\PSoC6\pdl\cmsis/include/core_cm4.h **** /**
 809:Generated_Source\PSoC6\pdl\cmsis/include/core_cm4.h ****   \brief  Structure type to access the Instrumentation Trace Macrocell Register (ITM).
 810:Generated_Source\PSoC6\pdl\cmsis/include/core_cm4.h ****  */
 811:Generated_Source\PSoC6\pdl\cmsis/include/core_cm4.h **** typedef struct
 812:Generated_Source\PSoC6\pdl\cmsis/include/core_cm4.h **** {
 813:Generated_Source\PSoC6\pdl\cmsis/include/core_cm4.h ****   __OM  union
 814:Generated_Source\PSoC6\pdl\cmsis/include/core_cm4.h ****   {
 815:Generated_Source\PSoC6\pdl\cmsis/include/core_cm4.h ****     __OM  uint8_t    u8;                 /*!< Offset: 0x000 ( /W)  ITM Stimulus Port 8-bit */
 816:Generated_Source\PSoC6\pdl\cmsis/include/core_cm4.h ****     __OM  uint16_t   u16;                /*!< Offset: 0x000 ( /W)  ITM Stimulus Port 16-bit */
 817:Generated_Source\PSoC6\pdl\cmsis/include/core_cm4.h ****     __OM  uint32_t   u32;                /*!< Offset: 0x000 ( /W)  ITM Stimulus Port 32-bit */
 818:Generated_Source\PSoC6\pdl\cmsis/include/core_cm4.h ****   }  PORT [32U];                         /*!< Offset: 0x000 ( /W)  ITM Stimulus Port Registers */
 819:Generated_Source\PSoC6\pdl\cmsis/include/core_cm4.h ****         uint32_t RESERVED0[864U];
 820:Generated_Source\PSoC6\pdl\cmsis/include/core_cm4.h ****   __IOM uint32_t TER;                    /*!< Offset: 0xE00 (R/W)  ITM Trace Enable Register */
 821:Generated_Source\PSoC6\pdl\cmsis/include/core_cm4.h ****         uint32_t RESERVED1[15U];
 822:Generated_Source\PSoC6\pdl\cmsis/include/core_cm4.h ****   __IOM uint32_t TPR;                    /*!< Offset: 0xE40 (R/W)  ITM Trace Privilege Register */
 823:Generated_Source\PSoC6\pdl\cmsis/include/core_cm4.h ****         uint32_t RESERVED2[15U];
 824:Generated_Source\PSoC6\pdl\cmsis/include/core_cm4.h ****   __IOM uint32_t TCR;                    /*!< Offset: 0xE80 (R/W)  ITM Trace Control Register */
 825:Generated_Source\PSoC6\pdl\cmsis/include/core_cm4.h ****         uint32_t RESERVED3[29U];
 826:Generated_Source\PSoC6\pdl\cmsis/include/core_cm4.h ****   __OM  uint32_t IWR;                    /*!< Offset: 0xEF8 ( /W)  ITM Integration Write Register *
 827:Generated_Source\PSoC6\pdl\cmsis/include/core_cm4.h ****   __IM  uint32_t IRR;                    /*!< Offset: 0xEFC (R/ )  ITM Integration Read Register */
 828:Generated_Source\PSoC6\pdl\cmsis/include/core_cm4.h ****   __IOM uint32_t IMCR;                   /*!< Offset: 0xF00 (R/W)  ITM Integration Mode Control Reg
 829:Generated_Source\PSoC6\pdl\cmsis/include/core_cm4.h ****         uint32_t RESERVED4[43U];
 830:Generated_Source\PSoC6\pdl\cmsis/include/core_cm4.h ****   __OM  uint32_t LAR;                    /*!< Offset: 0xFB0 ( /W)  ITM Lock Access Register */
 831:Generated_Source\PSoC6\pdl\cmsis/include/core_cm4.h ****   __IM  uint32_t LSR;                    /*!< Offset: 0xFB4 (R/ )  ITM Lock Status Register */
 832:Generated_Source\PSoC6\pdl\cmsis/include/core_cm4.h ****         uint32_t RESERVED5[6U];
 833:Generated_Source\PSoC6\pdl\cmsis/include/core_cm4.h ****   __IM  uint32_t PID4;                   /*!< Offset: 0xFD0 (R/ )  ITM Peripheral Identification Re
 834:Generated_Source\PSoC6\pdl\cmsis/include/core_cm4.h ****   __IM  uint32_t PID5;                   /*!< Offset: 0xFD4 (R/ )  ITM Peripheral Identification Re
 835:Generated_Source\PSoC6\pdl\cmsis/include/core_cm4.h ****   __IM  uint32_t PID6;                   /*!< Offset: 0xFD8 (R/ )  ITM Peripheral Identification Re
 836:Generated_Source\PSoC6\pdl\cmsis/include/core_cm4.h ****   __IM  uint32_t PID7;                   /*!< Offset: 0xFDC (R/ )  ITM Peripheral Identification Re
 837:Generated_Source\PSoC6\pdl\cmsis/include/core_cm4.h ****   __IM  uint32_t PID0;                   /*!< Offset: 0xFE0 (R/ )  ITM Peripheral Identification Re
 838:Generated_Source\PSoC6\pdl\cmsis/include/core_cm4.h ****   __IM  uint32_t PID1;                   /*!< Offset: 0xFE4 (R/ )  ITM Peripheral Identification Re
 839:Generated_Source\PSoC6\pdl\cmsis/include/core_cm4.h ****   __IM  uint32_t PID2;                   /*!< Offset: 0xFE8 (R/ )  ITM Peripheral Identification Re
 840:Generated_Source\PSoC6\pdl\cmsis/include/core_cm4.h ****   __IM  uint32_t PID3;                   /*!< Offset: 0xFEC (R/ )  ITM Peripheral Identification Re
 841:Generated_Source\PSoC6\pdl\cmsis/include/core_cm4.h ****   __IM  uint32_t CID0;                   /*!< Offset: 0xFF0 (R/ )  ITM Component  Identification Re
 842:Generated_Source\PSoC6\pdl\cmsis/include/core_cm4.h ****   __IM  uint32_t CID1;                   /*!< Offset: 0xFF4 (R/ )  ITM Component  Identification Re
 843:Generated_Source\PSoC6\pdl\cmsis/include/core_cm4.h ****   __IM  uint32_t CID2;                   /*!< Offset: 0xFF8 (R/ )  ITM Component  Identification Re
 844:Generated_Source\PSoC6\pdl\cmsis/include/core_cm4.h ****   __IM  uint32_t CID3;                   /*!< Offset: 0xFFC (R/ )  ITM Component  Identification Re
 845:Generated_Source\PSoC6\pdl\cmsis/include/core_cm4.h **** } ITM_Type;
 846:Generated_Source\PSoC6\pdl\cmsis/include/core_cm4.h **** 
 847:Generated_Source\PSoC6\pdl\cmsis/include/core_cm4.h **** /* ITM Trace Privilege Register Definitions */
 848:Generated_Source\PSoC6\pdl\cmsis/include/core_cm4.h **** #define ITM_TPR_PRIVMASK_Pos                0U                                            /*!< ITM 
 849:Generated_Source\PSoC6\pdl\cmsis/include/core_cm4.h **** #define ITM_TPR_PRIVMASK_Msk               (0xFFFFFFFFUL /*<< ITM_TPR_PRIVMASK_Pos*/)     /*!< ITM 
 850:Generated_Source\PSoC6\pdl\cmsis/include/core_cm4.h **** 
 851:Generated_Source\PSoC6\pdl\cmsis/include/core_cm4.h **** /* ITM Trace Control Register Definitions */
 852:Generated_Source\PSoC6\pdl\cmsis/include/core_cm4.h **** #define ITM_TCR_BUSY_Pos                   23U                                            /*!< ITM 
 853:Generated_Source\PSoC6\pdl\cmsis/include/core_cm4.h **** #define ITM_TCR_BUSY_Msk                   (1UL << ITM_TCR_BUSY_Pos)                      /*!< ITM 
 854:Generated_Source\PSoC6\pdl\cmsis/include/core_cm4.h **** 
 855:Generated_Source\PSoC6\pdl\cmsis/include/core_cm4.h **** #define ITM_TCR_TraceBusID_Pos             16U                                            /*!< ITM 
 856:Generated_Source\PSoC6\pdl\cmsis/include/core_cm4.h **** #define ITM_TCR_TraceBusID_Msk             (0x7FUL << ITM_TCR_TraceBusID_Pos)             /*!< ITM 
 857:Generated_Source\PSoC6\pdl\cmsis/include/core_cm4.h **** 
 858:Generated_Source\PSoC6\pdl\cmsis/include/core_cm4.h **** #define ITM_TCR_GTSFREQ_Pos                10U                                            /*!< ITM 
 859:Generated_Source\PSoC6\pdl\cmsis/include/core_cm4.h **** #define ITM_TCR_GTSFREQ_Msk                (3UL << ITM_TCR_GTSFREQ_Pos)                   /*!< ITM 
 860:Generated_Source\PSoC6\pdl\cmsis/include/core_cm4.h **** 
 861:Generated_Source\PSoC6\pdl\cmsis/include/core_cm4.h **** #define ITM_TCR_TSPrescale_Pos              8U                                            /*!< ITM 
 862:Generated_Source\PSoC6\pdl\cmsis/include/core_cm4.h **** #define ITM_TCR_TSPrescale_Msk             (3UL << ITM_TCR_TSPrescale_Pos)                /*!< ITM 
ARM GAS  C:\Users\Mathieu\AppData\Local\Temp\ccqdbTbw.s 			page 94


 863:Generated_Source\PSoC6\pdl\cmsis/include/core_cm4.h **** 
 864:Generated_Source\PSoC6\pdl\cmsis/include/core_cm4.h **** #define ITM_TCR_SWOENA_Pos                  4U                                            /*!< ITM 
 865:Generated_Source\PSoC6\pdl\cmsis/include/core_cm4.h **** #define ITM_TCR_SWOENA_Msk                 (1UL << ITM_TCR_SWOENA_Pos)                    /*!< ITM 
 866:Generated_Source\PSoC6\pdl\cmsis/include/core_cm4.h **** 
 867:Generated_Source\PSoC6\pdl\cmsis/include/core_cm4.h **** #define ITM_TCR_DWTENA_Pos                  3U                                            /*!< ITM 
 868:Generated_Source\PSoC6\pdl\cmsis/include/core_cm4.h **** #define ITM_TCR_DWTENA_Msk                 (1UL << ITM_TCR_DWTENA_Pos)                    /*!< ITM 
 869:Generated_Source\PSoC6\pdl\cmsis/include/core_cm4.h **** 
 870:Generated_Source\PSoC6\pdl\cmsis/include/core_cm4.h **** #define ITM_TCR_SYNCENA_Pos                 2U                                            /*!< ITM 
 871:Generated_Source\PSoC6\pdl\cmsis/include/core_cm4.h **** #define ITM_TCR_SYNCENA_Msk                (1UL << ITM_TCR_SYNCENA_Pos)                   /*!< ITM 
 872:Generated_Source\PSoC6\pdl\cmsis/include/core_cm4.h **** 
 873:Generated_Source\PSoC6\pdl\cmsis/include/core_cm4.h **** #define ITM_TCR_TSENA_Pos                   1U                                            /*!< ITM 
 874:Generated_Source\PSoC6\pdl\cmsis/include/core_cm4.h **** #define ITM_TCR_TSENA_Msk                  (1UL << ITM_TCR_TSENA_Pos)                     /*!< ITM 
 875:Generated_Source\PSoC6\pdl\cmsis/include/core_cm4.h **** 
 876:Generated_Source\PSoC6\pdl\cmsis/include/core_cm4.h **** #define ITM_TCR_ITMENA_Pos                  0U                                            /*!< ITM 
 877:Generated_Source\PSoC6\pdl\cmsis/include/core_cm4.h **** #define ITM_TCR_ITMENA_Msk                 (1UL /*<< ITM_TCR_ITMENA_Pos*/)                /*!< ITM 
 878:Generated_Source\PSoC6\pdl\cmsis/include/core_cm4.h **** 
 879:Generated_Source\PSoC6\pdl\cmsis/include/core_cm4.h **** /* ITM Integration Write Register Definitions */
 880:Generated_Source\PSoC6\pdl\cmsis/include/core_cm4.h **** #define ITM_IWR_ATVALIDM_Pos                0U                                            /*!< ITM 
 881:Generated_Source\PSoC6\pdl\cmsis/include/core_cm4.h **** #define ITM_IWR_ATVALIDM_Msk               (1UL /*<< ITM_IWR_ATVALIDM_Pos*/)              /*!< ITM 
 882:Generated_Source\PSoC6\pdl\cmsis/include/core_cm4.h **** 
 883:Generated_Source\PSoC6\pdl\cmsis/include/core_cm4.h **** /* ITM Integration Read Register Definitions */
 884:Generated_Source\PSoC6\pdl\cmsis/include/core_cm4.h **** #define ITM_IRR_ATREADYM_Pos                0U                                            /*!< ITM 
 885:Generated_Source\PSoC6\pdl\cmsis/include/core_cm4.h **** #define ITM_IRR_ATREADYM_Msk               (1UL /*<< ITM_IRR_ATREADYM_Pos*/)              /*!< ITM 
 886:Generated_Source\PSoC6\pdl\cmsis/include/core_cm4.h **** 
 887:Generated_Source\PSoC6\pdl\cmsis/include/core_cm4.h **** /* ITM Integration Mode Control Register Definitions */
 888:Generated_Source\PSoC6\pdl\cmsis/include/core_cm4.h **** #define ITM_IMCR_INTEGRATION_Pos            0U                                            /*!< ITM 
 889:Generated_Source\PSoC6\pdl\cmsis/include/core_cm4.h **** #define ITM_IMCR_INTEGRATION_Msk           (1UL /*<< ITM_IMCR_INTEGRATION_Pos*/)          /*!< ITM 
 890:Generated_Source\PSoC6\pdl\cmsis/include/core_cm4.h **** 
 891:Generated_Source\PSoC6\pdl\cmsis/include/core_cm4.h **** /* ITM Lock Status Register Definitions */
 892:Generated_Source\PSoC6\pdl\cmsis/include/core_cm4.h **** #define ITM_LSR_ByteAcc_Pos                 2U                                            /*!< ITM 
 893:Generated_Source\PSoC6\pdl\cmsis/include/core_cm4.h **** #define ITM_LSR_ByteAcc_Msk                (1UL << ITM_LSR_ByteAcc_Pos)                   /*!< ITM 
 894:Generated_Source\PSoC6\pdl\cmsis/include/core_cm4.h **** 
 895:Generated_Source\PSoC6\pdl\cmsis/include/core_cm4.h **** #define ITM_LSR_Access_Pos                  1U                                            /*!< ITM 
 896:Generated_Source\PSoC6\pdl\cmsis/include/core_cm4.h **** #define ITM_LSR_Access_Msk                 (1UL << ITM_LSR_Access_Pos)                    /*!< ITM 
 897:Generated_Source\PSoC6\pdl\cmsis/include/core_cm4.h **** 
 898:Generated_Source\PSoC6\pdl\cmsis/include/core_cm4.h **** #define ITM_LSR_Present_Pos                 0U                                            /*!< ITM 
 899:Generated_Source\PSoC6\pdl\cmsis/include/core_cm4.h **** #define ITM_LSR_Present_Msk                (1UL /*<< ITM_LSR_Present_Pos*/)               /*!< ITM 
 900:Generated_Source\PSoC6\pdl\cmsis/include/core_cm4.h **** 
 901:Generated_Source\PSoC6\pdl\cmsis/include/core_cm4.h **** /*@}*/ /* end of group CMSIS_ITM */
 902:Generated_Source\PSoC6\pdl\cmsis/include/core_cm4.h **** 
 903:Generated_Source\PSoC6\pdl\cmsis/include/core_cm4.h **** 
 904:Generated_Source\PSoC6\pdl\cmsis/include/core_cm4.h **** /**
 905:Generated_Source\PSoC6\pdl\cmsis/include/core_cm4.h ****   \ingroup  CMSIS_core_register
 906:Generated_Source\PSoC6\pdl\cmsis/include/core_cm4.h ****   \defgroup CMSIS_DWT     Data Watchpoint and Trace (DWT)
 907:Generated_Source\PSoC6\pdl\cmsis/include/core_cm4.h ****   \brief    Type definitions for the Data Watchpoint and Trace (DWT)
 908:Generated_Source\PSoC6\pdl\cmsis/include/core_cm4.h ****   @{
 909:Generated_Source\PSoC6\pdl\cmsis/include/core_cm4.h ****  */
 910:Generated_Source\PSoC6\pdl\cmsis/include/core_cm4.h **** 
 911:Generated_Source\PSoC6\pdl\cmsis/include/core_cm4.h **** /**
 912:Generated_Source\PSoC6\pdl\cmsis/include/core_cm4.h ****   \brief  Structure type to access the Data Watchpoint and Trace Register (DWT).
 913:Generated_Source\PSoC6\pdl\cmsis/include/core_cm4.h ****  */
 914:Generated_Source\PSoC6\pdl\cmsis/include/core_cm4.h **** typedef struct
 915:Generated_Source\PSoC6\pdl\cmsis/include/core_cm4.h **** {
 916:Generated_Source\PSoC6\pdl\cmsis/include/core_cm4.h ****   __IOM uint32_t CTRL;                   /*!< Offset: 0x000 (R/W)  Control Register */
 917:Generated_Source\PSoC6\pdl\cmsis/include/core_cm4.h ****   __IOM uint32_t CYCCNT;                 /*!< Offset: 0x004 (R/W)  Cycle Count Register */
 918:Generated_Source\PSoC6\pdl\cmsis/include/core_cm4.h ****   __IOM uint32_t CPICNT;                 /*!< Offset: 0x008 (R/W)  CPI Count Register */
 919:Generated_Source\PSoC6\pdl\cmsis/include/core_cm4.h ****   __IOM uint32_t EXCCNT;                 /*!< Offset: 0x00C (R/W)  Exception Overhead Count Registe
ARM GAS  C:\Users\Mathieu\AppData\Local\Temp\ccqdbTbw.s 			page 95


 920:Generated_Source\PSoC6\pdl\cmsis/include/core_cm4.h ****   __IOM uint32_t SLEEPCNT;               /*!< Offset: 0x010 (R/W)  Sleep Count Register */
 921:Generated_Source\PSoC6\pdl\cmsis/include/core_cm4.h ****   __IOM uint32_t LSUCNT;                 /*!< Offset: 0x014 (R/W)  LSU Count Register */
 922:Generated_Source\PSoC6\pdl\cmsis/include/core_cm4.h ****   __IOM uint32_t FOLDCNT;                /*!< Offset: 0x018 (R/W)  Folded-instruction Count Registe
 923:Generated_Source\PSoC6\pdl\cmsis/include/core_cm4.h ****   __IM  uint32_t PCSR;                   /*!< Offset: 0x01C (R/ )  Program Counter Sample Register 
 924:Generated_Source\PSoC6\pdl\cmsis/include/core_cm4.h ****   __IOM uint32_t COMP0;                  /*!< Offset: 0x020 (R/W)  Comparator Register 0 */
 925:Generated_Source\PSoC6\pdl\cmsis/include/core_cm4.h ****   __IOM uint32_t MASK0;                  /*!< Offset: 0x024 (R/W)  Mask Register 0 */
 926:Generated_Source\PSoC6\pdl\cmsis/include/core_cm4.h ****   __IOM uint32_t FUNCTION0;              /*!< Offset: 0x028 (R/W)  Function Register 0 */
 927:Generated_Source\PSoC6\pdl\cmsis/include/core_cm4.h ****         uint32_t RESERVED0[1U];
 928:Generated_Source\PSoC6\pdl\cmsis/include/core_cm4.h ****   __IOM uint32_t COMP1;                  /*!< Offset: 0x030 (R/W)  Comparator Register 1 */
 929:Generated_Source\PSoC6\pdl\cmsis/include/core_cm4.h ****   __IOM uint32_t MASK1;                  /*!< Offset: 0x034 (R/W)  Mask Register 1 */
 930:Generated_Source\PSoC6\pdl\cmsis/include/core_cm4.h ****   __IOM uint32_t FUNCTION1;              /*!< Offset: 0x038 (R/W)  Function Register 1 */
 931:Generated_Source\PSoC6\pdl\cmsis/include/core_cm4.h ****         uint32_t RESERVED1[1U];
 932:Generated_Source\PSoC6\pdl\cmsis/include/core_cm4.h ****   __IOM uint32_t COMP2;                  /*!< Offset: 0x040 (R/W)  Comparator Register 2 */
 933:Generated_Source\PSoC6\pdl\cmsis/include/core_cm4.h ****   __IOM uint32_t MASK2;                  /*!< Offset: 0x044 (R/W)  Mask Register 2 */
 934:Generated_Source\PSoC6\pdl\cmsis/include/core_cm4.h ****   __IOM uint32_t FUNCTION2;              /*!< Offset: 0x048 (R/W)  Function Register 2 */
 935:Generated_Source\PSoC6\pdl\cmsis/include/core_cm4.h ****         uint32_t RESERVED2[1U];
 936:Generated_Source\PSoC6\pdl\cmsis/include/core_cm4.h ****   __IOM uint32_t COMP3;                  /*!< Offset: 0x050 (R/W)  Comparator Register 3 */
 937:Generated_Source\PSoC6\pdl\cmsis/include/core_cm4.h ****   __IOM uint32_t MASK3;                  /*!< Offset: 0x054 (R/W)  Mask Register 3 */
 938:Generated_Source\PSoC6\pdl\cmsis/include/core_cm4.h ****   __IOM uint32_t FUNCTION3;              /*!< Offset: 0x058 (R/W)  Function Register 3 */
 939:Generated_Source\PSoC6\pdl\cmsis/include/core_cm4.h **** } DWT_Type;
 940:Generated_Source\PSoC6\pdl\cmsis/include/core_cm4.h **** 
 941:Generated_Source\PSoC6\pdl\cmsis/include/core_cm4.h **** /* DWT Control Register Definitions */
 942:Generated_Source\PSoC6\pdl\cmsis/include/core_cm4.h **** #define DWT_CTRL_NUMCOMP_Pos               28U                                         /*!< DWT CTR
 943:Generated_Source\PSoC6\pdl\cmsis/include/core_cm4.h **** #define DWT_CTRL_NUMCOMP_Msk               (0xFUL << DWT_CTRL_NUMCOMP_Pos)             /*!< DWT CTR
 944:Generated_Source\PSoC6\pdl\cmsis/include/core_cm4.h **** 
 945:Generated_Source\PSoC6\pdl\cmsis/include/core_cm4.h **** #define DWT_CTRL_NOTRCPKT_Pos              27U                                         /*!< DWT CTR
 946:Generated_Source\PSoC6\pdl\cmsis/include/core_cm4.h **** #define DWT_CTRL_NOTRCPKT_Msk              (0x1UL << DWT_CTRL_NOTRCPKT_Pos)            /*!< DWT CTR
 947:Generated_Source\PSoC6\pdl\cmsis/include/core_cm4.h **** 
 948:Generated_Source\PSoC6\pdl\cmsis/include/core_cm4.h **** #define DWT_CTRL_NOEXTTRIG_Pos             26U                                         /*!< DWT CTR
 949:Generated_Source\PSoC6\pdl\cmsis/include/core_cm4.h **** #define DWT_CTRL_NOEXTTRIG_Msk             (0x1UL << DWT_CTRL_NOEXTTRIG_Pos)           /*!< DWT CTR
 950:Generated_Source\PSoC6\pdl\cmsis/include/core_cm4.h **** 
 951:Generated_Source\PSoC6\pdl\cmsis/include/core_cm4.h **** #define DWT_CTRL_NOCYCCNT_Pos              25U                                         /*!< DWT CTR
 952:Generated_Source\PSoC6\pdl\cmsis/include/core_cm4.h **** #define DWT_CTRL_NOCYCCNT_Msk              (0x1UL << DWT_CTRL_NOCYCCNT_Pos)            /*!< DWT CTR
 953:Generated_Source\PSoC6\pdl\cmsis/include/core_cm4.h **** 
 954:Generated_Source\PSoC6\pdl\cmsis/include/core_cm4.h **** #define DWT_CTRL_NOPRFCNT_Pos              24U                                         /*!< DWT CTR
 955:Generated_Source\PSoC6\pdl\cmsis/include/core_cm4.h **** #define DWT_CTRL_NOPRFCNT_Msk              (0x1UL << DWT_CTRL_NOPRFCNT_Pos)            /*!< DWT CTR
 956:Generated_Source\PSoC6\pdl\cmsis/include/core_cm4.h **** 
 957:Generated_Source\PSoC6\pdl\cmsis/include/core_cm4.h **** #define DWT_CTRL_CYCEVTENA_Pos             22U                                         /*!< DWT CTR
 958:Generated_Source\PSoC6\pdl\cmsis/include/core_cm4.h **** #define DWT_CTRL_CYCEVTENA_Msk             (0x1UL << DWT_CTRL_CYCEVTENA_Pos)           /*!< DWT CTR
 959:Generated_Source\PSoC6\pdl\cmsis/include/core_cm4.h **** 
 960:Generated_Source\PSoC6\pdl\cmsis/include/core_cm4.h **** #define DWT_CTRL_FOLDEVTENA_Pos            21U                                         /*!< DWT CTR
 961:Generated_Source\PSoC6\pdl\cmsis/include/core_cm4.h **** #define DWT_CTRL_FOLDEVTENA_Msk            (0x1UL << DWT_CTRL_FOLDEVTENA_Pos)          /*!< DWT CTR
 962:Generated_Source\PSoC6\pdl\cmsis/include/core_cm4.h **** 
 963:Generated_Source\PSoC6\pdl\cmsis/include/core_cm4.h **** #define DWT_CTRL_LSUEVTENA_Pos             20U                                         /*!< DWT CTR
 964:Generated_Source\PSoC6\pdl\cmsis/include/core_cm4.h **** #define DWT_CTRL_LSUEVTENA_Msk             (0x1UL << DWT_CTRL_LSUEVTENA_Pos)           /*!< DWT CTR
 965:Generated_Source\PSoC6\pdl\cmsis/include/core_cm4.h **** 
 966:Generated_Source\PSoC6\pdl\cmsis/include/core_cm4.h **** #define DWT_CTRL_SLEEPEVTENA_Pos           19U                                         /*!< DWT CTR
 967:Generated_Source\PSoC6\pdl\cmsis/include/core_cm4.h **** #define DWT_CTRL_SLEEPEVTENA_Msk           (0x1UL << DWT_CTRL_SLEEPEVTENA_Pos)         /*!< DWT CTR
 968:Generated_Source\PSoC6\pdl\cmsis/include/core_cm4.h **** 
 969:Generated_Source\PSoC6\pdl\cmsis/include/core_cm4.h **** #define DWT_CTRL_EXCEVTENA_Pos             18U                                         /*!< DWT CTR
 970:Generated_Source\PSoC6\pdl\cmsis/include/core_cm4.h **** #define DWT_CTRL_EXCEVTENA_Msk             (0x1UL << DWT_CTRL_EXCEVTENA_Pos)           /*!< DWT CTR
 971:Generated_Source\PSoC6\pdl\cmsis/include/core_cm4.h **** 
 972:Generated_Source\PSoC6\pdl\cmsis/include/core_cm4.h **** #define DWT_CTRL_CPIEVTENA_Pos             17U                                         /*!< DWT CTR
 973:Generated_Source\PSoC6\pdl\cmsis/include/core_cm4.h **** #define DWT_CTRL_CPIEVTENA_Msk             (0x1UL << DWT_CTRL_CPIEVTENA_Pos)           /*!< DWT CTR
 974:Generated_Source\PSoC6\pdl\cmsis/include/core_cm4.h **** 
 975:Generated_Source\PSoC6\pdl\cmsis/include/core_cm4.h **** #define DWT_CTRL_EXCTRCENA_Pos             16U                                         /*!< DWT CTR
 976:Generated_Source\PSoC6\pdl\cmsis/include/core_cm4.h **** #define DWT_CTRL_EXCTRCENA_Msk             (0x1UL << DWT_CTRL_EXCTRCENA_Pos)           /*!< DWT CTR
ARM GAS  C:\Users\Mathieu\AppData\Local\Temp\ccqdbTbw.s 			page 96


 977:Generated_Source\PSoC6\pdl\cmsis/include/core_cm4.h **** 
 978:Generated_Source\PSoC6\pdl\cmsis/include/core_cm4.h **** #define DWT_CTRL_PCSAMPLENA_Pos            12U                                         /*!< DWT CTR
 979:Generated_Source\PSoC6\pdl\cmsis/include/core_cm4.h **** #define DWT_CTRL_PCSAMPLENA_Msk            (0x1UL << DWT_CTRL_PCSAMPLENA_Pos)          /*!< DWT CTR
 980:Generated_Source\PSoC6\pdl\cmsis/include/core_cm4.h **** 
 981:Generated_Source\PSoC6\pdl\cmsis/include/core_cm4.h **** #define DWT_CTRL_SYNCTAP_Pos               10U                                         /*!< DWT CTR
 982:Generated_Source\PSoC6\pdl\cmsis/include/core_cm4.h **** #define DWT_CTRL_SYNCTAP_Msk               (0x3UL << DWT_CTRL_SYNCTAP_Pos)             /*!< DWT CTR
 983:Generated_Source\PSoC6\pdl\cmsis/include/core_cm4.h **** 
 984:Generated_Source\PSoC6\pdl\cmsis/include/core_cm4.h **** #define DWT_CTRL_CYCTAP_Pos                 9U                                         /*!< DWT CTR
 985:Generated_Source\PSoC6\pdl\cmsis/include/core_cm4.h **** #define DWT_CTRL_CYCTAP_Msk                (0x1UL << DWT_CTRL_CYCTAP_Pos)              /*!< DWT CTR
 986:Generated_Source\PSoC6\pdl\cmsis/include/core_cm4.h **** 
 987:Generated_Source\PSoC6\pdl\cmsis/include/core_cm4.h **** #define DWT_CTRL_POSTINIT_Pos               5U                                         /*!< DWT CTR
 988:Generated_Source\PSoC6\pdl\cmsis/include/core_cm4.h **** #define DWT_CTRL_POSTINIT_Msk              (0xFUL << DWT_CTRL_POSTINIT_Pos)            /*!< DWT CTR
 989:Generated_Source\PSoC6\pdl\cmsis/include/core_cm4.h **** 
 990:Generated_Source\PSoC6\pdl\cmsis/include/core_cm4.h **** #define DWT_CTRL_POSTPRESET_Pos             1U                                         /*!< DWT CTR
 991:Generated_Source\PSoC6\pdl\cmsis/include/core_cm4.h **** #define DWT_CTRL_POSTPRESET_Msk            (0xFUL << DWT_CTRL_POSTPRESET_Pos)          /*!< DWT CTR
 992:Generated_Source\PSoC6\pdl\cmsis/include/core_cm4.h **** 
 993:Generated_Source\PSoC6\pdl\cmsis/include/core_cm4.h **** #define DWT_CTRL_CYCCNTENA_Pos              0U                                         /*!< DWT CTR
 994:Generated_Source\PSoC6\pdl\cmsis/include/core_cm4.h **** #define DWT_CTRL_CYCCNTENA_Msk             (0x1UL /*<< DWT_CTRL_CYCCNTENA_Pos*/)       /*!< DWT CTR
 995:Generated_Source\PSoC6\pdl\cmsis/include/core_cm4.h **** 
 996:Generated_Source\PSoC6\pdl\cmsis/include/core_cm4.h **** /* DWT CPI Count Register Definitions */
 997:Generated_Source\PSoC6\pdl\cmsis/include/core_cm4.h **** #define DWT_CPICNT_CPICNT_Pos               0U                                         /*!< DWT CPI
 998:Generated_Source\PSoC6\pdl\cmsis/include/core_cm4.h **** #define DWT_CPICNT_CPICNT_Msk              (0xFFUL /*<< DWT_CPICNT_CPICNT_Pos*/)       /*!< DWT CPI
 999:Generated_Source\PSoC6\pdl\cmsis/include/core_cm4.h **** 
1000:Generated_Source\PSoC6\pdl\cmsis/include/core_cm4.h **** /* DWT Exception Overhead Count Register Definitions */
1001:Generated_Source\PSoC6\pdl\cmsis/include/core_cm4.h **** #define DWT_EXCCNT_EXCCNT_Pos               0U                                         /*!< DWT EXC
1002:Generated_Source\PSoC6\pdl\cmsis/include/core_cm4.h **** #define DWT_EXCCNT_EXCCNT_Msk              (0xFFUL /*<< DWT_EXCCNT_EXCCNT_Pos*/)       /*!< DWT EXC
1003:Generated_Source\PSoC6\pdl\cmsis/include/core_cm4.h **** 
1004:Generated_Source\PSoC6\pdl\cmsis/include/core_cm4.h **** /* DWT Sleep Count Register Definitions */
1005:Generated_Source\PSoC6\pdl\cmsis/include/core_cm4.h **** #define DWT_SLEEPCNT_SLEEPCNT_Pos           0U                                         /*!< DWT SLE
1006:Generated_Source\PSoC6\pdl\cmsis/include/core_cm4.h **** #define DWT_SLEEPCNT_SLEEPCNT_Msk          (0xFFUL /*<< DWT_SLEEPCNT_SLEEPCNT_Pos*/)   /*!< DWT SLE
1007:Generated_Source\PSoC6\pdl\cmsis/include/core_cm4.h **** 
1008:Generated_Source\PSoC6\pdl\cmsis/include/core_cm4.h **** /* DWT LSU Count Register Definitions */
1009:Generated_Source\PSoC6\pdl\cmsis/include/core_cm4.h **** #define DWT_LSUCNT_LSUCNT_Pos               0U                                         /*!< DWT LSU
1010:Generated_Source\PSoC6\pdl\cmsis/include/core_cm4.h **** #define DWT_LSUCNT_LSUCNT_Msk              (0xFFUL /*<< DWT_LSUCNT_LSUCNT_Pos*/)       /*!< DWT LSU
1011:Generated_Source\PSoC6\pdl\cmsis/include/core_cm4.h **** 
1012:Generated_Source\PSoC6\pdl\cmsis/include/core_cm4.h **** /* DWT Folded-instruction Count Register Definitions */
1013:Generated_Source\PSoC6\pdl\cmsis/include/core_cm4.h **** #define DWT_FOLDCNT_FOLDCNT_Pos             0U                                         /*!< DWT FOL
1014:Generated_Source\PSoC6\pdl\cmsis/include/core_cm4.h **** #define DWT_FOLDCNT_FOLDCNT_Msk            (0xFFUL /*<< DWT_FOLDCNT_FOLDCNT_Pos*/)     /*!< DWT FOL
1015:Generated_Source\PSoC6\pdl\cmsis/include/core_cm4.h **** 
1016:Generated_Source\PSoC6\pdl\cmsis/include/core_cm4.h **** /* DWT Comparator Mask Register Definitions */
1017:Generated_Source\PSoC6\pdl\cmsis/include/core_cm4.h **** #define DWT_MASK_MASK_Pos                   0U                                         /*!< DWT MAS
1018:Generated_Source\PSoC6\pdl\cmsis/include/core_cm4.h **** #define DWT_MASK_MASK_Msk                  (0x1FUL /*<< DWT_MASK_MASK_Pos*/)           /*!< DWT MAS
1019:Generated_Source\PSoC6\pdl\cmsis/include/core_cm4.h **** 
1020:Generated_Source\PSoC6\pdl\cmsis/include/core_cm4.h **** /* DWT Comparator Function Register Definitions */
1021:Generated_Source\PSoC6\pdl\cmsis/include/core_cm4.h **** #define DWT_FUNCTION_MATCHED_Pos           24U                                         /*!< DWT FUN
1022:Generated_Source\PSoC6\pdl\cmsis/include/core_cm4.h **** #define DWT_FUNCTION_MATCHED_Msk           (0x1UL << DWT_FUNCTION_MATCHED_Pos)         /*!< DWT FUN
1023:Generated_Source\PSoC6\pdl\cmsis/include/core_cm4.h **** 
1024:Generated_Source\PSoC6\pdl\cmsis/include/core_cm4.h **** #define DWT_FUNCTION_DATAVADDR1_Pos        16U                                         /*!< DWT FUN
1025:Generated_Source\PSoC6\pdl\cmsis/include/core_cm4.h **** #define DWT_FUNCTION_DATAVADDR1_Msk        (0xFUL << DWT_FUNCTION_DATAVADDR1_Pos)      /*!< DWT FUN
1026:Generated_Source\PSoC6\pdl\cmsis/include/core_cm4.h **** 
1027:Generated_Source\PSoC6\pdl\cmsis/include/core_cm4.h **** #define DWT_FUNCTION_DATAVADDR0_Pos        12U                                         /*!< DWT FUN
1028:Generated_Source\PSoC6\pdl\cmsis/include/core_cm4.h **** #define DWT_FUNCTION_DATAVADDR0_Msk        (0xFUL << DWT_FUNCTION_DATAVADDR0_Pos)      /*!< DWT FUN
1029:Generated_Source\PSoC6\pdl\cmsis/include/core_cm4.h **** 
1030:Generated_Source\PSoC6\pdl\cmsis/include/core_cm4.h **** #define DWT_FUNCTION_DATAVSIZE_Pos         10U                                         /*!< DWT FUN
1031:Generated_Source\PSoC6\pdl\cmsis/include/core_cm4.h **** #define DWT_FUNCTION_DATAVSIZE_Msk         (0x3UL << DWT_FUNCTION_DATAVSIZE_Pos)       /*!< DWT FUN
1032:Generated_Source\PSoC6\pdl\cmsis/include/core_cm4.h **** 
1033:Generated_Source\PSoC6\pdl\cmsis/include/core_cm4.h **** #define DWT_FUNCTION_LNK1ENA_Pos            9U                                         /*!< DWT FUN
ARM GAS  C:\Users\Mathieu\AppData\Local\Temp\ccqdbTbw.s 			page 97


1034:Generated_Source\PSoC6\pdl\cmsis/include/core_cm4.h **** #define DWT_FUNCTION_LNK1ENA_Msk           (0x1UL << DWT_FUNCTION_LNK1ENA_Pos)         /*!< DWT FUN
1035:Generated_Source\PSoC6\pdl\cmsis/include/core_cm4.h **** 
1036:Generated_Source\PSoC6\pdl\cmsis/include/core_cm4.h **** #define DWT_FUNCTION_DATAVMATCH_Pos         8U                                         /*!< DWT FUN
1037:Generated_Source\PSoC6\pdl\cmsis/include/core_cm4.h **** #define DWT_FUNCTION_DATAVMATCH_Msk        (0x1UL << DWT_FUNCTION_DATAVMATCH_Pos)      /*!< DWT FUN
1038:Generated_Source\PSoC6\pdl\cmsis/include/core_cm4.h **** 
1039:Generated_Source\PSoC6\pdl\cmsis/include/core_cm4.h **** #define DWT_FUNCTION_CYCMATCH_Pos           7U                                         /*!< DWT FUN
1040:Generated_Source\PSoC6\pdl\cmsis/include/core_cm4.h **** #define DWT_FUNCTION_CYCMATCH_Msk          (0x1UL << DWT_FUNCTION_CYCMATCH_Pos)        /*!< DWT FUN
1041:Generated_Source\PSoC6\pdl\cmsis/include/core_cm4.h **** 
1042:Generated_Source\PSoC6\pdl\cmsis/include/core_cm4.h **** #define DWT_FUNCTION_EMITRANGE_Pos          5U                                         /*!< DWT FUN
1043:Generated_Source\PSoC6\pdl\cmsis/include/core_cm4.h **** #define DWT_FUNCTION_EMITRANGE_Msk         (0x1UL << DWT_FUNCTION_EMITRANGE_Pos)       /*!< DWT FUN
1044:Generated_Source\PSoC6\pdl\cmsis/include/core_cm4.h **** 
1045:Generated_Source\PSoC6\pdl\cmsis/include/core_cm4.h **** #define DWT_FUNCTION_FUNCTION_Pos           0U                                         /*!< DWT FUN
1046:Generated_Source\PSoC6\pdl\cmsis/include/core_cm4.h **** #define DWT_FUNCTION_FUNCTION_Msk          (0xFUL /*<< DWT_FUNCTION_FUNCTION_Pos*/)    /*!< DWT FUN
1047:Generated_Source\PSoC6\pdl\cmsis/include/core_cm4.h **** 
1048:Generated_Source\PSoC6\pdl\cmsis/include/core_cm4.h **** /*@}*/ /* end of group CMSIS_DWT */
1049:Generated_Source\PSoC6\pdl\cmsis/include/core_cm4.h **** 
1050:Generated_Source\PSoC6\pdl\cmsis/include/core_cm4.h **** 
1051:Generated_Source\PSoC6\pdl\cmsis/include/core_cm4.h **** /**
1052:Generated_Source\PSoC6\pdl\cmsis/include/core_cm4.h ****   \ingroup  CMSIS_core_register
1053:Generated_Source\PSoC6\pdl\cmsis/include/core_cm4.h ****   \defgroup CMSIS_TPI     Trace Port Interface (TPI)
1054:Generated_Source\PSoC6\pdl\cmsis/include/core_cm4.h ****   \brief    Type definitions for the Trace Port Interface (TPI)
1055:Generated_Source\PSoC6\pdl\cmsis/include/core_cm4.h ****   @{
1056:Generated_Source\PSoC6\pdl\cmsis/include/core_cm4.h ****  */
1057:Generated_Source\PSoC6\pdl\cmsis/include/core_cm4.h **** 
1058:Generated_Source\PSoC6\pdl\cmsis/include/core_cm4.h **** /**
1059:Generated_Source\PSoC6\pdl\cmsis/include/core_cm4.h ****   \brief  Structure type to access the Trace Port Interface Register (TPI).
1060:Generated_Source\PSoC6\pdl\cmsis/include/core_cm4.h ****  */
1061:Generated_Source\PSoC6\pdl\cmsis/include/core_cm4.h **** typedef struct
1062:Generated_Source\PSoC6\pdl\cmsis/include/core_cm4.h **** {
1063:Generated_Source\PSoC6\pdl\cmsis/include/core_cm4.h ****   __IOM uint32_t SSPSR;                  /*!< Offset: 0x000 (R/ )  Supported Parallel Port Size Reg
1064:Generated_Source\PSoC6\pdl\cmsis/include/core_cm4.h ****   __IOM uint32_t CSPSR;                  /*!< Offset: 0x004 (R/W)  Current Parallel Port Size Regis
1065:Generated_Source\PSoC6\pdl\cmsis/include/core_cm4.h ****         uint32_t RESERVED0[2U];
1066:Generated_Source\PSoC6\pdl\cmsis/include/core_cm4.h ****   __IOM uint32_t ACPR;                   /*!< Offset: 0x010 (R/W)  Asynchronous Clock Prescaler Reg
1067:Generated_Source\PSoC6\pdl\cmsis/include/core_cm4.h ****         uint32_t RESERVED1[55U];
1068:Generated_Source\PSoC6\pdl\cmsis/include/core_cm4.h ****   __IOM uint32_t SPPR;                   /*!< Offset: 0x0F0 (R/W)  Selected Pin Protocol Register *
1069:Generated_Source\PSoC6\pdl\cmsis/include/core_cm4.h ****         uint32_t RESERVED2[131U];
1070:Generated_Source\PSoC6\pdl\cmsis/include/core_cm4.h ****   __IM  uint32_t FFSR;                   /*!< Offset: 0x300 (R/ )  Formatter and Flush Status Regis
1071:Generated_Source\PSoC6\pdl\cmsis/include/core_cm4.h ****   __IOM uint32_t FFCR;                   /*!< Offset: 0x304 (R/W)  Formatter and Flush Control Regi
1072:Generated_Source\PSoC6\pdl\cmsis/include/core_cm4.h ****   __IM  uint32_t FSCR;                   /*!< Offset: 0x308 (R/ )  Formatter Synchronization Counte
1073:Generated_Source\PSoC6\pdl\cmsis/include/core_cm4.h ****         uint32_t RESERVED3[759U];
1074:Generated_Source\PSoC6\pdl\cmsis/include/core_cm4.h ****   __IM  uint32_t TRIGGER;                /*!< Offset: 0xEE8 (R/ )  TRIGGER */
1075:Generated_Source\PSoC6\pdl\cmsis/include/core_cm4.h ****   __IM  uint32_t FIFO0;                  /*!< Offset: 0xEEC (R/ )  Integration ETM Data */
1076:Generated_Source\PSoC6\pdl\cmsis/include/core_cm4.h ****   __IM  uint32_t ITATBCTR2;              /*!< Offset: 0xEF0 (R/ )  ITATBCTR2 */
1077:Generated_Source\PSoC6\pdl\cmsis/include/core_cm4.h ****         uint32_t RESERVED4[1U];
1078:Generated_Source\PSoC6\pdl\cmsis/include/core_cm4.h ****   __IM  uint32_t ITATBCTR0;              /*!< Offset: 0xEF8 (R/ )  ITATBCTR0 */
1079:Generated_Source\PSoC6\pdl\cmsis/include/core_cm4.h ****   __IM  uint32_t FIFO1;                  /*!< Offset: 0xEFC (R/ )  Integration ITM Data */
1080:Generated_Source\PSoC6\pdl\cmsis/include/core_cm4.h ****   __IOM uint32_t ITCTRL;                 /*!< Offset: 0xF00 (R/W)  Integration Mode Control */
1081:Generated_Source\PSoC6\pdl\cmsis/include/core_cm4.h ****         uint32_t RESERVED5[39U];
1082:Generated_Source\PSoC6\pdl\cmsis/include/core_cm4.h ****   __IOM uint32_t CLAIMSET;               /*!< Offset: 0xFA0 (R/W)  Claim tag set */
1083:Generated_Source\PSoC6\pdl\cmsis/include/core_cm4.h ****   __IOM uint32_t CLAIMCLR;               /*!< Offset: 0xFA4 (R/W)  Claim tag clear */
1084:Generated_Source\PSoC6\pdl\cmsis/include/core_cm4.h ****         uint32_t RESERVED7[8U];
1085:Generated_Source\PSoC6\pdl\cmsis/include/core_cm4.h ****   __IM  uint32_t DEVID;                  /*!< Offset: 0xFC8 (R/ )  TPIU_DEVID */
1086:Generated_Source\PSoC6\pdl\cmsis/include/core_cm4.h ****   __IM  uint32_t DEVTYPE;                /*!< Offset: 0xFCC (R/ )  TPIU_DEVTYPE */
1087:Generated_Source\PSoC6\pdl\cmsis/include/core_cm4.h **** } TPI_Type;
1088:Generated_Source\PSoC6\pdl\cmsis/include/core_cm4.h **** 
1089:Generated_Source\PSoC6\pdl\cmsis/include/core_cm4.h **** /* TPI Asynchronous Clock Prescaler Register Definitions */
1090:Generated_Source\PSoC6\pdl\cmsis/include/core_cm4.h **** #define TPI_ACPR_PRESCALER_Pos              0U                                         /*!< @Deprec
ARM GAS  C:\Users\Mathieu\AppData\Local\Temp\ccqdbTbw.s 			page 98


1091:Generated_Source\PSoC6\pdl\cmsis/include/core_cm4.h **** #define TPI_ACPR_PRESCALER_Msk             (0x1FFFUL /*<< TPI_ACPR_PRESCALER_Pos*/)    /*!< @Deprec
1092:Generated_Source\PSoC6\pdl\cmsis/include/core_cm4.h **** 
1093:Generated_Source\PSoC6\pdl\cmsis/include/core_cm4.h **** #define TPI_ACPR_SWOSCALER_Pos              0U                                         /*!< TPI ACP
1094:Generated_Source\PSoC6\pdl\cmsis/include/core_cm4.h **** #define TPI_ACPR_SWOSCALER_Msk             (0xFFFFUL /*<< TPI_ACPR_SWOSCALER_Pos*/)    /*!< TPI ACP
1095:Generated_Source\PSoC6\pdl\cmsis/include/core_cm4.h **** 
1096:Generated_Source\PSoC6\pdl\cmsis/include/core_cm4.h **** /* TPI Selected Pin Protocol Register Definitions */
1097:Generated_Source\PSoC6\pdl\cmsis/include/core_cm4.h **** #define TPI_SPPR_TXMODE_Pos                 0U                                         /*!< TPI SPP
1098:Generated_Source\PSoC6\pdl\cmsis/include/core_cm4.h **** #define TPI_SPPR_TXMODE_Msk                (0x3UL /*<< TPI_SPPR_TXMODE_Pos*/)          /*!< TPI SPP
1099:Generated_Source\PSoC6\pdl\cmsis/include/core_cm4.h **** 
1100:Generated_Source\PSoC6\pdl\cmsis/include/core_cm4.h **** /* TPI Formatter and Flush Status Register Definitions */
1101:Generated_Source\PSoC6\pdl\cmsis/include/core_cm4.h **** #define TPI_FFSR_FtNonStop_Pos              3U                                         /*!< TPI FFS
1102:Generated_Source\PSoC6\pdl\cmsis/include/core_cm4.h **** #define TPI_FFSR_FtNonStop_Msk             (0x1UL << TPI_FFSR_FtNonStop_Pos)           /*!< TPI FFS
1103:Generated_Source\PSoC6\pdl\cmsis/include/core_cm4.h **** 
1104:Generated_Source\PSoC6\pdl\cmsis/include/core_cm4.h **** #define TPI_FFSR_TCPresent_Pos              2U                                         /*!< TPI FFS
1105:Generated_Source\PSoC6\pdl\cmsis/include/core_cm4.h **** #define TPI_FFSR_TCPresent_Msk             (0x1UL << TPI_FFSR_TCPresent_Pos)           /*!< TPI FFS
1106:Generated_Source\PSoC6\pdl\cmsis/include/core_cm4.h **** 
1107:Generated_Source\PSoC6\pdl\cmsis/include/core_cm4.h **** #define TPI_FFSR_FtStopped_Pos              1U                                         /*!< TPI FFS
1108:Generated_Source\PSoC6\pdl\cmsis/include/core_cm4.h **** #define TPI_FFSR_FtStopped_Msk             (0x1UL << TPI_FFSR_FtStopped_Pos)           /*!< TPI FFS
1109:Generated_Source\PSoC6\pdl\cmsis/include/core_cm4.h **** 
1110:Generated_Source\PSoC6\pdl\cmsis/include/core_cm4.h **** #define TPI_FFSR_FlInProg_Pos               0U                                         /*!< TPI FFS
1111:Generated_Source\PSoC6\pdl\cmsis/include/core_cm4.h **** #define TPI_FFSR_FlInProg_Msk              (0x1UL /*<< TPI_FFSR_FlInProg_Pos*/)        /*!< TPI FFS
1112:Generated_Source\PSoC6\pdl\cmsis/include/core_cm4.h **** 
1113:Generated_Source\PSoC6\pdl\cmsis/include/core_cm4.h **** /* TPI Formatter and Flush Control Register Definitions */
1114:Generated_Source\PSoC6\pdl\cmsis/include/core_cm4.h **** #define TPI_FFCR_TrigIn_Pos                 8U                                         /*!< TPI FFC
1115:Generated_Source\PSoC6\pdl\cmsis/include/core_cm4.h **** #define TPI_FFCR_TrigIn_Msk                (0x1UL << TPI_FFCR_TrigIn_Pos)              /*!< TPI FFC
1116:Generated_Source\PSoC6\pdl\cmsis/include/core_cm4.h **** 
1117:Generated_Source\PSoC6\pdl\cmsis/include/core_cm4.h **** #define TPI_FFCR_EnFCont_Pos                1U                                         /*!< TPI FFC
1118:Generated_Source\PSoC6\pdl\cmsis/include/core_cm4.h **** #define TPI_FFCR_EnFCont_Msk               (0x1UL << TPI_FFCR_EnFCont_Pos)             /*!< TPI FFC
1119:Generated_Source\PSoC6\pdl\cmsis/include/core_cm4.h **** 
1120:Generated_Source\PSoC6\pdl\cmsis/include/core_cm4.h **** /* TPI TRIGGER Register Definitions */
1121:Generated_Source\PSoC6\pdl\cmsis/include/core_cm4.h **** #define TPI_TRIGGER_TRIGGER_Pos             0U                                         /*!< TPI TRI
1122:Generated_Source\PSoC6\pdl\cmsis/include/core_cm4.h **** #define TPI_TRIGGER_TRIGGER_Msk            (0x1UL /*<< TPI_TRIGGER_TRIGGER_Pos*/)      /*!< TPI TRI
1123:Generated_Source\PSoC6\pdl\cmsis/include/core_cm4.h **** 
1124:Generated_Source\PSoC6\pdl\cmsis/include/core_cm4.h **** /* TPI Integration ETM Data Register Definitions (FIFO0) */
1125:Generated_Source\PSoC6\pdl\cmsis/include/core_cm4.h **** #define TPI_FIFO0_ITM_ATVALID_Pos          29U                                         /*!< TPI FIF
1126:Generated_Source\PSoC6\pdl\cmsis/include/core_cm4.h **** #define TPI_FIFO0_ITM_ATVALID_Msk          (0x3UL << TPI_FIFO0_ITM_ATVALID_Pos)        /*!< TPI FIF
1127:Generated_Source\PSoC6\pdl\cmsis/include/core_cm4.h **** 
1128:Generated_Source\PSoC6\pdl\cmsis/include/core_cm4.h **** #define TPI_FIFO0_ITM_bytecount_Pos        27U                                         /*!< TPI FIF
1129:Generated_Source\PSoC6\pdl\cmsis/include/core_cm4.h **** #define TPI_FIFO0_ITM_bytecount_Msk        (0x3UL << TPI_FIFO0_ITM_bytecount_Pos)      /*!< TPI FIF
1130:Generated_Source\PSoC6\pdl\cmsis/include/core_cm4.h **** 
1131:Generated_Source\PSoC6\pdl\cmsis/include/core_cm4.h **** #define TPI_FIFO0_ETM_ATVALID_Pos          26U                                         /*!< TPI FIF
1132:Generated_Source\PSoC6\pdl\cmsis/include/core_cm4.h **** #define TPI_FIFO0_ETM_ATVALID_Msk          (0x3UL << TPI_FIFO0_ETM_ATVALID_Pos)        /*!< TPI FIF
1133:Generated_Source\PSoC6\pdl\cmsis/include/core_cm4.h **** 
1134:Generated_Source\PSoC6\pdl\cmsis/include/core_cm4.h **** #define TPI_FIFO0_ETM_bytecount_Pos        24U                                         /*!< TPI FIF
1135:Generated_Source\PSoC6\pdl\cmsis/include/core_cm4.h **** #define TPI_FIFO0_ETM_bytecount_Msk        (0x3UL << TPI_FIFO0_ETM_bytecount_Pos)      /*!< TPI FIF
1136:Generated_Source\PSoC6\pdl\cmsis/include/core_cm4.h **** 
1137:Generated_Source\PSoC6\pdl\cmsis/include/core_cm4.h **** #define TPI_FIFO0_ETM2_Pos                 16U                                         /*!< TPI FIF
1138:Generated_Source\PSoC6\pdl\cmsis/include/core_cm4.h **** #define TPI_FIFO0_ETM2_Msk                 (0xFFUL << TPI_FIFO0_ETM2_Pos)              /*!< TPI FIF
1139:Generated_Source\PSoC6\pdl\cmsis/include/core_cm4.h **** 
1140:Generated_Source\PSoC6\pdl\cmsis/include/core_cm4.h **** #define TPI_FIFO0_ETM1_Pos                  8U                                         /*!< TPI FIF
1141:Generated_Source\PSoC6\pdl\cmsis/include/core_cm4.h **** #define TPI_FIFO0_ETM1_Msk                 (0xFFUL << TPI_FIFO0_ETM1_Pos)              /*!< TPI FIF
1142:Generated_Source\PSoC6\pdl\cmsis/include/core_cm4.h **** 
1143:Generated_Source\PSoC6\pdl\cmsis/include/core_cm4.h **** #define TPI_FIFO0_ETM0_Pos                  0U                                         /*!< TPI FIF
1144:Generated_Source\PSoC6\pdl\cmsis/include/core_cm4.h **** #define TPI_FIFO0_ETM0_Msk                 (0xFFUL /*<< TPI_FIFO0_ETM0_Pos*/)          /*!< TPI FIF
1145:Generated_Source\PSoC6\pdl\cmsis/include/core_cm4.h **** 
1146:Generated_Source\PSoC6\pdl\cmsis/include/core_cm4.h **** /* TPI ITATBCTR2 Register Definitions */
1147:Generated_Source\PSoC6\pdl\cmsis/include/core_cm4.h **** #define TPI_ITATBCTR2_ATREADY_Pos           0U                                         /*!< TPI ITA
ARM GAS  C:\Users\Mathieu\AppData\Local\Temp\ccqdbTbw.s 			page 99


1148:Generated_Source\PSoC6\pdl\cmsis/include/core_cm4.h **** #define TPI_ITATBCTR2_ATREADY_Msk          (0x1UL /*<< TPI_ITATBCTR2_ATREADY_Pos*/)    /*!< TPI ITA
1149:Generated_Source\PSoC6\pdl\cmsis/include/core_cm4.h **** 
1150:Generated_Source\PSoC6\pdl\cmsis/include/core_cm4.h **** /* TPI Integration ITM Data Register Definitions (FIFO1) */
1151:Generated_Source\PSoC6\pdl\cmsis/include/core_cm4.h **** #define TPI_FIFO1_ITM_ATVALID_Pos          29U                                         /*!< TPI FIF
1152:Generated_Source\PSoC6\pdl\cmsis/include/core_cm4.h **** #define TPI_FIFO1_ITM_ATVALID_Msk          (0x3UL << TPI_FIFO1_ITM_ATVALID_Pos)        /*!< TPI FIF
1153:Generated_Source\PSoC6\pdl\cmsis/include/core_cm4.h **** 
1154:Generated_Source\PSoC6\pdl\cmsis/include/core_cm4.h **** #define TPI_FIFO1_ITM_bytecount_Pos        27U                                         /*!< TPI FIF
1155:Generated_Source\PSoC6\pdl\cmsis/include/core_cm4.h **** #define TPI_FIFO1_ITM_bytecount_Msk        (0x3UL << TPI_FIFO1_ITM_bytecount_Pos)      /*!< TPI FIF
1156:Generated_Source\PSoC6\pdl\cmsis/include/core_cm4.h **** 
1157:Generated_Source\PSoC6\pdl\cmsis/include/core_cm4.h **** #define TPI_FIFO1_ETM_ATVALID_Pos          26U                                         /*!< TPI FIF
1158:Generated_Source\PSoC6\pdl\cmsis/include/core_cm4.h **** #define TPI_FIFO1_ETM_ATVALID_Msk          (0x3UL << TPI_FIFO1_ETM_ATVALID_Pos)        /*!< TPI FIF
1159:Generated_Source\PSoC6\pdl\cmsis/include/core_cm4.h **** 
1160:Generated_Source\PSoC6\pdl\cmsis/include/core_cm4.h **** #define TPI_FIFO1_ETM_bytecount_Pos        24U                                         /*!< TPI FIF
1161:Generated_Source\PSoC6\pdl\cmsis/include/core_cm4.h **** #define TPI_FIFO1_ETM_bytecount_Msk        (0x3UL << TPI_FIFO1_ETM_bytecount_Pos)      /*!< TPI FIF
1162:Generated_Source\PSoC6\pdl\cmsis/include/core_cm4.h **** 
1163:Generated_Source\PSoC6\pdl\cmsis/include/core_cm4.h **** #define TPI_FIFO1_ITM2_Pos                 16U                                         /*!< TPI FIF
1164:Generated_Source\PSoC6\pdl\cmsis/include/core_cm4.h **** #define TPI_FIFO1_ITM2_Msk                 (0xFFUL << TPI_FIFO1_ITM2_Pos)              /*!< TPI FIF
1165:Generated_Source\PSoC6\pdl\cmsis/include/core_cm4.h **** 
1166:Generated_Source\PSoC6\pdl\cmsis/include/core_cm4.h **** #define TPI_FIFO1_ITM1_Pos                  8U                                         /*!< TPI FIF
1167:Generated_Source\PSoC6\pdl\cmsis/include/core_cm4.h **** #define TPI_FIFO1_ITM1_Msk                 (0xFFUL << TPI_FIFO1_ITM1_Pos)              /*!< TPI FIF
1168:Generated_Source\PSoC6\pdl\cmsis/include/core_cm4.h **** 
1169:Generated_Source\PSoC6\pdl\cmsis/include/core_cm4.h **** #define TPI_FIFO1_ITM0_Pos                  0U                                         /*!< TPI FIF
1170:Generated_Source\PSoC6\pdl\cmsis/include/core_cm4.h **** #define TPI_FIFO1_ITM0_Msk                 (0xFFUL /*<< TPI_FIFO1_ITM0_Pos*/)          /*!< TPI FIF
1171:Generated_Source\PSoC6\pdl\cmsis/include/core_cm4.h **** 
1172:Generated_Source\PSoC6\pdl\cmsis/include/core_cm4.h **** /* TPI ITATBCTR0 Register Definitions */
1173:Generated_Source\PSoC6\pdl\cmsis/include/core_cm4.h **** #define TPI_ITATBCTR0_ATREADY_Pos           0U                                         /*!< TPI ITA
1174:Generated_Source\PSoC6\pdl\cmsis/include/core_cm4.h **** #define TPI_ITATBCTR0_ATREADY_Msk          (0x1UL /*<< TPI_ITATBCTR0_ATREADY_Pos*/)    /*!< TPI ITA
1175:Generated_Source\PSoC6\pdl\cmsis/include/core_cm4.h **** 
1176:Generated_Source\PSoC6\pdl\cmsis/include/core_cm4.h **** /* TPI Integration Mode Control Register Definitions */
1177:Generated_Source\PSoC6\pdl\cmsis/include/core_cm4.h **** #define TPI_ITCTRL_Mode_Pos                 0U                                         /*!< TPI ITC
1178:Generated_Source\PSoC6\pdl\cmsis/include/core_cm4.h **** #define TPI_ITCTRL_Mode_Msk                (0x1UL /*<< TPI_ITCTRL_Mode_Pos*/)          /*!< TPI ITC
1179:Generated_Source\PSoC6\pdl\cmsis/include/core_cm4.h **** 
1180:Generated_Source\PSoC6\pdl\cmsis/include/core_cm4.h **** /* TPI DEVID Register Definitions */
1181:Generated_Source\PSoC6\pdl\cmsis/include/core_cm4.h **** #define TPI_DEVID_NRZVALID_Pos             11U                                         /*!< TPI DEV
1182:Generated_Source\PSoC6\pdl\cmsis/include/core_cm4.h **** #define TPI_DEVID_NRZVALID_Msk             (0x1UL << TPI_DEVID_NRZVALID_Pos)           /*!< TPI DEV
1183:Generated_Source\PSoC6\pdl\cmsis/include/core_cm4.h **** 
1184:Generated_Source\PSoC6\pdl\cmsis/include/core_cm4.h **** #define TPI_DEVID_MANCVALID_Pos            10U                                         /*!< TPI DEV
1185:Generated_Source\PSoC6\pdl\cmsis/include/core_cm4.h **** #define TPI_DEVID_MANCVALID_Msk            (0x1UL << TPI_DEVID_MANCVALID_Pos)          /*!< TPI DEV
1186:Generated_Source\PSoC6\pdl\cmsis/include/core_cm4.h **** 
1187:Generated_Source\PSoC6\pdl\cmsis/include/core_cm4.h **** #define TPI_DEVID_PTINVALID_Pos             9U                                         /*!< TPI DEV
1188:Generated_Source\PSoC6\pdl\cmsis/include/core_cm4.h **** #define TPI_DEVID_PTINVALID_Msk            (0x1UL << TPI_DEVID_PTINVALID_Pos)          /*!< TPI DEV
1189:Generated_Source\PSoC6\pdl\cmsis/include/core_cm4.h **** 
1190:Generated_Source\PSoC6\pdl\cmsis/include/core_cm4.h **** #define TPI_DEVID_MinBufSz_Pos              6U                                         /*!< TPI DEV
1191:Generated_Source\PSoC6\pdl\cmsis/include/core_cm4.h **** #define TPI_DEVID_MinBufSz_Msk             (0x7UL << TPI_DEVID_MinBufSz_Pos)           /*!< TPI DEV
1192:Generated_Source\PSoC6\pdl\cmsis/include/core_cm4.h **** 
1193:Generated_Source\PSoC6\pdl\cmsis/include/core_cm4.h **** #define TPI_DEVID_AsynClkIn_Pos             5U                                         /*!< TPI DEV
1194:Generated_Source\PSoC6\pdl\cmsis/include/core_cm4.h **** #define TPI_DEVID_AsynClkIn_Msk            (0x1UL << TPI_DEVID_AsynClkIn_Pos)          /*!< TPI DEV
1195:Generated_Source\PSoC6\pdl\cmsis/include/core_cm4.h **** 
1196:Generated_Source\PSoC6\pdl\cmsis/include/core_cm4.h **** #define TPI_DEVID_NrTraceInput_Pos          0U                                         /*!< TPI DEV
1197:Generated_Source\PSoC6\pdl\cmsis/include/core_cm4.h **** #define TPI_DEVID_NrTraceInput_Msk         (0x1FUL /*<< TPI_DEVID_NrTraceInput_Pos*/)  /*!< TPI DEV
1198:Generated_Source\PSoC6\pdl\cmsis/include/core_cm4.h **** 
1199:Generated_Source\PSoC6\pdl\cmsis/include/core_cm4.h **** /* TPI DEVTYPE Register Definitions */
1200:Generated_Source\PSoC6\pdl\cmsis/include/core_cm4.h **** #define TPI_DEVTYPE_MajorType_Pos           4U                                         /*!< TPI DEV
1201:Generated_Source\PSoC6\pdl\cmsis/include/core_cm4.h **** #define TPI_DEVTYPE_MajorType_Msk          (0xFUL << TPI_DEVTYPE_MajorType_Pos)        /*!< TPI DEV
1202:Generated_Source\PSoC6\pdl\cmsis/include/core_cm4.h **** 
1203:Generated_Source\PSoC6\pdl\cmsis/include/core_cm4.h **** #define TPI_DEVTYPE_SubType_Pos             0U                                         /*!< TPI DEV
1204:Generated_Source\PSoC6\pdl\cmsis/include/core_cm4.h **** #define TPI_DEVTYPE_SubType_Msk            (0xFUL /*<< TPI_DEVTYPE_SubType_Pos*/)      /*!< TPI DEV
ARM GAS  C:\Users\Mathieu\AppData\Local\Temp\ccqdbTbw.s 			page 100


1205:Generated_Source\PSoC6\pdl\cmsis/include/core_cm4.h **** 
1206:Generated_Source\PSoC6\pdl\cmsis/include/core_cm4.h **** /*@}*/ /* end of group CMSIS_TPI */
1207:Generated_Source\PSoC6\pdl\cmsis/include/core_cm4.h **** 
1208:Generated_Source\PSoC6\pdl\cmsis/include/core_cm4.h **** 
1209:Generated_Source\PSoC6\pdl\cmsis/include/core_cm4.h **** #if defined (__MPU_PRESENT) && (__MPU_PRESENT == 1U)
1210:Generated_Source\PSoC6\pdl\cmsis/include/core_cm4.h **** /**
1211:Generated_Source\PSoC6\pdl\cmsis/include/core_cm4.h ****   \ingroup  CMSIS_core_register
1212:Generated_Source\PSoC6\pdl\cmsis/include/core_cm4.h ****   \defgroup CMSIS_MPU     Memory Protection Unit (MPU)
1213:Generated_Source\PSoC6\pdl\cmsis/include/core_cm4.h ****   \brief    Type definitions for the Memory Protection Unit (MPU)
1214:Generated_Source\PSoC6\pdl\cmsis/include/core_cm4.h ****   @{
1215:Generated_Source\PSoC6\pdl\cmsis/include/core_cm4.h ****  */
1216:Generated_Source\PSoC6\pdl\cmsis/include/core_cm4.h **** 
1217:Generated_Source\PSoC6\pdl\cmsis/include/core_cm4.h **** /**
1218:Generated_Source\PSoC6\pdl\cmsis/include/core_cm4.h ****   \brief  Structure type to access the Memory Protection Unit (MPU).
1219:Generated_Source\PSoC6\pdl\cmsis/include/core_cm4.h ****  */
1220:Generated_Source\PSoC6\pdl\cmsis/include/core_cm4.h **** typedef struct
1221:Generated_Source\PSoC6\pdl\cmsis/include/core_cm4.h **** {
1222:Generated_Source\PSoC6\pdl\cmsis/include/core_cm4.h ****   __IM  uint32_t TYPE;                   /*!< Offset: 0x000 (R/ )  MPU Type Register */
1223:Generated_Source\PSoC6\pdl\cmsis/include/core_cm4.h ****   __IOM uint32_t CTRL;                   /*!< Offset: 0x004 (R/W)  MPU Control Register */
1224:Generated_Source\PSoC6\pdl\cmsis/include/core_cm4.h ****   __IOM uint32_t RNR;                    /*!< Offset: 0x008 (R/W)  MPU Region RNRber Register */
1225:Generated_Source\PSoC6\pdl\cmsis/include/core_cm4.h ****   __IOM uint32_t RBAR;                   /*!< Offset: 0x00C (R/W)  MPU Region Base Address Register
1226:Generated_Source\PSoC6\pdl\cmsis/include/core_cm4.h ****   __IOM uint32_t RASR;                   /*!< Offset: 0x010 (R/W)  MPU Region Attribute and Size Re
1227:Generated_Source\PSoC6\pdl\cmsis/include/core_cm4.h ****   __IOM uint32_t RBAR_A1;                /*!< Offset: 0x014 (R/W)  MPU Alias 1 Region Base Address 
1228:Generated_Source\PSoC6\pdl\cmsis/include/core_cm4.h ****   __IOM uint32_t RASR_A1;                /*!< Offset: 0x018 (R/W)  MPU Alias 1 Region Attribute and
1229:Generated_Source\PSoC6\pdl\cmsis/include/core_cm4.h ****   __IOM uint32_t RBAR_A2;                /*!< Offset: 0x01C (R/W)  MPU Alias 2 Region Base Address 
1230:Generated_Source\PSoC6\pdl\cmsis/include/core_cm4.h ****   __IOM uint32_t RASR_A2;                /*!< Offset: 0x020 (R/W)  MPU Alias 2 Region Attribute and
1231:Generated_Source\PSoC6\pdl\cmsis/include/core_cm4.h ****   __IOM uint32_t RBAR_A3;                /*!< Offset: 0x024 (R/W)  MPU Alias 3 Region Base Address 
1232:Generated_Source\PSoC6\pdl\cmsis/include/core_cm4.h ****   __IOM uint32_t RASR_A3;                /*!< Offset: 0x028 (R/W)  MPU Alias 3 Region Attribute and
1233:Generated_Source\PSoC6\pdl\cmsis/include/core_cm4.h **** } MPU_Type;
1234:Generated_Source\PSoC6\pdl\cmsis/include/core_cm4.h **** 
1235:Generated_Source\PSoC6\pdl\cmsis/include/core_cm4.h **** #define MPU_TYPE_RALIASES                  4U
1236:Generated_Source\PSoC6\pdl\cmsis/include/core_cm4.h **** 
1237:Generated_Source\PSoC6\pdl\cmsis/include/core_cm4.h **** /* MPU Type Register Definitions */
1238:Generated_Source\PSoC6\pdl\cmsis/include/core_cm4.h **** #define MPU_TYPE_IREGION_Pos               16U                                            /*!< MPU 
1239:Generated_Source\PSoC6\pdl\cmsis/include/core_cm4.h **** #define MPU_TYPE_IREGION_Msk               (0xFFUL << MPU_TYPE_IREGION_Pos)               /*!< MPU 
1240:Generated_Source\PSoC6\pdl\cmsis/include/core_cm4.h **** 
1241:Generated_Source\PSoC6\pdl\cmsis/include/core_cm4.h **** #define MPU_TYPE_DREGION_Pos                8U                                            /*!< MPU 
1242:Generated_Source\PSoC6\pdl\cmsis/include/core_cm4.h **** #define MPU_TYPE_DREGION_Msk               (0xFFUL << MPU_TYPE_DREGION_Pos)               /*!< MPU 
1243:Generated_Source\PSoC6\pdl\cmsis/include/core_cm4.h **** 
1244:Generated_Source\PSoC6\pdl\cmsis/include/core_cm4.h **** #define MPU_TYPE_SEPARATE_Pos               0U                                            /*!< MPU 
1245:Generated_Source\PSoC6\pdl\cmsis/include/core_cm4.h **** #define MPU_TYPE_SEPARATE_Msk              (1UL /*<< MPU_TYPE_SEPARATE_Pos*/)             /*!< MPU 
1246:Generated_Source\PSoC6\pdl\cmsis/include/core_cm4.h **** 
1247:Generated_Source\PSoC6\pdl\cmsis/include/core_cm4.h **** /* MPU Control Register Definitions */
1248:Generated_Source\PSoC6\pdl\cmsis/include/core_cm4.h **** #define MPU_CTRL_PRIVDEFENA_Pos             2U                                            /*!< MPU 
1249:Generated_Source\PSoC6\pdl\cmsis/include/core_cm4.h **** #define MPU_CTRL_PRIVDEFENA_Msk            (1UL << MPU_CTRL_PRIVDEFENA_Pos)               /*!< MPU 
1250:Generated_Source\PSoC6\pdl\cmsis/include/core_cm4.h **** 
1251:Generated_Source\PSoC6\pdl\cmsis/include/core_cm4.h **** #define MPU_CTRL_HFNMIENA_Pos               1U                                            /*!< MPU 
1252:Generated_Source\PSoC6\pdl\cmsis/include/core_cm4.h **** #define MPU_CTRL_HFNMIENA_Msk              (1UL << MPU_CTRL_HFNMIENA_Pos)                 /*!< MPU 
1253:Generated_Source\PSoC6\pdl\cmsis/include/core_cm4.h **** 
1254:Generated_Source\PSoC6\pdl\cmsis/include/core_cm4.h **** #define MPU_CTRL_ENABLE_Pos                 0U                                            /*!< MPU 
1255:Generated_Source\PSoC6\pdl\cmsis/include/core_cm4.h **** #define MPU_CTRL_ENABLE_Msk                (1UL /*<< MPU_CTRL_ENABLE_Pos*/)               /*!< MPU 
1256:Generated_Source\PSoC6\pdl\cmsis/include/core_cm4.h **** 
1257:Generated_Source\PSoC6\pdl\cmsis/include/core_cm4.h **** /* MPU Region Number Register Definitions */
1258:Generated_Source\PSoC6\pdl\cmsis/include/core_cm4.h **** #define MPU_RNR_REGION_Pos                  0U                                            /*!< MPU 
1259:Generated_Source\PSoC6\pdl\cmsis/include/core_cm4.h **** #define MPU_RNR_REGION_Msk                 (0xFFUL /*<< MPU_RNR_REGION_Pos*/)             /*!< MPU 
1260:Generated_Source\PSoC6\pdl\cmsis/include/core_cm4.h **** 
1261:Generated_Source\PSoC6\pdl\cmsis/include/core_cm4.h **** /* MPU Region Base Address Register Definitions */
ARM GAS  C:\Users\Mathieu\AppData\Local\Temp\ccqdbTbw.s 			page 101


1262:Generated_Source\PSoC6\pdl\cmsis/include/core_cm4.h **** #define MPU_RBAR_ADDR_Pos                   5U                                            /*!< MPU 
1263:Generated_Source\PSoC6\pdl\cmsis/include/core_cm4.h **** #define MPU_RBAR_ADDR_Msk                  (0x7FFFFFFUL << MPU_RBAR_ADDR_Pos)             /*!< MPU 
1264:Generated_Source\PSoC6\pdl\cmsis/include/core_cm4.h **** 
1265:Generated_Source\PSoC6\pdl\cmsis/include/core_cm4.h **** #define MPU_RBAR_VALID_Pos                  4U                                            /*!< MPU 
1266:Generated_Source\PSoC6\pdl\cmsis/include/core_cm4.h **** #define MPU_RBAR_VALID_Msk                 (1UL << MPU_RBAR_VALID_Pos)                    /*!< MPU 
1267:Generated_Source\PSoC6\pdl\cmsis/include/core_cm4.h **** 
1268:Generated_Source\PSoC6\pdl\cmsis/include/core_cm4.h **** #define MPU_RBAR_REGION_Pos                 0U                                            /*!< MPU 
1269:Generated_Source\PSoC6\pdl\cmsis/include/core_cm4.h **** #define MPU_RBAR_REGION_Msk                (0xFUL /*<< MPU_RBAR_REGION_Pos*/)             /*!< MPU 
1270:Generated_Source\PSoC6\pdl\cmsis/include/core_cm4.h **** 
1271:Generated_Source\PSoC6\pdl\cmsis/include/core_cm4.h **** /* MPU Region Attribute and Size Register Definitions */
1272:Generated_Source\PSoC6\pdl\cmsis/include/core_cm4.h **** #define MPU_RASR_ATTRS_Pos                 16U                                            /*!< MPU 
1273:Generated_Source\PSoC6\pdl\cmsis/include/core_cm4.h **** #define MPU_RASR_ATTRS_Msk                 (0xFFFFUL << MPU_RASR_ATTRS_Pos)               /*!< MPU 
1274:Generated_Source\PSoC6\pdl\cmsis/include/core_cm4.h **** 
1275:Generated_Source\PSoC6\pdl\cmsis/include/core_cm4.h **** #define MPU_RASR_XN_Pos                    28U                                            /*!< MPU 
1276:Generated_Source\PSoC6\pdl\cmsis/include/core_cm4.h **** #define MPU_RASR_XN_Msk                    (1UL << MPU_RASR_XN_Pos)                       /*!< MPU 
1277:Generated_Source\PSoC6\pdl\cmsis/include/core_cm4.h **** 
1278:Generated_Source\PSoC6\pdl\cmsis/include/core_cm4.h **** #define MPU_RASR_AP_Pos                    24U                                            /*!< MPU 
1279:Generated_Source\PSoC6\pdl\cmsis/include/core_cm4.h **** #define MPU_RASR_AP_Msk                    (0x7UL << MPU_RASR_AP_Pos)                     /*!< MPU 
1280:Generated_Source\PSoC6\pdl\cmsis/include/core_cm4.h **** 
1281:Generated_Source\PSoC6\pdl\cmsis/include/core_cm4.h **** #define MPU_RASR_TEX_Pos                   19U                                            /*!< MPU 
1282:Generated_Source\PSoC6\pdl\cmsis/include/core_cm4.h **** #define MPU_RASR_TEX_Msk                   (0x7UL << MPU_RASR_TEX_Pos)                    /*!< MPU 
1283:Generated_Source\PSoC6\pdl\cmsis/include/core_cm4.h **** 
1284:Generated_Source\PSoC6\pdl\cmsis/include/core_cm4.h **** #define MPU_RASR_S_Pos                     18U                                            /*!< MPU 
1285:Generated_Source\PSoC6\pdl\cmsis/include/core_cm4.h **** #define MPU_RASR_S_Msk                     (1UL << MPU_RASR_S_Pos)                        /*!< MPU 
1286:Generated_Source\PSoC6\pdl\cmsis/include/core_cm4.h **** 
1287:Generated_Source\PSoC6\pdl\cmsis/include/core_cm4.h **** #define MPU_RASR_C_Pos                     17U                                            /*!< MPU 
1288:Generated_Source\PSoC6\pdl\cmsis/include/core_cm4.h **** #define MPU_RASR_C_Msk                     (1UL << MPU_RASR_C_Pos)                        /*!< MPU 
1289:Generated_Source\PSoC6\pdl\cmsis/include/core_cm4.h **** 
1290:Generated_Source\PSoC6\pdl\cmsis/include/core_cm4.h **** #define MPU_RASR_B_Pos                     16U                                            /*!< MPU 
1291:Generated_Source\PSoC6\pdl\cmsis/include/core_cm4.h **** #define MPU_RASR_B_Msk                     (1UL << MPU_RASR_B_Pos)                        /*!< MPU 
1292:Generated_Source\PSoC6\pdl\cmsis/include/core_cm4.h **** 
1293:Generated_Source\PSoC6\pdl\cmsis/include/core_cm4.h **** #define MPU_RASR_SRD_Pos                    8U                                            /*!< MPU 
1294:Generated_Source\PSoC6\pdl\cmsis/include/core_cm4.h **** #define MPU_RASR_SRD_Msk                   (0xFFUL << MPU_RASR_SRD_Pos)                   /*!< MPU 
1295:Generated_Source\PSoC6\pdl\cmsis/include/core_cm4.h **** 
1296:Generated_Source\PSoC6\pdl\cmsis/include/core_cm4.h **** #define MPU_RASR_SIZE_Pos                   1U                                            /*!< MPU 
1297:Generated_Source\PSoC6\pdl\cmsis/include/core_cm4.h **** #define MPU_RASR_SIZE_Msk                  (0x1FUL << MPU_RASR_SIZE_Pos)                  /*!< MPU 
1298:Generated_Source\PSoC6\pdl\cmsis/include/core_cm4.h **** 
1299:Generated_Source\PSoC6\pdl\cmsis/include/core_cm4.h **** #define MPU_RASR_ENABLE_Pos                 0U                                            /*!< MPU 
1300:Generated_Source\PSoC6\pdl\cmsis/include/core_cm4.h **** #define MPU_RASR_ENABLE_Msk                (1UL /*<< MPU_RASR_ENABLE_Pos*/)               /*!< MPU 
1301:Generated_Source\PSoC6\pdl\cmsis/include/core_cm4.h **** 
1302:Generated_Source\PSoC6\pdl\cmsis/include/core_cm4.h **** /*@} end of group CMSIS_MPU */
1303:Generated_Source\PSoC6\pdl\cmsis/include/core_cm4.h **** #endif /* defined (__MPU_PRESENT) && (__MPU_PRESENT == 1U) */
1304:Generated_Source\PSoC6\pdl\cmsis/include/core_cm4.h **** 
1305:Generated_Source\PSoC6\pdl\cmsis/include/core_cm4.h **** 
1306:Generated_Source\PSoC6\pdl\cmsis/include/core_cm4.h **** /**
1307:Generated_Source\PSoC6\pdl\cmsis/include/core_cm4.h ****   \ingroup  CMSIS_core_register
1308:Generated_Source\PSoC6\pdl\cmsis/include/core_cm4.h ****   \defgroup CMSIS_FPU     Floating Point Unit (FPU)
1309:Generated_Source\PSoC6\pdl\cmsis/include/core_cm4.h ****   \brief    Type definitions for the Floating Point Unit (FPU)
1310:Generated_Source\PSoC6\pdl\cmsis/include/core_cm4.h ****   @{
1311:Generated_Source\PSoC6\pdl\cmsis/include/core_cm4.h ****  */
1312:Generated_Source\PSoC6\pdl\cmsis/include/core_cm4.h **** 
1313:Generated_Source\PSoC6\pdl\cmsis/include/core_cm4.h **** /**
1314:Generated_Source\PSoC6\pdl\cmsis/include/core_cm4.h ****   \brief  Structure type to access the Floating Point Unit (FPU).
1315:Generated_Source\PSoC6\pdl\cmsis/include/core_cm4.h ****  */
1316:Generated_Source\PSoC6\pdl\cmsis/include/core_cm4.h **** typedef struct
1317:Generated_Source\PSoC6\pdl\cmsis/include/core_cm4.h **** {
1318:Generated_Source\PSoC6\pdl\cmsis/include/core_cm4.h ****         uint32_t RESERVED0[1U];
ARM GAS  C:\Users\Mathieu\AppData\Local\Temp\ccqdbTbw.s 			page 102


1319:Generated_Source\PSoC6\pdl\cmsis/include/core_cm4.h ****   __IOM uint32_t FPCCR;                  /*!< Offset: 0x004 (R/W)  Floating-Point Context Control R
1320:Generated_Source\PSoC6\pdl\cmsis/include/core_cm4.h ****   __IOM uint32_t FPCAR;                  /*!< Offset: 0x008 (R/W)  Floating-Point Context Address R
1321:Generated_Source\PSoC6\pdl\cmsis/include/core_cm4.h ****   __IOM uint32_t FPDSCR;                 /*!< Offset: 0x00C (R/W)  Floating-Point Default Status Co
1322:Generated_Source\PSoC6\pdl\cmsis/include/core_cm4.h ****   __IM  uint32_t MVFR0;                  /*!< Offset: 0x010 (R/ )  Media and FP Feature Register 0 
1323:Generated_Source\PSoC6\pdl\cmsis/include/core_cm4.h ****   __IM  uint32_t MVFR1;                  /*!< Offset: 0x014 (R/ )  Media and FP Feature Register 1 
1324:Generated_Source\PSoC6\pdl\cmsis/include/core_cm4.h **** } FPU_Type;
1325:Generated_Source\PSoC6\pdl\cmsis/include/core_cm4.h **** 
1326:Generated_Source\PSoC6\pdl\cmsis/include/core_cm4.h **** /* Floating-Point Context Control Register Definitions */
1327:Generated_Source\PSoC6\pdl\cmsis/include/core_cm4.h **** #define FPU_FPCCR_ASPEN_Pos                31U                                            /*!< FPCC
1328:Generated_Source\PSoC6\pdl\cmsis/include/core_cm4.h **** #define FPU_FPCCR_ASPEN_Msk                (1UL << FPU_FPCCR_ASPEN_Pos)                   /*!< FPCC
1329:Generated_Source\PSoC6\pdl\cmsis/include/core_cm4.h **** 
1330:Generated_Source\PSoC6\pdl\cmsis/include/core_cm4.h **** #define FPU_FPCCR_LSPEN_Pos                30U                                            /*!< FPCC
1331:Generated_Source\PSoC6\pdl\cmsis/include/core_cm4.h **** #define FPU_FPCCR_LSPEN_Msk                (1UL << FPU_FPCCR_LSPEN_Pos)                   /*!< FPCC
1332:Generated_Source\PSoC6\pdl\cmsis/include/core_cm4.h **** 
1333:Generated_Source\PSoC6\pdl\cmsis/include/core_cm4.h **** #define FPU_FPCCR_MONRDY_Pos                8U                                            /*!< FPCC
1334:Generated_Source\PSoC6\pdl\cmsis/include/core_cm4.h **** #define FPU_FPCCR_MONRDY_Msk               (1UL << FPU_FPCCR_MONRDY_Pos)                  /*!< FPCC
1335:Generated_Source\PSoC6\pdl\cmsis/include/core_cm4.h **** 
1336:Generated_Source\PSoC6\pdl\cmsis/include/core_cm4.h **** #define FPU_FPCCR_BFRDY_Pos                 6U                                            /*!< FPCC
1337:Generated_Source\PSoC6\pdl\cmsis/include/core_cm4.h **** #define FPU_FPCCR_BFRDY_Msk                (1UL << FPU_FPCCR_BFRDY_Pos)                   /*!< FPCC
1338:Generated_Source\PSoC6\pdl\cmsis/include/core_cm4.h **** 
1339:Generated_Source\PSoC6\pdl\cmsis/include/core_cm4.h **** #define FPU_FPCCR_MMRDY_Pos                 5U                                            /*!< FPCC
1340:Generated_Source\PSoC6\pdl\cmsis/include/core_cm4.h **** #define FPU_FPCCR_MMRDY_Msk                (1UL << FPU_FPCCR_MMRDY_Pos)                   /*!< FPCC
1341:Generated_Source\PSoC6\pdl\cmsis/include/core_cm4.h **** 
1342:Generated_Source\PSoC6\pdl\cmsis/include/core_cm4.h **** #define FPU_FPCCR_HFRDY_Pos                 4U                                            /*!< FPCC
1343:Generated_Source\PSoC6\pdl\cmsis/include/core_cm4.h **** #define FPU_FPCCR_HFRDY_Msk                (1UL << FPU_FPCCR_HFRDY_Pos)                   /*!< FPCC
1344:Generated_Source\PSoC6\pdl\cmsis/include/core_cm4.h **** 
1345:Generated_Source\PSoC6\pdl\cmsis/include/core_cm4.h **** #define FPU_FPCCR_THREAD_Pos                3U                                            /*!< FPCC
1346:Generated_Source\PSoC6\pdl\cmsis/include/core_cm4.h **** #define FPU_FPCCR_THREAD_Msk               (1UL << FPU_FPCCR_THREAD_Pos)                  /*!< FPCC
1347:Generated_Source\PSoC6\pdl\cmsis/include/core_cm4.h **** 
1348:Generated_Source\PSoC6\pdl\cmsis/include/core_cm4.h **** #define FPU_FPCCR_USER_Pos                  1U                                            /*!< FPCC
1349:Generated_Source\PSoC6\pdl\cmsis/include/core_cm4.h **** #define FPU_FPCCR_USER_Msk                 (1UL << FPU_FPCCR_USER_Pos)                    /*!< FPCC
1350:Generated_Source\PSoC6\pdl\cmsis/include/core_cm4.h **** 
1351:Generated_Source\PSoC6\pdl\cmsis/include/core_cm4.h **** #define FPU_FPCCR_LSPACT_Pos                0U                                            /*!< FPCC
1352:Generated_Source\PSoC6\pdl\cmsis/include/core_cm4.h **** #define FPU_FPCCR_LSPACT_Msk               (1UL /*<< FPU_FPCCR_LSPACT_Pos*/)              /*!< FPCC
1353:Generated_Source\PSoC6\pdl\cmsis/include/core_cm4.h **** 
1354:Generated_Source\PSoC6\pdl\cmsis/include/core_cm4.h **** /* Floating-Point Context Address Register Definitions */
1355:Generated_Source\PSoC6\pdl\cmsis/include/core_cm4.h **** #define FPU_FPCAR_ADDRESS_Pos               3U                                            /*!< FPCA
1356:Generated_Source\PSoC6\pdl\cmsis/include/core_cm4.h **** #define FPU_FPCAR_ADDRESS_Msk              (0x1FFFFFFFUL << FPU_FPCAR_ADDRESS_Pos)        /*!< FPCA
1357:Generated_Source\PSoC6\pdl\cmsis/include/core_cm4.h **** 
1358:Generated_Source\PSoC6\pdl\cmsis/include/core_cm4.h **** /* Floating-Point Default Status Control Register Definitions */
1359:Generated_Source\PSoC6\pdl\cmsis/include/core_cm4.h **** #define FPU_FPDSCR_AHP_Pos                 26U                                            /*!< FPDS
1360:Generated_Source\PSoC6\pdl\cmsis/include/core_cm4.h **** #define FPU_FPDSCR_AHP_Msk                 (1UL << FPU_FPDSCR_AHP_Pos)                    /*!< FPDS
1361:Generated_Source\PSoC6\pdl\cmsis/include/core_cm4.h **** 
1362:Generated_Source\PSoC6\pdl\cmsis/include/core_cm4.h **** #define FPU_FPDSCR_DN_Pos                  25U                                            /*!< FPDS
1363:Generated_Source\PSoC6\pdl\cmsis/include/core_cm4.h **** #define FPU_FPDSCR_DN_Msk                  (1UL << FPU_FPDSCR_DN_Pos)                     /*!< FPDS
1364:Generated_Source\PSoC6\pdl\cmsis/include/core_cm4.h **** 
1365:Generated_Source\PSoC6\pdl\cmsis/include/core_cm4.h **** #define FPU_FPDSCR_FZ_Pos                  24U                                            /*!< FPDS
1366:Generated_Source\PSoC6\pdl\cmsis/include/core_cm4.h **** #define FPU_FPDSCR_FZ_Msk                  (1UL << FPU_FPDSCR_FZ_Pos)                     /*!< FPDS
1367:Generated_Source\PSoC6\pdl\cmsis/include/core_cm4.h **** 
1368:Generated_Source\PSoC6\pdl\cmsis/include/core_cm4.h **** #define FPU_FPDSCR_RMode_Pos               22U                                            /*!< FPDS
1369:Generated_Source\PSoC6\pdl\cmsis/include/core_cm4.h **** #define FPU_FPDSCR_RMode_Msk               (3UL << FPU_FPDSCR_RMode_Pos)                  /*!< FPDS
1370:Generated_Source\PSoC6\pdl\cmsis/include/core_cm4.h **** 
1371:Generated_Source\PSoC6\pdl\cmsis/include/core_cm4.h **** /* Media and FP Feature Register 0 Definitions */
1372:Generated_Source\PSoC6\pdl\cmsis/include/core_cm4.h **** #define FPU_MVFR0_FP_rounding_modes_Pos    28U                                            /*!< MVFR
1373:Generated_Source\PSoC6\pdl\cmsis/include/core_cm4.h **** #define FPU_MVFR0_FP_rounding_modes_Msk    (0xFUL << FPU_MVFR0_FP_rounding_modes_Pos)     /*!< MVFR
1374:Generated_Source\PSoC6\pdl\cmsis/include/core_cm4.h **** 
1375:Generated_Source\PSoC6\pdl\cmsis/include/core_cm4.h **** #define FPU_MVFR0_Short_vectors_Pos        24U                                            /*!< MVFR
ARM GAS  C:\Users\Mathieu\AppData\Local\Temp\ccqdbTbw.s 			page 103


1376:Generated_Source\PSoC6\pdl\cmsis/include/core_cm4.h **** #define FPU_MVFR0_Short_vectors_Msk        (0xFUL << FPU_MVFR0_Short_vectors_Pos)         /*!< MVFR
1377:Generated_Source\PSoC6\pdl\cmsis/include/core_cm4.h **** 
1378:Generated_Source\PSoC6\pdl\cmsis/include/core_cm4.h **** #define FPU_MVFR0_Square_root_Pos          20U                                            /*!< MVFR
1379:Generated_Source\PSoC6\pdl\cmsis/include/core_cm4.h **** #define FPU_MVFR0_Square_root_Msk          (0xFUL << FPU_MVFR0_Square_root_Pos)           /*!< MVFR
1380:Generated_Source\PSoC6\pdl\cmsis/include/core_cm4.h **** 
1381:Generated_Source\PSoC6\pdl\cmsis/include/core_cm4.h **** #define FPU_MVFR0_Divide_Pos               16U                                            /*!< MVFR
1382:Generated_Source\PSoC6\pdl\cmsis/include/core_cm4.h **** #define FPU_MVFR0_Divide_Msk               (0xFUL << FPU_MVFR0_Divide_Pos)                /*!< MVFR
1383:Generated_Source\PSoC6\pdl\cmsis/include/core_cm4.h **** 
1384:Generated_Source\PSoC6\pdl\cmsis/include/core_cm4.h **** #define FPU_MVFR0_FP_excep_trapping_Pos    12U                                            /*!< MVFR
1385:Generated_Source\PSoC6\pdl\cmsis/include/core_cm4.h **** #define FPU_MVFR0_FP_excep_trapping_Msk    (0xFUL << FPU_MVFR0_FP_excep_trapping_Pos)     /*!< MVFR
1386:Generated_Source\PSoC6\pdl\cmsis/include/core_cm4.h **** 
1387:Generated_Source\PSoC6\pdl\cmsis/include/core_cm4.h **** #define FPU_MVFR0_Double_precision_Pos      8U                                            /*!< MVFR
1388:Generated_Source\PSoC6\pdl\cmsis/include/core_cm4.h **** #define FPU_MVFR0_Double_precision_Msk     (0xFUL << FPU_MVFR0_Double_precision_Pos)      /*!< MVFR
1389:Generated_Source\PSoC6\pdl\cmsis/include/core_cm4.h **** 
1390:Generated_Source\PSoC6\pdl\cmsis/include/core_cm4.h **** #define FPU_MVFR0_Single_precision_Pos      4U                                            /*!< MVFR
1391:Generated_Source\PSoC6\pdl\cmsis/include/core_cm4.h **** #define FPU_MVFR0_Single_precision_Msk     (0xFUL << FPU_MVFR0_Single_precision_Pos)      /*!< MVFR
1392:Generated_Source\PSoC6\pdl\cmsis/include/core_cm4.h **** 
1393:Generated_Source\PSoC6\pdl\cmsis/include/core_cm4.h **** #define FPU_MVFR0_A_SIMD_registers_Pos      0U                                            /*!< MVFR
1394:Generated_Source\PSoC6\pdl\cmsis/include/core_cm4.h **** #define FPU_MVFR0_A_SIMD_registers_Msk     (0xFUL /*<< FPU_MVFR0_A_SIMD_registers_Pos*/)  /*!< MVFR
1395:Generated_Source\PSoC6\pdl\cmsis/include/core_cm4.h **** 
1396:Generated_Source\PSoC6\pdl\cmsis/include/core_cm4.h **** /* Media and FP Feature Register 1 Definitions */
1397:Generated_Source\PSoC6\pdl\cmsis/include/core_cm4.h **** #define FPU_MVFR1_FP_fused_MAC_Pos         28U                                            /*!< MVFR
1398:Generated_Source\PSoC6\pdl\cmsis/include/core_cm4.h **** #define FPU_MVFR1_FP_fused_MAC_Msk         (0xFUL << FPU_MVFR1_FP_fused_MAC_Pos)          /*!< MVFR
1399:Generated_Source\PSoC6\pdl\cmsis/include/core_cm4.h **** 
1400:Generated_Source\PSoC6\pdl\cmsis/include/core_cm4.h **** #define FPU_MVFR1_FP_HPFP_Pos              24U                                            /*!< MVFR
1401:Generated_Source\PSoC6\pdl\cmsis/include/core_cm4.h **** #define FPU_MVFR1_FP_HPFP_Msk              (0xFUL << FPU_MVFR1_FP_HPFP_Pos)               /*!< MVFR
1402:Generated_Source\PSoC6\pdl\cmsis/include/core_cm4.h **** 
1403:Generated_Source\PSoC6\pdl\cmsis/include/core_cm4.h **** #define FPU_MVFR1_D_NaN_mode_Pos            4U                                            /*!< MVFR
1404:Generated_Source\PSoC6\pdl\cmsis/include/core_cm4.h **** #define FPU_MVFR1_D_NaN_mode_Msk           (0xFUL << FPU_MVFR1_D_NaN_mode_Pos)            /*!< MVFR
1405:Generated_Source\PSoC6\pdl\cmsis/include/core_cm4.h **** 
1406:Generated_Source\PSoC6\pdl\cmsis/include/core_cm4.h **** #define FPU_MVFR1_FtZ_mode_Pos              0U                                            /*!< MVFR
1407:Generated_Source\PSoC6\pdl\cmsis/include/core_cm4.h **** #define FPU_MVFR1_FtZ_mode_Msk             (0xFUL /*<< FPU_MVFR1_FtZ_mode_Pos*/)          /*!< MVFR
1408:Generated_Source\PSoC6\pdl\cmsis/include/core_cm4.h **** 
1409:Generated_Source\PSoC6\pdl\cmsis/include/core_cm4.h **** /*@} end of group CMSIS_FPU */
1410:Generated_Source\PSoC6\pdl\cmsis/include/core_cm4.h **** 
1411:Generated_Source\PSoC6\pdl\cmsis/include/core_cm4.h **** 
1412:Generated_Source\PSoC6\pdl\cmsis/include/core_cm4.h **** /**
1413:Generated_Source\PSoC6\pdl\cmsis/include/core_cm4.h ****   \ingroup  CMSIS_core_register
1414:Generated_Source\PSoC6\pdl\cmsis/include/core_cm4.h ****   \defgroup CMSIS_CoreDebug       Core Debug Registers (CoreDebug)
1415:Generated_Source\PSoC6\pdl\cmsis/include/core_cm4.h ****   \brief    Type definitions for the Core Debug Registers
1416:Generated_Source\PSoC6\pdl\cmsis/include/core_cm4.h ****   @{
1417:Generated_Source\PSoC6\pdl\cmsis/include/core_cm4.h ****  */
1418:Generated_Source\PSoC6\pdl\cmsis/include/core_cm4.h **** 
1419:Generated_Source\PSoC6\pdl\cmsis/include/core_cm4.h **** /**
1420:Generated_Source\PSoC6\pdl\cmsis/include/core_cm4.h ****   \brief  Structure type to access the Core Debug Register (CoreDebug).
1421:Generated_Source\PSoC6\pdl\cmsis/include/core_cm4.h ****  */
1422:Generated_Source\PSoC6\pdl\cmsis/include/core_cm4.h **** typedef struct
1423:Generated_Source\PSoC6\pdl\cmsis/include/core_cm4.h **** {
1424:Generated_Source\PSoC6\pdl\cmsis/include/core_cm4.h ****   __IOM uint32_t DHCSR;                  /*!< Offset: 0x000 (R/W)  Debug Halting Control and Status
1425:Generated_Source\PSoC6\pdl\cmsis/include/core_cm4.h ****   __OM  uint32_t DCRSR;                  /*!< Offset: 0x004 ( /W)  Debug Core Register Selector Reg
1426:Generated_Source\PSoC6\pdl\cmsis/include/core_cm4.h ****   __IOM uint32_t DCRDR;                  /*!< Offset: 0x008 (R/W)  Debug Core Register Data Registe
1427:Generated_Source\PSoC6\pdl\cmsis/include/core_cm4.h ****   __IOM uint32_t DEMCR;                  /*!< Offset: 0x00C (R/W)  Debug Exception and Monitor Cont
1428:Generated_Source\PSoC6\pdl\cmsis/include/core_cm4.h **** } CoreDebug_Type;
1429:Generated_Source\PSoC6\pdl\cmsis/include/core_cm4.h **** 
1430:Generated_Source\PSoC6\pdl\cmsis/include/core_cm4.h **** /* Debug Halting Control and Status Register Definitions */
1431:Generated_Source\PSoC6\pdl\cmsis/include/core_cm4.h **** #define CoreDebug_DHCSR_DBGKEY_Pos         16U                                            /*!< Core
1432:Generated_Source\PSoC6\pdl\cmsis/include/core_cm4.h **** #define CoreDebug_DHCSR_DBGKEY_Msk         (0xFFFFUL << CoreDebug_DHCSR_DBGKEY_Pos)       /*!< Core
ARM GAS  C:\Users\Mathieu\AppData\Local\Temp\ccqdbTbw.s 			page 104


1433:Generated_Source\PSoC6\pdl\cmsis/include/core_cm4.h **** 
1434:Generated_Source\PSoC6\pdl\cmsis/include/core_cm4.h **** #define CoreDebug_DHCSR_S_RESET_ST_Pos     25U                                            /*!< Core
1435:Generated_Source\PSoC6\pdl\cmsis/include/core_cm4.h **** #define CoreDebug_DHCSR_S_RESET_ST_Msk     (1UL << CoreDebug_DHCSR_S_RESET_ST_Pos)        /*!< Core
1436:Generated_Source\PSoC6\pdl\cmsis/include/core_cm4.h **** 
1437:Generated_Source\PSoC6\pdl\cmsis/include/core_cm4.h **** #define CoreDebug_DHCSR_S_RETIRE_ST_Pos    24U                                            /*!< Core
1438:Generated_Source\PSoC6\pdl\cmsis/include/core_cm4.h **** #define CoreDebug_DHCSR_S_RETIRE_ST_Msk    (1UL << CoreDebug_DHCSR_S_RETIRE_ST_Pos)       /*!< Core
1439:Generated_Source\PSoC6\pdl\cmsis/include/core_cm4.h **** 
1440:Generated_Source\PSoC6\pdl\cmsis/include/core_cm4.h **** #define CoreDebug_DHCSR_S_LOCKUP_Pos       19U                                            /*!< Core
1441:Generated_Source\PSoC6\pdl\cmsis/include/core_cm4.h **** #define CoreDebug_DHCSR_S_LOCKUP_Msk       (1UL << CoreDebug_DHCSR_S_LOCKUP_Pos)          /*!< Core
1442:Generated_Source\PSoC6\pdl\cmsis/include/core_cm4.h **** 
1443:Generated_Source\PSoC6\pdl\cmsis/include/core_cm4.h **** #define CoreDebug_DHCSR_S_SLEEP_Pos        18U                                            /*!< Core
1444:Generated_Source\PSoC6\pdl\cmsis/include/core_cm4.h **** #define CoreDebug_DHCSR_S_SLEEP_Msk        (1UL << CoreDebug_DHCSR_S_SLEEP_Pos)           /*!< Core
1445:Generated_Source\PSoC6\pdl\cmsis/include/core_cm4.h **** 
1446:Generated_Source\PSoC6\pdl\cmsis/include/core_cm4.h **** #define CoreDebug_DHCSR_S_HALT_Pos         17U                                            /*!< Core
1447:Generated_Source\PSoC6\pdl\cmsis/include/core_cm4.h **** #define CoreDebug_DHCSR_S_HALT_Msk         (1UL << CoreDebug_DHCSR_S_HALT_Pos)            /*!< Core
1448:Generated_Source\PSoC6\pdl\cmsis/include/core_cm4.h **** 
1449:Generated_Source\PSoC6\pdl\cmsis/include/core_cm4.h **** #define CoreDebug_DHCSR_S_REGRDY_Pos       16U                                            /*!< Core
1450:Generated_Source\PSoC6\pdl\cmsis/include/core_cm4.h **** #define CoreDebug_DHCSR_S_REGRDY_Msk       (1UL << CoreDebug_DHCSR_S_REGRDY_Pos)          /*!< Core
1451:Generated_Source\PSoC6\pdl\cmsis/include/core_cm4.h **** 
1452:Generated_Source\PSoC6\pdl\cmsis/include/core_cm4.h **** #define CoreDebug_DHCSR_C_SNAPSTALL_Pos     5U                                            /*!< Core
1453:Generated_Source\PSoC6\pdl\cmsis/include/core_cm4.h **** #define CoreDebug_DHCSR_C_SNAPSTALL_Msk    (1UL << CoreDebug_DHCSR_C_SNAPSTALL_Pos)       /*!< Core
1454:Generated_Source\PSoC6\pdl\cmsis/include/core_cm4.h **** 
1455:Generated_Source\PSoC6\pdl\cmsis/include/core_cm4.h **** #define CoreDebug_DHCSR_C_MASKINTS_Pos      3U                                            /*!< Core
1456:Generated_Source\PSoC6\pdl\cmsis/include/core_cm4.h **** #define CoreDebug_DHCSR_C_MASKINTS_Msk     (1UL << CoreDebug_DHCSR_C_MASKINTS_Pos)        /*!< Core
1457:Generated_Source\PSoC6\pdl\cmsis/include/core_cm4.h **** 
1458:Generated_Source\PSoC6\pdl\cmsis/include/core_cm4.h **** #define CoreDebug_DHCSR_C_STEP_Pos          2U                                            /*!< Core
1459:Generated_Source\PSoC6\pdl\cmsis/include/core_cm4.h **** #define CoreDebug_DHCSR_C_STEP_Msk         (1UL << CoreDebug_DHCSR_C_STEP_Pos)            /*!< Core
1460:Generated_Source\PSoC6\pdl\cmsis/include/core_cm4.h **** 
1461:Generated_Source\PSoC6\pdl\cmsis/include/core_cm4.h **** #define CoreDebug_DHCSR_C_HALT_Pos          1U                                            /*!< Core
1462:Generated_Source\PSoC6\pdl\cmsis/include/core_cm4.h **** #define CoreDebug_DHCSR_C_HALT_Msk         (1UL << CoreDebug_DHCSR_C_HALT_Pos)            /*!< Core
1463:Generated_Source\PSoC6\pdl\cmsis/include/core_cm4.h **** 
1464:Generated_Source\PSoC6\pdl\cmsis/include/core_cm4.h **** #define CoreDebug_DHCSR_C_DEBUGEN_Pos       0U                                            /*!< Core
1465:Generated_Source\PSoC6\pdl\cmsis/include/core_cm4.h **** #define CoreDebug_DHCSR_C_DEBUGEN_Msk      (1UL /*<< CoreDebug_DHCSR_C_DEBUGEN_Pos*/)     /*!< Core
1466:Generated_Source\PSoC6\pdl\cmsis/include/core_cm4.h **** 
1467:Generated_Source\PSoC6\pdl\cmsis/include/core_cm4.h **** /* Debug Core Register Selector Register Definitions */
1468:Generated_Source\PSoC6\pdl\cmsis/include/core_cm4.h **** #define CoreDebug_DCRSR_REGWnR_Pos         16U                                            /*!< Core
1469:Generated_Source\PSoC6\pdl\cmsis/include/core_cm4.h **** #define CoreDebug_DCRSR_REGWnR_Msk         (1UL << CoreDebug_DCRSR_REGWnR_Pos)            /*!< Core
1470:Generated_Source\PSoC6\pdl\cmsis/include/core_cm4.h **** 
1471:Generated_Source\PSoC6\pdl\cmsis/include/core_cm4.h **** #define CoreDebug_DCRSR_REGSEL_Pos          0U                                            /*!< Core
1472:Generated_Source\PSoC6\pdl\cmsis/include/core_cm4.h **** #define CoreDebug_DCRSR_REGSEL_Msk         (0x1FUL /*<< CoreDebug_DCRSR_REGSEL_Pos*/)     /*!< Core
1473:Generated_Source\PSoC6\pdl\cmsis/include/core_cm4.h **** 
1474:Generated_Source\PSoC6\pdl\cmsis/include/core_cm4.h **** /* Debug Exception and Monitor Control Register Definitions */
1475:Generated_Source\PSoC6\pdl\cmsis/include/core_cm4.h **** #define CoreDebug_DEMCR_TRCENA_Pos         24U                                            /*!< Core
1476:Generated_Source\PSoC6\pdl\cmsis/include/core_cm4.h **** #define CoreDebug_DEMCR_TRCENA_Msk         (1UL << CoreDebug_DEMCR_TRCENA_Pos)            /*!< Core
1477:Generated_Source\PSoC6\pdl\cmsis/include/core_cm4.h **** 
1478:Generated_Source\PSoC6\pdl\cmsis/include/core_cm4.h **** #define CoreDebug_DEMCR_MON_REQ_Pos        19U                                            /*!< Core
1479:Generated_Source\PSoC6\pdl\cmsis/include/core_cm4.h **** #define CoreDebug_DEMCR_MON_REQ_Msk        (1UL << CoreDebug_DEMCR_MON_REQ_Pos)           /*!< Core
1480:Generated_Source\PSoC6\pdl\cmsis/include/core_cm4.h **** 
1481:Generated_Source\PSoC6\pdl\cmsis/include/core_cm4.h **** #define CoreDebug_DEMCR_MON_STEP_Pos       18U                                            /*!< Core
1482:Generated_Source\PSoC6\pdl\cmsis/include/core_cm4.h **** #define CoreDebug_DEMCR_MON_STEP_Msk       (1UL << CoreDebug_DEMCR_MON_STEP_Pos)          /*!< Core
1483:Generated_Source\PSoC6\pdl\cmsis/include/core_cm4.h **** 
1484:Generated_Source\PSoC6\pdl\cmsis/include/core_cm4.h **** #define CoreDebug_DEMCR_MON_PEND_Pos       17U                                            /*!< Core
1485:Generated_Source\PSoC6\pdl\cmsis/include/core_cm4.h **** #define CoreDebug_DEMCR_MON_PEND_Msk       (1UL << CoreDebug_DEMCR_MON_PEND_Pos)          /*!< Core
1486:Generated_Source\PSoC6\pdl\cmsis/include/core_cm4.h **** 
1487:Generated_Source\PSoC6\pdl\cmsis/include/core_cm4.h **** #define CoreDebug_DEMCR_MON_EN_Pos         16U                                            /*!< Core
1488:Generated_Source\PSoC6\pdl\cmsis/include/core_cm4.h **** #define CoreDebug_DEMCR_MON_EN_Msk         (1UL << CoreDebug_DEMCR_MON_EN_Pos)            /*!< Core
1489:Generated_Source\PSoC6\pdl\cmsis/include/core_cm4.h **** 
ARM GAS  C:\Users\Mathieu\AppData\Local\Temp\ccqdbTbw.s 			page 105


1490:Generated_Source\PSoC6\pdl\cmsis/include/core_cm4.h **** #define CoreDebug_DEMCR_VC_HARDERR_Pos     10U                                            /*!< Core
1491:Generated_Source\PSoC6\pdl\cmsis/include/core_cm4.h **** #define CoreDebug_DEMCR_VC_HARDERR_Msk     (1UL << CoreDebug_DEMCR_VC_HARDERR_Pos)        /*!< Core
1492:Generated_Source\PSoC6\pdl\cmsis/include/core_cm4.h **** 
1493:Generated_Source\PSoC6\pdl\cmsis/include/core_cm4.h **** #define CoreDebug_DEMCR_VC_INTERR_Pos       9U                                            /*!< Core
1494:Generated_Source\PSoC6\pdl\cmsis/include/core_cm4.h **** #define CoreDebug_DEMCR_VC_INTERR_Msk      (1UL << CoreDebug_DEMCR_VC_INTERR_Pos)         /*!< Core
1495:Generated_Source\PSoC6\pdl\cmsis/include/core_cm4.h **** 
1496:Generated_Source\PSoC6\pdl\cmsis/include/core_cm4.h **** #define CoreDebug_DEMCR_VC_BUSERR_Pos       8U                                            /*!< Core
1497:Generated_Source\PSoC6\pdl\cmsis/include/core_cm4.h **** #define CoreDebug_DEMCR_VC_BUSERR_Msk      (1UL << CoreDebug_DEMCR_VC_BUSERR_Pos)         /*!< Core
1498:Generated_Source\PSoC6\pdl\cmsis/include/core_cm4.h **** 
1499:Generated_Source\PSoC6\pdl\cmsis/include/core_cm4.h **** #define CoreDebug_DEMCR_VC_STATERR_Pos      7U                                            /*!< Core
1500:Generated_Source\PSoC6\pdl\cmsis/include/core_cm4.h **** #define CoreDebug_DEMCR_VC_STATERR_Msk     (1UL << CoreDebug_DEMCR_VC_STATERR_Pos)        /*!< Core
1501:Generated_Source\PSoC6\pdl\cmsis/include/core_cm4.h **** 
1502:Generated_Source\PSoC6\pdl\cmsis/include/core_cm4.h **** #define CoreDebug_DEMCR_VC_CHKERR_Pos       6U                                            /*!< Core
1503:Generated_Source\PSoC6\pdl\cmsis/include/core_cm4.h **** #define CoreDebug_DEMCR_VC_CHKERR_Msk      (1UL << CoreDebug_DEMCR_VC_CHKERR_Pos)         /*!< Core
1504:Generated_Source\PSoC6\pdl\cmsis/include/core_cm4.h **** 
1505:Generated_Source\PSoC6\pdl\cmsis/include/core_cm4.h **** #define CoreDebug_DEMCR_VC_NOCPERR_Pos      5U                                            /*!< Core
1506:Generated_Source\PSoC6\pdl\cmsis/include/core_cm4.h **** #define CoreDebug_DEMCR_VC_NOCPERR_Msk     (1UL << CoreDebug_DEMCR_VC_NOCPERR_Pos)        /*!< Core
1507:Generated_Source\PSoC6\pdl\cmsis/include/core_cm4.h **** 
1508:Generated_Source\PSoC6\pdl\cmsis/include/core_cm4.h **** #define CoreDebug_DEMCR_VC_MMERR_Pos        4U                                            /*!< Core
1509:Generated_Source\PSoC6\pdl\cmsis/include/core_cm4.h **** #define CoreDebug_DEMCR_VC_MMERR_Msk       (1UL << CoreDebug_DEMCR_VC_MMERR_Pos)          /*!< Core
1510:Generated_Source\PSoC6\pdl\cmsis/include/core_cm4.h **** 
1511:Generated_Source\PSoC6\pdl\cmsis/include/core_cm4.h **** #define CoreDebug_DEMCR_VC_CORERESET_Pos    0U                                            /*!< Core
1512:Generated_Source\PSoC6\pdl\cmsis/include/core_cm4.h **** #define CoreDebug_DEMCR_VC_CORERESET_Msk   (1UL /*<< CoreDebug_DEMCR_VC_CORERESET_Pos*/)  /*!< Core
1513:Generated_Source\PSoC6\pdl\cmsis/include/core_cm4.h **** 
1514:Generated_Source\PSoC6\pdl\cmsis/include/core_cm4.h **** /*@} end of group CMSIS_CoreDebug */
1515:Generated_Source\PSoC6\pdl\cmsis/include/core_cm4.h **** 
1516:Generated_Source\PSoC6\pdl\cmsis/include/core_cm4.h **** 
1517:Generated_Source\PSoC6\pdl\cmsis/include/core_cm4.h **** /**
1518:Generated_Source\PSoC6\pdl\cmsis/include/core_cm4.h ****   \ingroup    CMSIS_core_register
1519:Generated_Source\PSoC6\pdl\cmsis/include/core_cm4.h ****   \defgroup   CMSIS_core_bitfield     Core register bit field macros
1520:Generated_Source\PSoC6\pdl\cmsis/include/core_cm4.h ****   \brief      Macros for use with bit field definitions (xxx_Pos, xxx_Msk).
1521:Generated_Source\PSoC6\pdl\cmsis/include/core_cm4.h ****   @{
1522:Generated_Source\PSoC6\pdl\cmsis/include/core_cm4.h ****  */
1523:Generated_Source\PSoC6\pdl\cmsis/include/core_cm4.h **** 
1524:Generated_Source\PSoC6\pdl\cmsis/include/core_cm4.h **** /**
1525:Generated_Source\PSoC6\pdl\cmsis/include/core_cm4.h ****   \brief   Mask and shift a bit field value for use in a register bit range.
1526:Generated_Source\PSoC6\pdl\cmsis/include/core_cm4.h ****   \param[in] field  Name of the register bit field.
1527:Generated_Source\PSoC6\pdl\cmsis/include/core_cm4.h ****   \param[in] value  Value of the bit field. This parameter is interpreted as an uint32_t type.
1528:Generated_Source\PSoC6\pdl\cmsis/include/core_cm4.h ****   \return           Masked and shifted value.
1529:Generated_Source\PSoC6\pdl\cmsis/include/core_cm4.h **** */
1530:Generated_Source\PSoC6\pdl\cmsis/include/core_cm4.h **** #define _VAL2FLD(field, value)    (((uint32_t)(value) << field ## _Pos) & field ## _Msk)
1531:Generated_Source\PSoC6\pdl\cmsis/include/core_cm4.h **** 
1532:Generated_Source\PSoC6\pdl\cmsis/include/core_cm4.h **** /**
1533:Generated_Source\PSoC6\pdl\cmsis/include/core_cm4.h ****   \brief     Mask and shift a register value to extract a bit filed value.
1534:Generated_Source\PSoC6\pdl\cmsis/include/core_cm4.h ****   \param[in] field  Name of the register bit field.
1535:Generated_Source\PSoC6\pdl\cmsis/include/core_cm4.h ****   \param[in] value  Value of register. This parameter is interpreted as an uint32_t type.
1536:Generated_Source\PSoC6\pdl\cmsis/include/core_cm4.h ****   \return           Masked and shifted bit field value.
1537:Generated_Source\PSoC6\pdl\cmsis/include/core_cm4.h **** */
1538:Generated_Source\PSoC6\pdl\cmsis/include/core_cm4.h **** #define _FLD2VAL(field, value)    (((uint32_t)(value) & field ## _Msk) >> field ## _Pos)
1539:Generated_Source\PSoC6\pdl\cmsis/include/core_cm4.h **** 
1540:Generated_Source\PSoC6\pdl\cmsis/include/core_cm4.h **** /*@} end of group CMSIS_core_bitfield */
1541:Generated_Source\PSoC6\pdl\cmsis/include/core_cm4.h **** 
1542:Generated_Source\PSoC6\pdl\cmsis/include/core_cm4.h **** 
1543:Generated_Source\PSoC6\pdl\cmsis/include/core_cm4.h **** /**
1544:Generated_Source\PSoC6\pdl\cmsis/include/core_cm4.h ****   \ingroup    CMSIS_core_register
1545:Generated_Source\PSoC6\pdl\cmsis/include/core_cm4.h ****   \defgroup   CMSIS_core_base     Core Definitions
1546:Generated_Source\PSoC6\pdl\cmsis/include/core_cm4.h ****   \brief      Definitions for base addresses, unions, and structures.
ARM GAS  C:\Users\Mathieu\AppData\Local\Temp\ccqdbTbw.s 			page 106


1547:Generated_Source\PSoC6\pdl\cmsis/include/core_cm4.h ****   @{
1548:Generated_Source\PSoC6\pdl\cmsis/include/core_cm4.h ****  */
1549:Generated_Source\PSoC6\pdl\cmsis/include/core_cm4.h **** 
1550:Generated_Source\PSoC6\pdl\cmsis/include/core_cm4.h **** /* Memory mapping of Core Hardware */
1551:Generated_Source\PSoC6\pdl\cmsis/include/core_cm4.h **** #define SCS_BASE            (0xE000E000UL)                            /*!< System Control Space Bas
1552:Generated_Source\PSoC6\pdl\cmsis/include/core_cm4.h **** #define ITM_BASE            (0xE0000000UL)                            /*!< ITM Base Address */
1553:Generated_Source\PSoC6\pdl\cmsis/include/core_cm4.h **** #define DWT_BASE            (0xE0001000UL)                            /*!< DWT Base Address */
1554:Generated_Source\PSoC6\pdl\cmsis/include/core_cm4.h **** #define TPI_BASE            (0xE0040000UL)                            /*!< TPI Base Address */
1555:Generated_Source\PSoC6\pdl\cmsis/include/core_cm4.h **** #define CoreDebug_BASE      (0xE000EDF0UL)                            /*!< Core Debug Base Address 
1556:Generated_Source\PSoC6\pdl\cmsis/include/core_cm4.h **** #define SysTick_BASE        (SCS_BASE +  0x0010UL)                    /*!< SysTick Base Address */
1557:Generated_Source\PSoC6\pdl\cmsis/include/core_cm4.h **** #define NVIC_BASE           (SCS_BASE +  0x0100UL)                    /*!< NVIC Base Address */
1558:Generated_Source\PSoC6\pdl\cmsis/include/core_cm4.h **** #define SCB_BASE            (SCS_BASE +  0x0D00UL)                    /*!< System Control Block Bas
1559:Generated_Source\PSoC6\pdl\cmsis/include/core_cm4.h **** 
1560:Generated_Source\PSoC6\pdl\cmsis/include/core_cm4.h **** #define SCnSCB              ((SCnSCB_Type    *)     SCS_BASE      )   /*!< System control Register 
1561:Generated_Source\PSoC6\pdl\cmsis/include/core_cm4.h **** #define SCB                 ((SCB_Type       *)     SCB_BASE      )   /*!< SCB configuration struct
1562:Generated_Source\PSoC6\pdl\cmsis/include/core_cm4.h **** #define SysTick             ((SysTick_Type   *)     SysTick_BASE  )   /*!< SysTick configuration st
1563:Generated_Source\PSoC6\pdl\cmsis/include/core_cm4.h **** #define NVIC                ((NVIC_Type      *)     NVIC_BASE     )   /*!< NVIC configuration struc
1564:Generated_Source\PSoC6\pdl\cmsis/include/core_cm4.h **** #define ITM                 ((ITM_Type       *)     ITM_BASE      )   /*!< ITM configuration struct
1565:Generated_Source\PSoC6\pdl\cmsis/include/core_cm4.h **** #define DWT                 ((DWT_Type       *)     DWT_BASE      )   /*!< DWT configuration struct
1566:Generated_Source\PSoC6\pdl\cmsis/include/core_cm4.h **** #define TPI                 ((TPI_Type       *)     TPI_BASE      )   /*!< TPI configuration struct
1567:Generated_Source\PSoC6\pdl\cmsis/include/core_cm4.h **** #define CoreDebug           ((CoreDebug_Type *)     CoreDebug_BASE)   /*!< Core Debug configuration
1568:Generated_Source\PSoC6\pdl\cmsis/include/core_cm4.h **** 
1569:Generated_Source\PSoC6\pdl\cmsis/include/core_cm4.h **** #if defined (__MPU_PRESENT) && (__MPU_PRESENT == 1U)
1570:Generated_Source\PSoC6\pdl\cmsis/include/core_cm4.h ****   #define MPU_BASE          (SCS_BASE +  0x0D90UL)                    /*!< Memory Protection Unit *
1571:Generated_Source\PSoC6\pdl\cmsis/include/core_cm4.h ****   #define MPU               ((MPU_Type       *)     MPU_BASE      )   /*!< Memory Protection Unit *
1572:Generated_Source\PSoC6\pdl\cmsis/include/core_cm4.h **** #endif
1573:Generated_Source\PSoC6\pdl\cmsis/include/core_cm4.h **** 
1574:Generated_Source\PSoC6\pdl\cmsis/include/core_cm4.h **** #define FPU_BASE            (SCS_BASE +  0x0F30UL)                    /*!< Floating Point Unit */
1575:Generated_Source\PSoC6\pdl\cmsis/include/core_cm4.h **** #define FPU                 ((FPU_Type       *)     FPU_BASE      )   /*!< Floating Point Unit */
1576:Generated_Source\PSoC6\pdl\cmsis/include/core_cm4.h **** 
1577:Generated_Source\PSoC6\pdl\cmsis/include/core_cm4.h **** /*@} */
1578:Generated_Source\PSoC6\pdl\cmsis/include/core_cm4.h **** 
1579:Generated_Source\PSoC6\pdl\cmsis/include/core_cm4.h **** 
1580:Generated_Source\PSoC6\pdl\cmsis/include/core_cm4.h **** 
1581:Generated_Source\PSoC6\pdl\cmsis/include/core_cm4.h **** /*******************************************************************************
1582:Generated_Source\PSoC6\pdl\cmsis/include/core_cm4.h ****  *                Hardware Abstraction Layer
1583:Generated_Source\PSoC6\pdl\cmsis/include/core_cm4.h ****   Core Function Interface contains:
1584:Generated_Source\PSoC6\pdl\cmsis/include/core_cm4.h ****   - Core NVIC Functions
1585:Generated_Source\PSoC6\pdl\cmsis/include/core_cm4.h ****   - Core SysTick Functions
1586:Generated_Source\PSoC6\pdl\cmsis/include/core_cm4.h ****   - Core Debug Functions
1587:Generated_Source\PSoC6\pdl\cmsis/include/core_cm4.h ****   - Core Register Access Functions
1588:Generated_Source\PSoC6\pdl\cmsis/include/core_cm4.h ****  ******************************************************************************/
1589:Generated_Source\PSoC6\pdl\cmsis/include/core_cm4.h **** /**
1590:Generated_Source\PSoC6\pdl\cmsis/include/core_cm4.h ****   \defgroup CMSIS_Core_FunctionInterface Functions and Instructions Reference
1591:Generated_Source\PSoC6\pdl\cmsis/include/core_cm4.h **** */
1592:Generated_Source\PSoC6\pdl\cmsis/include/core_cm4.h **** 
1593:Generated_Source\PSoC6\pdl\cmsis/include/core_cm4.h **** 
1594:Generated_Source\PSoC6\pdl\cmsis/include/core_cm4.h **** 
1595:Generated_Source\PSoC6\pdl\cmsis/include/core_cm4.h **** /* ##########################   NVIC functions  #################################### */
1596:Generated_Source\PSoC6\pdl\cmsis/include/core_cm4.h **** /**
1597:Generated_Source\PSoC6\pdl\cmsis/include/core_cm4.h ****   \ingroup  CMSIS_Core_FunctionInterface
1598:Generated_Source\PSoC6\pdl\cmsis/include/core_cm4.h ****   \defgroup CMSIS_Core_NVICFunctions NVIC Functions
1599:Generated_Source\PSoC6\pdl\cmsis/include/core_cm4.h ****   \brief    Functions that manage interrupts and exceptions via the NVIC.
1600:Generated_Source\PSoC6\pdl\cmsis/include/core_cm4.h ****   @{
1601:Generated_Source\PSoC6\pdl\cmsis/include/core_cm4.h ****  */
1602:Generated_Source\PSoC6\pdl\cmsis/include/core_cm4.h **** 
1603:Generated_Source\PSoC6\pdl\cmsis/include/core_cm4.h **** #ifdef CMSIS_NVIC_VIRTUAL
ARM GAS  C:\Users\Mathieu\AppData\Local\Temp\ccqdbTbw.s 			page 107


1604:Generated_Source\PSoC6\pdl\cmsis/include/core_cm4.h ****   #ifndef CMSIS_NVIC_VIRTUAL_HEADER_FILE
1605:Generated_Source\PSoC6\pdl\cmsis/include/core_cm4.h ****     #define CMSIS_NVIC_VIRTUAL_HEADER_FILE "cmsis_nvic_virtual.h"
1606:Generated_Source\PSoC6\pdl\cmsis/include/core_cm4.h ****   #endif
1607:Generated_Source\PSoC6\pdl\cmsis/include/core_cm4.h ****   #include CMSIS_NVIC_VIRTUAL_HEADER_FILE
1608:Generated_Source\PSoC6\pdl\cmsis/include/core_cm4.h **** #else
1609:Generated_Source\PSoC6\pdl\cmsis/include/core_cm4.h ****   #define NVIC_SetPriorityGrouping    __NVIC_SetPriorityGrouping
1610:Generated_Source\PSoC6\pdl\cmsis/include/core_cm4.h ****   #define NVIC_GetPriorityGrouping    __NVIC_GetPriorityGrouping
1611:Generated_Source\PSoC6\pdl\cmsis/include/core_cm4.h ****   #define NVIC_EnableIRQ              __NVIC_EnableIRQ
1612:Generated_Source\PSoC6\pdl\cmsis/include/core_cm4.h ****   #define NVIC_GetEnableIRQ           __NVIC_GetEnableIRQ
1613:Generated_Source\PSoC6\pdl\cmsis/include/core_cm4.h ****   #define NVIC_DisableIRQ             __NVIC_DisableIRQ
1614:Generated_Source\PSoC6\pdl\cmsis/include/core_cm4.h ****   #define NVIC_GetPendingIRQ          __NVIC_GetPendingIRQ
1615:Generated_Source\PSoC6\pdl\cmsis/include/core_cm4.h ****   #define NVIC_SetPendingIRQ          __NVIC_SetPendingIRQ
1616:Generated_Source\PSoC6\pdl\cmsis/include/core_cm4.h ****   #define NVIC_ClearPendingIRQ        __NVIC_ClearPendingIRQ
1617:Generated_Source\PSoC6\pdl\cmsis/include/core_cm4.h ****   #define NVIC_GetActive              __NVIC_GetActive
1618:Generated_Source\PSoC6\pdl\cmsis/include/core_cm4.h ****   #define NVIC_SetPriority            __NVIC_SetPriority
1619:Generated_Source\PSoC6\pdl\cmsis/include/core_cm4.h ****   #define NVIC_GetPriority            __NVIC_GetPriority
1620:Generated_Source\PSoC6\pdl\cmsis/include/core_cm4.h ****   #define NVIC_SystemReset            __NVIC_SystemReset
1621:Generated_Source\PSoC6\pdl\cmsis/include/core_cm4.h **** #endif /* CMSIS_NVIC_VIRTUAL */
1622:Generated_Source\PSoC6\pdl\cmsis/include/core_cm4.h **** 
1623:Generated_Source\PSoC6\pdl\cmsis/include/core_cm4.h **** #ifdef CMSIS_VECTAB_VIRTUAL
1624:Generated_Source\PSoC6\pdl\cmsis/include/core_cm4.h ****   #ifndef CMSIS_VECTAB_VIRTUAL_HEADER_FILE
1625:Generated_Source\PSoC6\pdl\cmsis/include/core_cm4.h ****    #define CMSIS_VECTAB_VIRTUAL_HEADER_FILE "cmsis_vectab_virtual.h"
1626:Generated_Source\PSoC6\pdl\cmsis/include/core_cm4.h ****   #endif
1627:Generated_Source\PSoC6\pdl\cmsis/include/core_cm4.h ****   #include CMSIS_VECTAB_VIRTUAL_HEADER_FILE
1628:Generated_Source\PSoC6\pdl\cmsis/include/core_cm4.h **** #else
1629:Generated_Source\PSoC6\pdl\cmsis/include/core_cm4.h ****   #define NVIC_SetVector              __NVIC_SetVector
1630:Generated_Source\PSoC6\pdl\cmsis/include/core_cm4.h ****   #define NVIC_GetVector              __NVIC_GetVector
1631:Generated_Source\PSoC6\pdl\cmsis/include/core_cm4.h **** #endif  /* (CMSIS_VECTAB_VIRTUAL) */
1632:Generated_Source\PSoC6\pdl\cmsis/include/core_cm4.h **** 
1633:Generated_Source\PSoC6\pdl\cmsis/include/core_cm4.h **** #define NVIC_USER_IRQ_OFFSET          16
1634:Generated_Source\PSoC6\pdl\cmsis/include/core_cm4.h **** 
1635:Generated_Source\PSoC6\pdl\cmsis/include/core_cm4.h **** 
1636:Generated_Source\PSoC6\pdl\cmsis/include/core_cm4.h **** 
1637:Generated_Source\PSoC6\pdl\cmsis/include/core_cm4.h **** /**
1638:Generated_Source\PSoC6\pdl\cmsis/include/core_cm4.h ****   \brief   Set Priority Grouping
1639:Generated_Source\PSoC6\pdl\cmsis/include/core_cm4.h ****   \details Sets the priority grouping field using the required unlock sequence.
1640:Generated_Source\PSoC6\pdl\cmsis/include/core_cm4.h ****            The parameter PriorityGroup is assigned to the field SCB->AIRCR [10:8] PRIGROUP field.
1641:Generated_Source\PSoC6\pdl\cmsis/include/core_cm4.h ****            Only values from 0..7 are used.
1642:Generated_Source\PSoC6\pdl\cmsis/include/core_cm4.h ****            In case of a conflict between priority grouping and available
1643:Generated_Source\PSoC6\pdl\cmsis/include/core_cm4.h ****            priority bits (__NVIC_PRIO_BITS), the smallest possible priority group is set.
1644:Generated_Source\PSoC6\pdl\cmsis/include/core_cm4.h ****   \param [in]      PriorityGroup  Priority grouping field.
1645:Generated_Source\PSoC6\pdl\cmsis/include/core_cm4.h ****  */
1646:Generated_Source\PSoC6\pdl\cmsis/include/core_cm4.h **** __STATIC_INLINE void __NVIC_SetPriorityGrouping(uint32_t PriorityGroup)
1647:Generated_Source\PSoC6\pdl\cmsis/include/core_cm4.h **** {
1648:Generated_Source\PSoC6\pdl\cmsis/include/core_cm4.h ****   uint32_t reg_value;
1649:Generated_Source\PSoC6\pdl\cmsis/include/core_cm4.h ****   uint32_t PriorityGroupTmp = (PriorityGroup & (uint32_t)0x07UL);             /* only values 0..7 a
1650:Generated_Source\PSoC6\pdl\cmsis/include/core_cm4.h **** 
1651:Generated_Source\PSoC6\pdl\cmsis/include/core_cm4.h ****   reg_value  =  SCB->AIRCR;                                                   /* read old register 
1652:Generated_Source\PSoC6\pdl\cmsis/include/core_cm4.h ****   reg_value &= ~((uint32_t)(SCB_AIRCR_VECTKEY_Msk | SCB_AIRCR_PRIGROUP_Msk)); /* clear bits to chan
1653:Generated_Source\PSoC6\pdl\cmsis/include/core_cm4.h ****   reg_value  =  (reg_value                                   |
1654:Generated_Source\PSoC6\pdl\cmsis/include/core_cm4.h ****                 ((uint32_t)0x5FAUL << SCB_AIRCR_VECTKEY_Pos) |
1655:Generated_Source\PSoC6\pdl\cmsis/include/core_cm4.h ****                 (PriorityGroupTmp << SCB_AIRCR_PRIGROUP_Pos)  );              /* Insert write key a
1656:Generated_Source\PSoC6\pdl\cmsis/include/core_cm4.h ****   SCB->AIRCR =  reg_value;
1657:Generated_Source\PSoC6\pdl\cmsis/include/core_cm4.h **** }
1658:Generated_Source\PSoC6\pdl\cmsis/include/core_cm4.h **** 
1659:Generated_Source\PSoC6\pdl\cmsis/include/core_cm4.h **** 
1660:Generated_Source\PSoC6\pdl\cmsis/include/core_cm4.h **** /**
ARM GAS  C:\Users\Mathieu\AppData\Local\Temp\ccqdbTbw.s 			page 108


1661:Generated_Source\PSoC6\pdl\cmsis/include/core_cm4.h ****   \brief   Get Priority Grouping
1662:Generated_Source\PSoC6\pdl\cmsis/include/core_cm4.h ****   \details Reads the priority grouping field from the NVIC Interrupt Controller.
1663:Generated_Source\PSoC6\pdl\cmsis/include/core_cm4.h ****   \return                Priority grouping field (SCB->AIRCR [10:8] PRIGROUP field).
1664:Generated_Source\PSoC6\pdl\cmsis/include/core_cm4.h ****  */
1665:Generated_Source\PSoC6\pdl\cmsis/include/core_cm4.h **** __STATIC_INLINE uint32_t __NVIC_GetPriorityGrouping(void)
1666:Generated_Source\PSoC6\pdl\cmsis/include/core_cm4.h **** {
1667:Generated_Source\PSoC6\pdl\cmsis/include/core_cm4.h ****   return ((uint32_t)((SCB->AIRCR & SCB_AIRCR_PRIGROUP_Msk) >> SCB_AIRCR_PRIGROUP_Pos));
1668:Generated_Source\PSoC6\pdl\cmsis/include/core_cm4.h **** }
1669:Generated_Source\PSoC6\pdl\cmsis/include/core_cm4.h **** 
1670:Generated_Source\PSoC6\pdl\cmsis/include/core_cm4.h **** 
1671:Generated_Source\PSoC6\pdl\cmsis/include/core_cm4.h **** /**
1672:Generated_Source\PSoC6\pdl\cmsis/include/core_cm4.h ****   \brief   Enable Interrupt
1673:Generated_Source\PSoC6\pdl\cmsis/include/core_cm4.h ****   \details Enables a device specific interrupt in the NVIC interrupt controller.
1674:Generated_Source\PSoC6\pdl\cmsis/include/core_cm4.h ****   \param [in]      IRQn  Device specific interrupt number.
1675:Generated_Source\PSoC6\pdl\cmsis/include/core_cm4.h ****   \note    IRQn must not be negative.
1676:Generated_Source\PSoC6\pdl\cmsis/include/core_cm4.h ****  */
1677:Generated_Source\PSoC6\pdl\cmsis/include/core_cm4.h **** __STATIC_INLINE void __NVIC_EnableIRQ(IRQn_Type IRQn)
1678:Generated_Source\PSoC6\pdl\cmsis/include/core_cm4.h **** {
1679:Generated_Source\PSoC6\pdl\cmsis/include/core_cm4.h ****   if ((int32_t)(IRQn) >= 0)
1680:Generated_Source\PSoC6\pdl\cmsis/include/core_cm4.h ****   {
1681:Generated_Source\PSoC6\pdl\cmsis/include/core_cm4.h ****     NVIC->ISER[(((uint32_t)IRQn) >> 5UL)] = (uint32_t)(1UL << (((uint32_t)IRQn) & 0x1FUL));
1682:Generated_Source\PSoC6\pdl\cmsis/include/core_cm4.h ****   }
1683:Generated_Source\PSoC6\pdl\cmsis/include/core_cm4.h **** }
1684:Generated_Source\PSoC6\pdl\cmsis/include/core_cm4.h **** 
1685:Generated_Source\PSoC6\pdl\cmsis/include/core_cm4.h **** 
1686:Generated_Source\PSoC6\pdl\cmsis/include/core_cm4.h **** /**
1687:Generated_Source\PSoC6\pdl\cmsis/include/core_cm4.h ****   \brief   Get Interrupt Enable status
1688:Generated_Source\PSoC6\pdl\cmsis/include/core_cm4.h ****   \details Returns a device specific interrupt enable status from the NVIC interrupt controller.
1689:Generated_Source\PSoC6\pdl\cmsis/include/core_cm4.h ****   \param [in]      IRQn  Device specific interrupt number.
1690:Generated_Source\PSoC6\pdl\cmsis/include/core_cm4.h ****   \return             0  Interrupt is not enabled.
1691:Generated_Source\PSoC6\pdl\cmsis/include/core_cm4.h ****   \return             1  Interrupt is enabled.
1692:Generated_Source\PSoC6\pdl\cmsis/include/core_cm4.h ****   \note    IRQn must not be negative.
1693:Generated_Source\PSoC6\pdl\cmsis/include/core_cm4.h ****  */
1694:Generated_Source\PSoC6\pdl\cmsis/include/core_cm4.h **** __STATIC_INLINE uint32_t __NVIC_GetEnableIRQ(IRQn_Type IRQn)
1695:Generated_Source\PSoC6\pdl\cmsis/include/core_cm4.h **** {
1696:Generated_Source\PSoC6\pdl\cmsis/include/core_cm4.h ****   if ((int32_t)(IRQn) >= 0)
1697:Generated_Source\PSoC6\pdl\cmsis/include/core_cm4.h ****   {
1698:Generated_Source\PSoC6\pdl\cmsis/include/core_cm4.h ****     return((uint32_t)(((NVIC->ISER[(((uint32_t)IRQn) >> 5UL)] & (1UL << (((uint32_t)IRQn) & 0x1FUL)
1699:Generated_Source\PSoC6\pdl\cmsis/include/core_cm4.h ****   }
1700:Generated_Source\PSoC6\pdl\cmsis/include/core_cm4.h ****   else
1701:Generated_Source\PSoC6\pdl\cmsis/include/core_cm4.h ****   {
1702:Generated_Source\PSoC6\pdl\cmsis/include/core_cm4.h ****     return(0U);
1703:Generated_Source\PSoC6\pdl\cmsis/include/core_cm4.h ****   }
1704:Generated_Source\PSoC6\pdl\cmsis/include/core_cm4.h **** }
1705:Generated_Source\PSoC6\pdl\cmsis/include/core_cm4.h **** 
1706:Generated_Source\PSoC6\pdl\cmsis/include/core_cm4.h **** 
1707:Generated_Source\PSoC6\pdl\cmsis/include/core_cm4.h **** /**
1708:Generated_Source\PSoC6\pdl\cmsis/include/core_cm4.h ****   \brief   Disable Interrupt
1709:Generated_Source\PSoC6\pdl\cmsis/include/core_cm4.h ****   \details Disables a device specific interrupt in the NVIC interrupt controller.
1710:Generated_Source\PSoC6\pdl\cmsis/include/core_cm4.h ****   \param [in]      IRQn  Device specific interrupt number.
1711:Generated_Source\PSoC6\pdl\cmsis/include/core_cm4.h ****   \note    IRQn must not be negative.
1712:Generated_Source\PSoC6\pdl\cmsis/include/core_cm4.h ****  */
1713:Generated_Source\PSoC6\pdl\cmsis/include/core_cm4.h **** __STATIC_INLINE void __NVIC_DisableIRQ(IRQn_Type IRQn)
1714:Generated_Source\PSoC6\pdl\cmsis/include/core_cm4.h **** {
1715:Generated_Source\PSoC6\pdl\cmsis/include/core_cm4.h ****   if ((int32_t)(IRQn) >= 0)
1716:Generated_Source\PSoC6\pdl\cmsis/include/core_cm4.h ****   {
1717:Generated_Source\PSoC6\pdl\cmsis/include/core_cm4.h ****     NVIC->ICER[(((uint32_t)IRQn) >> 5UL)] = (uint32_t)(1UL << (((uint32_t)IRQn) & 0x1FUL));
ARM GAS  C:\Users\Mathieu\AppData\Local\Temp\ccqdbTbw.s 			page 109


1718:Generated_Source\PSoC6\pdl\cmsis/include/core_cm4.h ****     __DSB();
1719:Generated_Source\PSoC6\pdl\cmsis/include/core_cm4.h ****     __ISB();
1720:Generated_Source\PSoC6\pdl\cmsis/include/core_cm4.h ****   }
1721:Generated_Source\PSoC6\pdl\cmsis/include/core_cm4.h **** }
1722:Generated_Source\PSoC6\pdl\cmsis/include/core_cm4.h **** 
1723:Generated_Source\PSoC6\pdl\cmsis/include/core_cm4.h **** 
1724:Generated_Source\PSoC6\pdl\cmsis/include/core_cm4.h **** /**
1725:Generated_Source\PSoC6\pdl\cmsis/include/core_cm4.h ****   \brief   Get Pending Interrupt
1726:Generated_Source\PSoC6\pdl\cmsis/include/core_cm4.h ****   \details Reads the NVIC pending register and returns the pending bit for the specified device spe
1727:Generated_Source\PSoC6\pdl\cmsis/include/core_cm4.h ****   \param [in]      IRQn  Device specific interrupt number.
1728:Generated_Source\PSoC6\pdl\cmsis/include/core_cm4.h ****   \return             0  Interrupt status is not pending.
1729:Generated_Source\PSoC6\pdl\cmsis/include/core_cm4.h ****   \return             1  Interrupt status is pending.
1730:Generated_Source\PSoC6\pdl\cmsis/include/core_cm4.h ****   \note    IRQn must not be negative.
1731:Generated_Source\PSoC6\pdl\cmsis/include/core_cm4.h ****  */
1732:Generated_Source\PSoC6\pdl\cmsis/include/core_cm4.h **** __STATIC_INLINE uint32_t __NVIC_GetPendingIRQ(IRQn_Type IRQn)
1733:Generated_Source\PSoC6\pdl\cmsis/include/core_cm4.h **** {
1734:Generated_Source\PSoC6\pdl\cmsis/include/core_cm4.h ****   if ((int32_t)(IRQn) >= 0)
1735:Generated_Source\PSoC6\pdl\cmsis/include/core_cm4.h ****   {
1736:Generated_Source\PSoC6\pdl\cmsis/include/core_cm4.h ****     return((uint32_t)(((NVIC->ISPR[(((uint32_t)IRQn) >> 5UL)] & (1UL << (((uint32_t)IRQn) & 0x1FUL)
1737:Generated_Source\PSoC6\pdl\cmsis/include/core_cm4.h ****   }
1738:Generated_Source\PSoC6\pdl\cmsis/include/core_cm4.h ****   else
1739:Generated_Source\PSoC6\pdl\cmsis/include/core_cm4.h ****   {
1740:Generated_Source\PSoC6\pdl\cmsis/include/core_cm4.h ****     return(0U);
1741:Generated_Source\PSoC6\pdl\cmsis/include/core_cm4.h ****   }
1742:Generated_Source\PSoC6\pdl\cmsis/include/core_cm4.h **** }
1743:Generated_Source\PSoC6\pdl\cmsis/include/core_cm4.h **** 
1744:Generated_Source\PSoC6\pdl\cmsis/include/core_cm4.h **** 
1745:Generated_Source\PSoC6\pdl\cmsis/include/core_cm4.h **** /**
1746:Generated_Source\PSoC6\pdl\cmsis/include/core_cm4.h ****   \brief   Set Pending Interrupt
1747:Generated_Source\PSoC6\pdl\cmsis/include/core_cm4.h ****   \details Sets the pending bit of a device specific interrupt in the NVIC pending register.
1748:Generated_Source\PSoC6\pdl\cmsis/include/core_cm4.h ****   \param [in]      IRQn  Device specific interrupt number.
1749:Generated_Source\PSoC6\pdl\cmsis/include/core_cm4.h ****   \note    IRQn must not be negative.
1750:Generated_Source\PSoC6\pdl\cmsis/include/core_cm4.h ****  */
1751:Generated_Source\PSoC6\pdl\cmsis/include/core_cm4.h **** __STATIC_INLINE void __NVIC_SetPendingIRQ(IRQn_Type IRQn)
1752:Generated_Source\PSoC6\pdl\cmsis/include/core_cm4.h **** {
1753:Generated_Source\PSoC6\pdl\cmsis/include/core_cm4.h ****   if ((int32_t)(IRQn) >= 0)
1754:Generated_Source\PSoC6\pdl\cmsis/include/core_cm4.h ****   {
1755:Generated_Source\PSoC6\pdl\cmsis/include/core_cm4.h ****     NVIC->ISPR[(((uint32_t)IRQn) >> 5UL)] = (uint32_t)(1UL << (((uint32_t)IRQn) & 0x1FUL));
1756:Generated_Source\PSoC6\pdl\cmsis/include/core_cm4.h ****   }
1757:Generated_Source\PSoC6\pdl\cmsis/include/core_cm4.h **** }
1758:Generated_Source\PSoC6\pdl\cmsis/include/core_cm4.h **** 
1759:Generated_Source\PSoC6\pdl\cmsis/include/core_cm4.h **** 
1760:Generated_Source\PSoC6\pdl\cmsis/include/core_cm4.h **** /**
1761:Generated_Source\PSoC6\pdl\cmsis/include/core_cm4.h ****   \brief   Clear Pending Interrupt
1762:Generated_Source\PSoC6\pdl\cmsis/include/core_cm4.h ****   \details Clears the pending bit of a device specific interrupt in the NVIC pending register.
1763:Generated_Source\PSoC6\pdl\cmsis/include/core_cm4.h ****   \param [in]      IRQn  Device specific interrupt number.
1764:Generated_Source\PSoC6\pdl\cmsis/include/core_cm4.h ****   \note    IRQn must not be negative.
1765:Generated_Source\PSoC6\pdl\cmsis/include/core_cm4.h ****  */
1766:Generated_Source\PSoC6\pdl\cmsis/include/core_cm4.h **** __STATIC_INLINE void __NVIC_ClearPendingIRQ(IRQn_Type IRQn)
1767:Generated_Source\PSoC6\pdl\cmsis/include/core_cm4.h **** {
1768:Generated_Source\PSoC6\pdl\cmsis/include/core_cm4.h ****   if ((int32_t)(IRQn) >= 0)
 2093              		.loc 3 1768 0
 2094 0012 002C     		cmp	r4, #0
 2095 0014 08DB     		blt	.L105
1769:Generated_Source\PSoC6\pdl\cmsis/include/core_cm4.h ****   {
1770:Generated_Source\PSoC6\pdl\cmsis/include/core_cm4.h ****     NVIC->ICPR[(((uint32_t)IRQn) >> 5UL)] = (uint32_t)(1UL << (((uint32_t)IRQn) & 0x1FUL));
 2096              		.loc 3 1770 0
ARM GAS  C:\Users\Mathieu\AppData\Local\Temp\ccqdbTbw.s 			page 110


 2097 0016 6309     		lsrs	r3, r4, #5
 2098 0018 04F01F01 		and	r1, r4, #31
 2099 001c 0122     		movs	r2, #1
 2100 001e 8A40     		lsls	r2, r2, r1
 2101 0020 6033     		adds	r3, r3, #96
 2102 0022 1249     		ldr	r1, .L108+8
 2103 0024 41F82320 		str	r2, [r1, r3, lsl #2]
 2104              	.L105:
 2105              	.LVL263:
 2106              	.LBE23:
 2107              	.LBE22:
 696:interface.c   ****     
 697:interface.c   ****     Cy_SysLib_Delay(100); //Délai pour debouncing
 2108              		.loc 1 697 0
 2109 0028 6420     		movs	r0, #100
 2110 002a FFF7FEFF 		bl	Cy_SysLib_Delay
 2111              	.LVL264:
 698:interface.c   ****     
 699:interface.c   ****     FLAG_modif = FLAG_menu; // On garde en mémoire le FLAG_menu
 2112              		.loc 1 699 0
 2113 002e 104A     		ldr	r2, .L108+12
 2114 0030 1168     		ldr	r1, [r2]
 2115 0032 104B     		ldr	r3, .L108+16
 2116 0034 1960     		str	r1, [r3]
 700:interface.c   ****     
 701:interface.c   ****     FLAG_menu = !FLAG_menu; //On inverse le FLAG menu
 2117              		.loc 1 701 0
 2118 0036 1368     		ldr	r3, [r2]
 2119 0038 B3FA83F3 		clz	r3, r3
 2120 003c 5B09     		lsrs	r3, r3, #5
 2121 003e 1360     		str	r3, [r2]
 2122              	.LVL265:
 2123              	.LBB24:
 2124              	.LBB25:
1603:Generated_Source\PSoC6\pdl\drivers/peripheral/gpio/cy_gpio.h **** 
 2125              		.loc 2 1603 0
 2126 0040 084B     		ldr	r3, .L108
 2127 0042 5A69     		ldr	r2, [r3, #20]
1605:Generated_Source\PSoC6\pdl\drivers/peripheral/gpio/cy_gpio.h **** 
 2128              		.loc 2 1605 0
 2129 0044 1022     		movs	r2, #16
 2130 0046 5A61     		str	r2, [r3, #20]
 2131              		.loc 2 1608 0
 2132 0048 5B69     		ldr	r3, [r3, #20]
 2133              	.LVL266:
 2134              	.LBE25:
 2135              	.LBE24:
 2136              	.LBB26:
 2137              	.LBB27:
1768:Generated_Source\PSoC6\pdl\cmsis/include/core_cm4.h ****   {
 2138              		.loc 3 1768 0
 2139 004a 002C     		cmp	r4, #0
 2140 004c 09DB     		blt	.L104
 2141              		.loc 3 1770 0
 2142 004e 6309     		lsrs	r3, r4, #5
 2143 0050 04F01F04 		and	r4, r4, #31
 2144              	.LVL267:
ARM GAS  C:\Users\Mathieu\AppData\Local\Temp\ccqdbTbw.s 			page 111


 2145 0054 0122     		movs	r2, #1
 2146 0056 02FA04F4 		lsl	r4, r2, r4
 2147 005a 6033     		adds	r3, r3, #96
 2148 005c 034A     		ldr	r2, .L108+8
 2149 005e 42F82340 		str	r4, [r2, r3, lsl #2]
 2150              	.LVL268:
 2151              	.L104:
 2152 0062 10BD     		pop	{r4, pc}
 2153              	.L109:
 2154              		.align	2
 2155              	.L108:
 2156 0064 00003240 		.word	1077018624
 2157 0068 00000000 		.word	SW2_isr_cfg
 2158 006c 00E100E0 		.word	-536813312
 2159 0070 00000000 		.word	FLAG_menu
 2160 0074 00000000 		.word	FLAG_modif
 2161              	.LBE27:
 2162              	.LBE26:
 2163              		.cfi_endproc
 2164              	.LFE667:
 2165              		.size	isr_SW2, .-isr_SW2
 2166              		.global	imageBufferCache
 2167              		.global	SPO2_min_alarm
 2168              		.global	HR_max_alarm
 2169              		.global	HR_min_alarm
 2170              		.global	Current_LED2
 2171              		.global	Current_LED1
 2172              		.global	HR
 2173              		.global	SPO2
 2174              		.comm	RED_data,8000,4
 2175              		.comm	IR_data,8000,4
 2176              		.comm	xSemaphoreI2C_BMI,4,4
 2177              		.comm	xSemaphoreI2C_MAX,4,4
 2178              		.data
 2179              		.align	2
 2180              		.set	.LANCHOR2,. + 0
 2181              		.type	HR_max_alarm, %object
 2182              		.size	HR_max_alarm, 4
 2183              	HR_max_alarm:
 2184 0000 64000000 		.word	100
 2185              		.type	HR_min_alarm, %object
 2186              		.size	HR_min_alarm, 4
 2187              	HR_min_alarm:
 2188 0004 28000000 		.word	40
 2189              		.type	SPO2_min_alarm, %object
 2190              		.size	SPO2_min_alarm, 4
 2191              	SPO2_min_alarm:
 2192 0008 5A000000 		.word	90
 2193              		.type	Current_LED1, %object
 2194              		.size	Current_LED1, 4
 2195              	Current_LED1:
 2196 000c 20000000 		.word	32
 2197              		.type	Current_LED2, %object
 2198              		.size	Current_LED2, 4
 2199              	Current_LED2:
 2200 0010 20000000 		.word	32
 2201              		.section	.rodata.str1.4,"aMS",%progbits,1
ARM GAS  C:\Users\Mathieu\AppData\Local\Temp\ccqdbTbw.s 			page 112


 2202              		.align	2
 2203              	.LC0:
 2204 0000 436F7572 		.ascii	"Courbe :\000"
 2204      6265203A 
 2204      00
 2205 0009 000000   		.space	3
 2206              	.LC1:
 2207 000c 5200     		.ascii	"R\000"
 2208 000e 0000     		.space	2
 2209              	.LC2:
 2210 0010 495200   		.ascii	"IR\000"
 2211 0013 00       		.space	1
 2212              	.LC3:
 2213 0014 4D657474 		.ascii	"Mettez votre doigt sur le capteur \000"
 2213      657A2076 
 2213      6F747265 
 2213      20646F69 
 2213      67742073 
 2214 0037 00       		.space	1
 2215              	.LC4:
 2216 0038 56657569 		.ascii	"Veuillez patienter....\000"
 2216      6C6C657A 
 2216      20706174 
 2216      69656E74 
 2216      65722E2E 
 2217 004f 00       		.space	1
 2218              	.LC5:
 2219 0050 48522028 		.ascii	"HR (BPM) : \000"
 2219      42504D29 
 2219      203A2000 
 2220              	.LC6:
 2221 005c 53704F32 		.ascii	"SpO2 (%) : \000"
 2221      20282529 
 2221      203A2000 
 2222              	.LC7:
 2223 0068 256400   		.ascii	"%d\000"
 2224 006b 00       		.space	1
 2225              	.LC8:
 2226 006c 4D454E55 		.ascii	"MENU\000"
 2226      00
 2227 0071 000000   		.space	3
 2228              	.LC9:
 2229 0074 43686F69 		.ascii	"Choix de la courbe (R/IR)\000"
 2229      78206465 
 2229      206C6120 
 2229      636F7572 
 2229      62652028 
 2230 008e 0000     		.space	2
 2231              	.LC10:
 2232 0090 426F726E 		.ascii	"Borne superieure HR\000"
 2232      65207375 
 2232      70657269 
 2232      65757265 
 2232      20485200 
 2233              	.LC11:
 2234 00a4 426F726E 		.ascii	"Borne inferieure HR\000"
 2234      6520696E 
ARM GAS  C:\Users\Mathieu\AppData\Local\Temp\ccqdbTbw.s 			page 113


 2234      66657269 
 2234      65757265 
 2234      20485200 
 2235              	.LC12:
 2236 00b8 426F726E 		.ascii	"Borne inferieure SPO2\000"
 2236      6520696E 
 2236      66657269 
 2236      65757265 
 2236      2053504F 
 2237 00ce 0000     		.space	2
 2238              	.LC13:
 2239 00d0 436F7572 		.ascii	"Courant de la DEL 1 (Rouge)\000"
 2239      616E7420 
 2239      6465206C 
 2239      61204445 
 2239      4C203120 
 2240              	.LC14:
 2241 00ec 436F7572 		.ascii	"Courant de la DEL 2 (infrarouge)\000"
 2241      616E7420 
 2241      6465206C 
 2241      61204445 
 2241      4C203220 
 2242 010d 000000   		.space	3
 2243              	.LC15:
 2244 0110 426F7574 		.ascii	"Bouton 0 : Changer | SW2 : Appliquer\000"
 2244      6F6E2030 
 2244      203A2043 
 2244      68616E67 
 2244      6572207C 
 2245 0135 000000   		.space	3
 2246              	.LC16:
 2247 0138 426F7574 		.ascii	"Bouton 0 : Diminuer | Bouton 1 : Augmenter\000"
 2247      6F6E2030 
 2247      203A2044 
 2247      696D696E 
 2247      75657220 
 2248 0163 00       		.space	1
 2249              	.LC17:
 2250 0164 536C6964 		.ascii	"Slider : Diminuer/Augmenter | SW2: Appliquer\000"
 2250      6572203A 
 2250      2044696D 
 2250      696E7565 
 2250      722F4175 
 2251 0191 000000   		.space	3
 2252              	.LC18:
 2253 0194 36302042 		.ascii	"60 BPM\000"
 2253      504D00
 2254 019b 00       		.space	1
 2255              	.LC19:
 2256 019c 31323020 		.ascii	"120 BPM\000"
 2256      42504D00 
 2257              	.LC20:
 2258 01a4 33302042 		.ascii	"30 BPM\000"
 2258      504D00
 2259 01ab 00       		.space	1
 2260              	.LC21:
 2261 01ac 30202500 		.ascii	"0 %\000"
ARM GAS  C:\Users\Mathieu\AppData\Local\Temp\ccqdbTbw.s 			page 114


 2262              	.LC22:
 2263 01b0 31303020 		.ascii	"100 %\000"
 2263      2500
 2264 01b6 0000     		.space	2
 2265              	.LC23:
 2266 01b8 3000     		.ascii	"0\000"
 2267 01ba 0000     		.space	2
 2268              	.LC24:
 2269 01bc 32353500 		.ascii	"255\000"
 2270              	.LC25:
 2271 01c0 2564202F 		.ascii	"%d / 255\000"
 2271      20323535 
 2271      00
 2272              		.bss
 2273              		.align	2
 2274              		.set	.LANCHOR0,. + 0
 2275              		.set	.LANCHOR1,. + 4344
 2276              		.type	imageBufferCache, %object
 2277              		.size	imageBufferCache, 5808
 2278              	imageBufferCache:
 2279 0000 00000000 		.space	5808
 2279      00000000 
 2279      00000000 
 2279      00000000 
 2279      00000000 
 2280              		.type	HR, %object
 2281              		.size	HR, 4
 2282              	HR:
 2283 16b0 00000000 		.space	4
 2284              		.type	SPO2, %object
 2285              		.size	SPO2, 4
 2286              	SPO2:
 2287 16b4 00000000 		.space	4
 2288              		.text
 2289              	.Letext0:
 2290              		.file 4 "Generated_Source\\PSoC6\\pdl\\devices/psoc6/include/cy8c6347bzi_bld53.h"
 2291              		.file 5 "c:\\program files (x86)\\cypress\\psoc creator\\4.4\\psoc creator\\import\\gnu\\arm\\5.4.
 2292              		.file 6 "c:\\program files (x86)\\cypress\\psoc creator\\4.4\\psoc creator\\import\\gnu\\arm\\5.4.
 2293              		.file 7 "Generated_Source\\PSoC6\\pdl\\devices/psoc6/include/ip/cyip_gpio.h"
 2294              		.file 8 "Generated_Source\\PSoC6\\pdl\\devices/psoc6/include/psoc6_01_config.h"
 2295              		.file 9 "Generated_Source\\PSoC6\\pdl\\drivers/peripheral/device/cy_device.h"
 2296              		.file 10 "Generated_Source\\PSoC6\\pdl\\drivers/peripheral/syslib/cy_syslib.h"
 2297              		.file 11 "Generated_Source\\PSoC6\\pdl\\drivers/peripheral/sysint/cy_sysint.h"
 2298              		.file 12 "Generated_Source\\PSoC6\\pdl\\drivers/peripheral/scb/cy_scb_i2c.h"
 2299              		.file 13 "Generated_Source\\PSoC6\\pdl\\drivers/peripheral/scb/cy_scb_spi.h"
 2300              		.file 14 "Generated_Source\\PSoC6\\pdl\\drivers/peripheral/scb/cy_scb_uart.h"
 2301              		.file 15 "Generated_Source\\PSoC6\\pdl\\drivers/peripheral/tcpwm/cy_tcpwm_counter.h"
 2302              		.file 16 "Generated_Source\\PSoC6\\pdl\\middleware/emWin/code/include/GUI_Type.h"
 2303              		.file 17 ".\\eInk Library/pervasive_eink_hardware_driver.h"
 2304              		.file 18 ".\\eInk Library/cy_eink_library.h"
 2305              		.file 19 "Generated_Source\\PSoC6\\pdl\\rtos/FreeRTOS/10.0.1/Source/include/queue.h"
 2306              		.file 20 "Generated_Source\\PSoC6\\pdl\\rtos/FreeRTOS/10.0.1/Source/include/semphr.h"
 2307              		.file 21 "Generated_Source\\PSoC6/cyfitter_sysint_cfg.h"
 2308              		.file 22 "Generated_Source\\PSoC6/CY_EINK_SPIM.h"
 2309              		.file 23 "Generated_Source\\PSoC6/CY_EINK_Timer.h"
 2310              		.file 24 "Generated_Source\\PSoC6/UART.h"
 2311              		.file 25 "Generated_Source\\PSoC6/MAX_I2C.h"
ARM GAS  C:\Users\Mathieu\AppData\Local\Temp\ccqdbTbw.s 			page 115


 2312              		.file 26 "Generated_Source\\PSoC6/BMI_I2C.h"
 2313              		.file 27 "Generated_Source\\PSoC6\\pdl\\middleware/emWin/code/include/GUI.h"
 2314              		.file 28 "interface.h"
 2315              		.file 29 "communication.h"
 2316              		.file 30 "LCDConf.h"
 2317              		.file 31 "c:\\program files (x86)\\cypress\\psoc creator\\4.4\\psoc creator\\import\\gnu\\arm\\5.4
 2318              		.file 32 "Generated_Source\\PSoC6/CapSense_Sensing.h"
 2319              		.file 33 "Generated_Source\\PSoC6/CapSense_Control.h"
 2320              		.file 34 "Generated_Source\\PSoC6/CapSense_Structure.h"
 2321              		.section	.debug_info,"",%progbits
 2322              	.Ldebug_info0:
 2323 0000 41300000 		.4byte	0x3041
 2324 0004 0400     		.2byte	0x4
 2325 0006 00000000 		.4byte	.Ldebug_abbrev0
 2326 000a 04       		.byte	0x4
 2327 000b 01       		.uleb128 0x1
 2328 000c 06140000 		.4byte	.LASF519
 2329 0010 0C       		.byte	0xc
 2330 0011 F8060000 		.4byte	.LASF520
 2331 0015 96160000 		.4byte	.LASF521
 2332 0019 58000000 		.4byte	.Ldebug_ranges0+0x58
 2333 001d 00000000 		.4byte	0
 2334 0021 00000000 		.4byte	.Ldebug_line0
 2335 0025 02       		.uleb128 0x2
 2336 0026 02       		.byte	0x2
 2337 0027 E6030000 		.4byte	0x3e6
 2338 002b 04       		.byte	0x4
 2339 002c 24       		.byte	0x24
 2340 002d E6030000 		.4byte	0x3e6
 2341 0031 03       		.uleb128 0x3
 2342 0032 BA190000 		.4byte	.LASF0
 2343 0036 71       		.sleb128 -15
 2344 0037 03       		.uleb128 0x3
 2345 0038 FB0D0000 		.4byte	.LASF1
 2346 003c 72       		.sleb128 -14
 2347 003d 03       		.uleb128 0x3
 2348 003e 60230000 		.4byte	.LASF2
 2349 0042 73       		.sleb128 -13
 2350 0043 03       		.uleb128 0x3
 2351 0044 7D0E0000 		.4byte	.LASF3
 2352 0048 74       		.sleb128 -12
 2353 0049 03       		.uleb128 0x3
 2354 004a D0100000 		.4byte	.LASF4
 2355 004e 75       		.sleb128 -11
 2356 004f 03       		.uleb128 0x3
 2357 0050 EA080000 		.4byte	.LASF5
 2358 0054 76       		.sleb128 -10
 2359 0055 03       		.uleb128 0x3
 2360 0056 76120000 		.4byte	.LASF6
 2361 005a 7B       		.sleb128 -5
 2362 005b 03       		.uleb128 0x3
 2363 005c AF1C0000 		.4byte	.LASF7
 2364 0060 7C       		.sleb128 -4
 2365 0061 03       		.uleb128 0x3
 2366 0062 06120000 		.4byte	.LASF8
 2367 0066 7E       		.sleb128 -2
 2368 0067 03       		.uleb128 0x3
ARM GAS  C:\Users\Mathieu\AppData\Local\Temp\ccqdbTbw.s 			page 116


 2369 0068 BE060000 		.4byte	.LASF9
 2370 006c 7F       		.sleb128 -1
 2371 006d 04       		.uleb128 0x4
 2372 006e 37090000 		.4byte	.LASF10
 2373 0072 00       		.byte	0
 2374 0073 04       		.uleb128 0x4
 2375 0074 75220000 		.4byte	.LASF11
 2376 0078 01       		.byte	0x1
 2377 0079 04       		.uleb128 0x4
 2378 007a 04200000 		.4byte	.LASF12
 2379 007e 02       		.byte	0x2
 2380 007f 04       		.uleb128 0x4
 2381 0080 A8110000 		.4byte	.LASF13
 2382 0084 03       		.byte	0x3
 2383 0085 04       		.uleb128 0x4
 2384 0086 81040000 		.4byte	.LASF14
 2385 008a 04       		.byte	0x4
 2386 008b 04       		.uleb128 0x4
 2387 008c 79010000 		.4byte	.LASF15
 2388 0090 05       		.byte	0x5
 2389 0091 04       		.uleb128 0x4
 2390 0092 03180000 		.4byte	.LASF16
 2391 0096 06       		.byte	0x6
 2392 0097 04       		.uleb128 0x4
 2393 0098 000A0000 		.4byte	.LASF17
 2394 009c 07       		.byte	0x7
 2395 009d 04       		.uleb128 0x4
 2396 009e 7E150000 		.4byte	.LASF18
 2397 00a2 08       		.byte	0x8
 2398 00a3 04       		.uleb128 0x4
 2399 00a4 4E1E0000 		.4byte	.LASF19
 2400 00a8 09       		.byte	0x9
 2401 00a9 04       		.uleb128 0x4
 2402 00aa C01E0000 		.4byte	.LASF20
 2403 00ae 0A       		.byte	0xa
 2404 00af 04       		.uleb128 0x4
 2405 00b0 5C100000 		.4byte	.LASF21
 2406 00b4 0B       		.byte	0xb
 2407 00b5 04       		.uleb128 0x4
 2408 00b6 E7020000 		.4byte	.LASF22
 2409 00ba 0C       		.byte	0xc
 2410 00bb 04       		.uleb128 0x4
 2411 00bc 94000000 		.4byte	.LASF23
 2412 00c0 0D       		.byte	0xd
 2413 00c1 04       		.uleb128 0x4
 2414 00c2 ED160000 		.4byte	.LASF24
 2415 00c6 0E       		.byte	0xe
 2416 00c7 04       		.uleb128 0x4
 2417 00c8 A7150000 		.4byte	.LASF25
 2418 00cc 0F       		.byte	0xf
 2419 00cd 04       		.uleb128 0x4
 2420 00ce A7200000 		.4byte	.LASF26
 2421 00d2 10       		.byte	0x10
 2422 00d3 04       		.uleb128 0x4
 2423 00d4 A91D0000 		.4byte	.LASF27
 2424 00d8 11       		.byte	0x11
 2425 00d9 04       		.uleb128 0x4
ARM GAS  C:\Users\Mathieu\AppData\Local\Temp\ccqdbTbw.s 			page 117


 2426 00da FF1D0000 		.4byte	.LASF28
 2427 00de 12       		.byte	0x12
 2428 00df 04       		.uleb128 0x4
 2429 00e0 BD000000 		.4byte	.LASF29
 2430 00e4 13       		.byte	0x13
 2431 00e5 04       		.uleb128 0x4
 2432 00e6 48170000 		.4byte	.LASF30
 2433 00ea 14       		.byte	0x14
 2434 00eb 04       		.uleb128 0x4
 2435 00ec 3F230000 		.4byte	.LASF31
 2436 00f0 15       		.byte	0x15
 2437 00f1 04       		.uleb128 0x4
 2438 00f2 B8010000 		.4byte	.LASF32
 2439 00f6 16       		.byte	0x16
 2440 00f7 04       		.uleb128 0x4
 2441 00f8 BF1D0000 		.4byte	.LASF33
 2442 00fc 17       		.byte	0x17
 2443 00fd 04       		.uleb128 0x4
 2444 00fe 8C180000 		.4byte	.LASF34
 2445 0102 18       		.byte	0x18
 2446 0103 04       		.uleb128 0x4
 2447 0104 35220000 		.4byte	.LASF35
 2448 0108 19       		.byte	0x19
 2449 0109 04       		.uleb128 0x4
 2450 010a C71F0000 		.4byte	.LASF36
 2451 010e 1A       		.byte	0x1a
 2452 010f 04       		.uleb128 0x4
 2453 0110 21040000 		.4byte	.LASF37
 2454 0114 1B       		.byte	0x1b
 2455 0115 04       		.uleb128 0x4
 2456 0116 24100000 		.4byte	.LASF38
 2457 011a 1C       		.byte	0x1c
 2458 011b 04       		.uleb128 0x4
 2459 011c 43010000 		.4byte	.LASF39
 2460 0120 1D       		.byte	0x1d
 2461 0121 04       		.uleb128 0x4
 2462 0122 E7170000 		.4byte	.LASF40
 2463 0126 1E       		.byte	0x1e
 2464 0127 04       		.uleb128 0x4
 2465 0128 D4090000 		.4byte	.LASF41
 2466 012c 1F       		.byte	0x1f
 2467 012d 04       		.uleb128 0x4
 2468 012e 69070000 		.4byte	.LASF42
 2469 0132 20       		.byte	0x20
 2470 0133 04       		.uleb128 0x4
 2471 0134 1E1E0000 		.4byte	.LASF43
 2472 0138 21       		.byte	0x21
 2473 0139 04       		.uleb128 0x4
 2474 013a A50F0000 		.4byte	.LASF44
 2475 013e 22       		.byte	0x22
 2476 013f 04       		.uleb128 0x4
 2477 0140 DD130000 		.4byte	.LASF45
 2478 0144 23       		.byte	0x23
 2479 0145 04       		.uleb128 0x4
 2480 0146 52060000 		.4byte	.LASF46
 2481 014a 24       		.byte	0x24
 2482 014b 04       		.uleb128 0x4
ARM GAS  C:\Users\Mathieu\AppData\Local\Temp\ccqdbTbw.s 			page 118


 2483 014c F51C0000 		.4byte	.LASF47
 2484 0150 25       		.byte	0x25
 2485 0151 04       		.uleb128 0x4
 2486 0152 751A0000 		.4byte	.LASF48
 2487 0156 26       		.byte	0x26
 2488 0157 04       		.uleb128 0x4
 2489 0158 590C0000 		.4byte	.LASF49
 2490 015c 27       		.byte	0x27
 2491 015d 04       		.uleb128 0x4
 2492 015e 14230000 		.4byte	.LASF50
 2493 0162 28       		.byte	0x28
 2494 0163 04       		.uleb128 0x4
 2495 0164 B61B0000 		.4byte	.LASF51
 2496 0168 29       		.byte	0x29
 2497 0169 04       		.uleb128 0x4
 2498 016a 091A0000 		.4byte	.LASF52
 2499 016e 2A       		.byte	0x2a
 2500 016f 04       		.uleb128 0x4
 2501 0170 0F100000 		.4byte	.LASF53
 2502 0174 2B       		.byte	0x2b
 2503 0175 04       		.uleb128 0x4
 2504 0176 5F200000 		.4byte	.LASF54
 2505 017a 2C       		.byte	0x2c
 2506 017b 04       		.uleb128 0x4
 2507 017c 78160000 		.4byte	.LASF55
 2508 0180 2D       		.byte	0x2d
 2509 0181 04       		.uleb128 0x4
 2510 0182 95010000 		.4byte	.LASF56
 2511 0186 2E       		.byte	0x2e
 2512 0187 04       		.uleb128 0x4
 2513 0188 121D0000 		.4byte	.LASF57
 2514 018c 2F       		.byte	0x2f
 2515 018d 04       		.uleb128 0x4
 2516 018e A6070000 		.4byte	.LASF58
 2517 0192 30       		.byte	0x30
 2518 0193 04       		.uleb128 0x4
 2519 0194 CB060000 		.4byte	.LASF59
 2520 0198 31       		.byte	0x31
 2521 0199 04       		.uleb128 0x4
 2522 019a 610B0000 		.4byte	.LASF60
 2523 019e 32       		.byte	0x32
 2524 019f 04       		.uleb128 0x4
 2525 01a0 DE210000 		.4byte	.LASF61
 2526 01a4 33       		.byte	0x33
 2527 01a5 04       		.uleb128 0x4
 2528 01a6 9E130000 		.4byte	.LASF62
 2529 01aa 34       		.byte	0x34
 2530 01ab 04       		.uleb128 0x4
 2531 01ac 40110000 		.4byte	.LASF63
 2532 01b0 35       		.byte	0x35
 2533 01b1 04       		.uleb128 0x4
 2534 01b2 EE030000 		.4byte	.LASF64
 2535 01b6 36       		.byte	0x36
 2536 01b7 04       		.uleb128 0x4
 2537 01b8 1E1A0000 		.4byte	.LASF65
 2538 01bc 37       		.byte	0x37
 2539 01bd 04       		.uleb128 0x4
ARM GAS  C:\Users\Mathieu\AppData\Local\Temp\ccqdbTbw.s 			page 119


 2540 01be 94170000 		.4byte	.LASF66
 2541 01c2 38       		.byte	0x38
 2542 01c3 04       		.uleb128 0x4
 2543 01c4 84090000 		.4byte	.LASF67
 2544 01c8 39       		.byte	0x39
 2545 01c9 04       		.uleb128 0x4
 2546 01ca 74200000 		.4byte	.LASF68
 2547 01ce 3A       		.byte	0x3a
 2548 01cf 04       		.uleb128 0x4
 2549 01d0 12120000 		.4byte	.LASF69
 2550 01d4 3B       		.byte	0x3b
 2551 01d5 04       		.uleb128 0x4
 2552 01d6 8C100000 		.4byte	.LASF70
 2553 01da 3C       		.byte	0x3c
 2554 01db 04       		.uleb128 0x4
 2555 01dc 16030000 		.4byte	.LASF71
 2556 01e0 3D       		.byte	0x3d
 2557 01e1 04       		.uleb128 0x4
 2558 01e2 9D190000 		.4byte	.LASF72
 2559 01e6 3E       		.byte	0x3e
 2560 01e7 04       		.uleb128 0x4
 2561 01e8 0A170000 		.4byte	.LASF73
 2562 01ec 3F       		.byte	0x3f
 2563 01ed 04       		.uleb128 0x4
 2564 01ee BB080000 		.4byte	.LASF74
 2565 01f2 40       		.byte	0x40
 2566 01f3 04       		.uleb128 0x4
 2567 01f4 AA1F0000 		.4byte	.LASF75
 2568 01f8 41       		.byte	0x41
 2569 01f9 04       		.uleb128 0x4
 2570 01fa E7220000 		.4byte	.LASF76
 2571 01fe 42       		.byte	0x42
 2572 01ff 04       		.uleb128 0x4
 2573 0200 BF140000 		.4byte	.LASF77
 2574 0204 43       		.byte	0x43
 2575 0205 04       		.uleb128 0x4
 2576 0206 94060000 		.4byte	.LASF78
 2577 020a 44       		.byte	0x44
 2578 020b 04       		.uleb128 0x4
 2579 020c F2040000 		.4byte	.LASF79
 2580 0210 45       		.byte	0x45
 2581 0211 04       		.uleb128 0x4
 2582 0212 D41A0000 		.4byte	.LASF80
 2583 0216 46       		.byte	0x46
 2584 0217 04       		.uleb128 0x4
 2585 0218 E0190000 		.4byte	.LASF81
 2586 021c 47       		.byte	0x47
 2587 021d 04       		.uleb128 0x4
 2588 021e 870A0000 		.4byte	.LASF82
 2589 0222 48       		.byte	0x48
 2590 0223 04       		.uleb128 0x4
 2591 0224 28210000 		.4byte	.LASF83
 2592 0228 49       		.byte	0x49
 2593 0229 04       		.uleb128 0x4
 2594 022a 06130000 		.4byte	.LASF84
 2595 022e 4A       		.byte	0x4a
 2596 022f 04       		.uleb128 0x4
ARM GAS  C:\Users\Mathieu\AppData\Local\Temp\ccqdbTbw.s 			page 120


 2597 0230 40100000 		.4byte	.LASF85
 2598 0234 4B       		.byte	0x4b
 2599 0235 04       		.uleb128 0x4
 2600 0236 44190000 		.4byte	.LASF86
 2601 023a 4C       		.byte	0x4c
 2602 023b 04       		.uleb128 0x4
 2603 023c ED0A0000 		.4byte	.LASF87
 2604 0240 4D       		.byte	0x4d
 2605 0241 04       		.uleb128 0x4
 2606 0242 8A210000 		.4byte	.LASF88
 2607 0246 4E       		.byte	0x4e
 2608 0247 04       		.uleb128 0x4
 2609 0248 30060000 		.4byte	.LASF89
 2610 024c 4F       		.byte	0x4f
 2611 024d 04       		.uleb128 0x4
 2612 024e 05110000 		.4byte	.LASF90
 2613 0252 50       		.byte	0x50
 2614 0253 04       		.uleb128 0x4
 2615 0254 9B030000 		.4byte	.LASF91
 2616 0258 51       		.byte	0x51
 2617 0259 04       		.uleb128 0x4
 2618 025a F01A0000 		.4byte	.LASF92
 2619 025e 52       		.byte	0x52
 2620 025f 04       		.uleb128 0x4
 2621 0260 020D0000 		.4byte	.LASF93
 2622 0264 53       		.byte	0x53
 2623 0265 04       		.uleb128 0x4
 2624 0266 691B0000 		.4byte	.LASF94
 2625 026a 54       		.byte	0x54
 2626 026b 04       		.uleb128 0x4
 2627 026c 4F020000 		.4byte	.LASF95
 2628 0270 55       		.byte	0x55
 2629 0271 04       		.uleb128 0x4
 2630 0272 891D0000 		.4byte	.LASF96
 2631 0276 56       		.byte	0x56
 2632 0277 04       		.uleb128 0x4
 2633 0278 FB0E0000 		.4byte	.LASF97
 2634 027c 57       		.byte	0x57
 2635 027d 04       		.uleb128 0x4
 2636 027e C7220000 		.4byte	.LASF98
 2637 0282 58       		.byte	0x58
 2638 0283 04       		.uleb128 0x4
 2639 0284 771E0000 		.4byte	.LASF99
 2640 0288 59       		.byte	0x59
 2641 0289 04       		.uleb128 0x4
 2642 028a 061C0000 		.4byte	.LASF100
 2643 028e 5A       		.byte	0x5a
 2644 028f 04       		.uleb128 0x4
 2645 0290 29010000 		.4byte	.LASF101
 2646 0294 5B       		.byte	0x5b
 2647 0295 04       		.uleb128 0x4
 2648 0296 8B0B0000 		.4byte	.LASF102
 2649 029a 5C       		.byte	0x5c
 2650 029b 04       		.uleb128 0x4
 2651 029c 441B0000 		.4byte	.LASF103
 2652 02a0 5D       		.byte	0x5d
 2653 02a1 04       		.uleb128 0x4
ARM GAS  C:\Users\Mathieu\AppData\Local\Temp\ccqdbTbw.s 			page 121


 2654 02a2 E31F0000 		.4byte	.LASF104
 2655 02a6 5E       		.byte	0x5e
 2656 02a7 04       		.uleb128 0x4
 2657 02a8 85110000 		.4byte	.LASF105
 2658 02ac 5F       		.byte	0x5f
 2659 02ad 04       		.uleb128 0x4
 2660 02ae 51040000 		.4byte	.LASF106
 2661 02b2 60       		.byte	0x60
 2662 02b3 04       		.uleb128 0x4
 2663 02b4 5F010000 		.4byte	.LASF107
 2664 02b8 61       		.byte	0x61
 2665 02b9 04       		.uleb128 0x4
 2666 02ba 451A0000 		.4byte	.LASF108
 2667 02be 62       		.byte	0x62
 2668 02bf 04       		.uleb128 0x4
 2669 02c0 CD170000 		.4byte	.LASF109
 2670 02c4 63       		.byte	0x63
 2671 02c5 04       		.uleb128 0x4
 2672 02c6 AD090000 		.4byte	.LASF110
 2673 02ca 64       		.byte	0x64
 2674 02cb 04       		.uleb128 0x4
 2675 02cc BF200000 		.4byte	.LASF111
 2676 02d0 65       		.byte	0x65
 2677 02d1 04       		.uleb128 0x4
 2678 02d2 45120000 		.4byte	.LASF112
 2679 02d6 66       		.byte	0x66
 2680 02d7 04       		.uleb128 0x4
 2681 02d8 8B0F0000 		.4byte	.LASF113
 2682 02dc 67       		.byte	0x67
 2683 02dd 04       		.uleb128 0x4
 2684 02de 0A020000 		.4byte	.LASF114
 2685 02e2 68       		.byte	0x68
 2686 02e3 04       		.uleb128 0x4
 2687 02e4 F9180000 		.4byte	.LASF115
 2688 02e8 69       		.byte	0x69
 2689 02e9 04       		.uleb128 0x4
 2690 02ea 2F160000 		.4byte	.LASF116
 2691 02ee 6A       		.byte	0x6a
 2692 02ef 04       		.uleb128 0x4
 2693 02f0 3B080000 		.4byte	.LASF117
 2694 02f4 6B       		.byte	0x6b
 2695 02f5 04       		.uleb128 0x4
 2696 02f6 D20A0000 		.4byte	.LASF118
 2697 02fa 6C       		.byte	0x6c
 2698 02fb 04       		.uleb128 0x4
 2699 02fc 0F0E0000 		.4byte	.LASF119
 2700 0300 6D       		.byte	0x6d
 2701 0301 04       		.uleb128 0x4
 2702 0302 72130000 		.4byte	.LASF120
 2703 0306 6E       		.byte	0x6e
 2704 0307 04       		.uleb128 0x4
 2705 0308 A1050000 		.4byte	.LASF121
 2706 030c 6F       		.byte	0x6f
 2707 030d 04       		.uleb128 0x4
 2708 030e 62030000 		.4byte	.LASF122
 2709 0312 70       		.byte	0x70
 2710 0313 04       		.uleb128 0x4
ARM GAS  C:\Users\Mathieu\AppData\Local\Temp\ccqdbTbw.s 			page 122


 2711 0314 C5190000 		.4byte	.LASF123
 2712 0318 71       		.byte	0x71
 2713 0319 04       		.uleb128 0x4
 2714 031a BA0B0000 		.4byte	.LASF124
 2715 031e 72       		.byte	0x72
 2716 031f 04       		.uleb128 0x4
 2717 0320 00090000 		.4byte	.LASF125
 2718 0324 73       		.byte	0x73
 2719 0325 04       		.uleb128 0x4
 2720 0326 38200000 		.4byte	.LASF126
 2721 032a 74       		.byte	0x74
 2722 032b 04       		.uleb128 0x4
 2723 032c C4110000 		.4byte	.LASF127
 2724 0330 75       		.byte	0x75
 2725 0331 04       		.uleb128 0x4
 2726 0332 B00C0000 		.4byte	.LASF128
 2727 0336 76       		.byte	0x76
 2728 0337 04       		.uleb128 0x4
 2729 0338 6F230000 		.4byte	.LASF129
 2730 033c 77       		.byte	0x77
 2731 033d 04       		.uleb128 0x4
 2732 033e 2D150000 		.4byte	.LASF130
 2733 0342 78       		.byte	0x78
 2734 0343 04       		.uleb128 0x4
 2735 0344 EB120000 		.4byte	.LASF131
 2736 0348 79       		.byte	0x79
 2737 0349 04       		.uleb128 0x4
 2738 034a 8B050000 		.4byte	.LASF132
 2739 034e 7A       		.byte	0x7a
 2740 034f 04       		.uleb128 0x4
 2741 0350 201C0000 		.4byte	.LASF133
 2742 0354 7B       		.byte	0x7b
 2743 0355 04       		.uleb128 0x4
 2744 0356 9E0D0000 		.4byte	.LASF134
 2745 035a 7C       		.byte	0x7c
 2746 035b 04       		.uleb128 0x4
 2747 035c 16000000 		.4byte	.LASF135
 2748 0360 7D       		.byte	0x7d
 2749 0361 04       		.uleb128 0x4
 2750 0362 5F220000 		.4byte	.LASF136
 2751 0366 7E       		.byte	0x7e
 2752 0367 04       		.uleb128 0x4
 2753 0368 BA130000 		.4byte	.LASF137
 2754 036c 7F       		.byte	0x7f
 2755 036d 04       		.uleb128 0x4
 2756 036e 1A060000 		.4byte	.LASF138
 2757 0372 80       		.byte	0x80
 2758 0373 04       		.uleb128 0x4
 2759 0374 6B040000 		.4byte	.LASF139
 2760 0378 81       		.byte	0x81
 2761 0379 04       		.uleb128 0x4
 2762 037a 5F1A0000 		.4byte	.LASF140
 2763 037e 82       		.byte	0x82
 2764 037f 04       		.uleb128 0x4
 2765 0380 430C0000 		.4byte	.LASF141
 2766 0384 83       		.byte	0x83
 2767 0385 04       		.uleb128 0x4
ARM GAS  C:\Users\Mathieu\AppData\Local\Temp\ccqdbTbw.s 			page 123


 2768 0386 90200000 		.4byte	.LASF142
 2769 038a 84       		.byte	0x84
 2770 038b 04       		.uleb128 0x4
 2771 038c 2E120000 		.4byte	.LASF143
 2772 0390 85       		.byte	0x85
 2773 0391 04       		.uleb128 0x4
 2774 0392 740F0000 		.4byte	.LASF144
 2775 0396 86       		.byte	0x86
 2776 0397 04       		.uleb128 0x4
 2777 0398 F3010000 		.4byte	.LASF145
 2778 039c 87       		.byte	0x87
 2779 039d 04       		.uleb128 0x4
 2780 039e E2180000 		.4byte	.LASF146
 2781 03a2 88       		.byte	0x88
 2782 03a3 04       		.uleb128 0x4
 2783 03a4 F2150000 		.4byte	.LASF147
 2784 03a8 89       		.byte	0x89
 2785 03a9 04       		.uleb128 0x4
 2786 03aa 66150000 		.4byte	.LASF148
 2787 03ae 8A       		.byte	0x8a
 2788 03af 04       		.uleb128 0x4
 2789 03b0 E21B0000 		.4byte	.LASF149
 2790 03b4 8B       		.byte	0x8b
 2791 03b5 04       		.uleb128 0x4
 2792 03b6 1F180000 		.4byte	.LASF150
 2793 03ba 8C       		.byte	0x8c
 2794 03bb 04       		.uleb128 0x4
 2795 03bc D0020000 		.4byte	.LASF151
 2796 03c0 8D       		.byte	0x8d
 2797 03c1 04       		.uleb128 0x4
 2798 03c2 4E030000 		.4byte	.LASF152
 2799 03c6 8E       		.byte	0x8e
 2800 03c7 04       		.uleb128 0x4
 2801 03c8 76190000 		.4byte	.LASF153
 2802 03cc 8F       		.byte	0x8f
 2803 03cd 04       		.uleb128 0x4
 2804 03ce 20090000 		.4byte	.LASF154
 2805 03d2 90       		.byte	0x90
 2806 03d3 04       		.uleb128 0x4
 2807 03d4 24020000 		.4byte	.LASF155
 2808 03d8 91       		.byte	0x91
 2809 03d9 04       		.uleb128 0x4
 2810 03da CB0C0000 		.4byte	.LASF156
 2811 03de 92       		.byte	0x92
 2812 03df 04       		.uleb128 0x4
 2813 03e0 85080000 		.4byte	.LASF157
 2814 03e4 F0       		.byte	0xf0
 2815 03e5 00       		.byte	0
 2816 03e6 05       		.uleb128 0x5
 2817 03e7 02       		.byte	0x2
 2818 03e8 05       		.byte	0x5
 2819 03e9 6E1D0000 		.4byte	.LASF158
 2820 03ed 06       		.uleb128 0x6
 2821 03ee D90E0000 		.4byte	.LASF160
 2822 03f2 04       		.byte	0x4
 2823 03f3 F4       		.byte	0xf4
 2824 03f4 25000000 		.4byte	0x25
ARM GAS  C:\Users\Mathieu\AppData\Local\Temp\ccqdbTbw.s 			page 124


 2825 03f8 05       		.uleb128 0x5
 2826 03f9 01       		.byte	0x1
 2827 03fa 06       		.byte	0x6
 2828 03fb 1E070000 		.4byte	.LASF159
 2829 03ff 06       		.uleb128 0x6
 2830 0400 D5040000 		.4byte	.LASF161
 2831 0404 05       		.byte	0x5
 2832 0405 1D       		.byte	0x1d
 2833 0406 0A040000 		.4byte	0x40a
 2834 040a 05       		.uleb128 0x5
 2835 040b 01       		.byte	0x1
 2836 040c 08       		.byte	0x8
 2837 040d E8070000 		.4byte	.LASF162
 2838 0411 06       		.uleb128 0x6
 2839 0412 1C1B0000 		.4byte	.LASF163
 2840 0416 05       		.byte	0x5
 2841 0417 29       		.byte	0x29
 2842 0418 E6030000 		.4byte	0x3e6
 2843 041c 06       		.uleb128 0x6
 2844 041d 3F0A0000 		.4byte	.LASF164
 2845 0421 05       		.byte	0x5
 2846 0422 2B       		.byte	0x2b
 2847 0423 27040000 		.4byte	0x427
 2848 0427 05       		.uleb128 0x5
 2849 0428 02       		.byte	0x2
 2850 0429 07       		.byte	0x7
 2851 042a C0210000 		.4byte	.LASF165
 2852 042e 06       		.uleb128 0x6
 2853 042f 661C0000 		.4byte	.LASF166
 2854 0433 05       		.byte	0x5
 2855 0434 3F       		.byte	0x3f
 2856 0435 39040000 		.4byte	0x439
 2857 0439 05       		.uleb128 0x5
 2858 043a 04       		.byte	0x4
 2859 043b 05       		.byte	0x5
 2860 043c 52050000 		.4byte	.LASF167
 2861 0440 06       		.uleb128 0x6
 2862 0441 5C110000 		.4byte	.LASF168
 2863 0445 05       		.byte	0x5
 2864 0446 41       		.byte	0x41
 2865 0447 4B040000 		.4byte	0x44b
 2866 044b 05       		.uleb128 0x5
 2867 044c 04       		.byte	0x4
 2868 044d 07       		.byte	0x7
 2869 044e 560E0000 		.4byte	.LASF169
 2870 0452 05       		.uleb128 0x5
 2871 0453 08       		.byte	0x8
 2872 0454 05       		.byte	0x5
 2873 0455 F8200000 		.4byte	.LASF170
 2874 0459 05       		.uleb128 0x5
 2875 045a 08       		.byte	0x8
 2876 045b 07       		.byte	0x7
 2877 045c 24190000 		.4byte	.LASF171
 2878 0460 07       		.uleb128 0x7
 2879 0461 04       		.byte	0x4
 2880 0462 05       		.byte	0x5
 2881 0463 696E7400 		.ascii	"int\000"
ARM GAS  C:\Users\Mathieu\AppData\Local\Temp\ccqdbTbw.s 			page 125


 2882 0467 05       		.uleb128 0x5
 2883 0468 04       		.byte	0x4
 2884 0469 07       		.byte	0x7
 2885 046a D0130000 		.4byte	.LASF172
 2886 046e 06       		.uleb128 0x6
 2887 046f 2A070000 		.4byte	.LASF173
 2888 0473 06       		.byte	0x6
 2889 0474 18       		.byte	0x18
 2890 0475 FF030000 		.4byte	0x3ff
 2891 0479 06       		.uleb128 0x6
 2892 047a F71D0000 		.4byte	.LASF174
 2893 047e 06       		.byte	0x6
 2894 047f 20       		.byte	0x20
 2895 0480 11040000 		.4byte	0x411
 2896 0484 06       		.uleb128 0x6
 2897 0485 6D190000 		.4byte	.LASF175
 2898 0489 06       		.byte	0x6
 2899 048a 24       		.byte	0x24
 2900 048b 1C040000 		.4byte	0x41c
 2901 048f 06       		.uleb128 0x6
 2902 0490 921A0000 		.4byte	.LASF176
 2903 0494 06       		.byte	0x6
 2904 0495 2C       		.byte	0x2c
 2905 0496 2E040000 		.4byte	0x42e
 2906 049a 06       		.uleb128 0x6
 2907 049b 06210000 		.4byte	.LASF177
 2908 049f 06       		.byte	0x6
 2909 04a0 30       		.byte	0x30
 2910 04a1 40040000 		.4byte	0x440
 2911 04a5 08       		.uleb128 0x8
 2912 04a6 040E     		.2byte	0xe04
 2913 04a8 03       		.byte	0x3
 2914 04a9 9601     		.2byte	0x196
 2915 04ab 61050000 		.4byte	0x561
 2916 04af 09       		.uleb128 0x9
 2917 04b0 0F230000 		.4byte	.LASF178
 2918 04b4 03       		.byte	0x3
 2919 04b5 9801     		.2byte	0x198
 2920 04b7 7D050000 		.4byte	0x57d
 2921 04bb 00       		.byte	0
 2922 04bc 09       		.uleb128 0x9
 2923 04bd D4070000 		.4byte	.LASF179
 2924 04c1 03       		.byte	0x3
 2925 04c2 9901     		.2byte	0x199
 2926 04c4 82050000 		.4byte	0x582
 2927 04c8 20       		.byte	0x20
 2928 04c9 09       		.uleb128 0x9
 2929 04ca BA1A0000 		.4byte	.LASF180
 2930 04ce 03       		.byte	0x3
 2931 04cf 9A01     		.2byte	0x19a
 2932 04d1 92050000 		.4byte	0x592
 2933 04d5 80       		.byte	0x80
 2934 04d6 09       		.uleb128 0x9
 2935 04d7 00000000 		.4byte	.LASF181
 2936 04db 03       		.byte	0x3
 2937 04dc 9B01     		.2byte	0x19b
 2938 04de 82050000 		.4byte	0x582
ARM GAS  C:\Users\Mathieu\AppData\Local\Temp\ccqdbTbw.s 			page 126


 2939 04e2 A0       		.byte	0xa0
 2940 04e3 0A       		.uleb128 0xa
 2941 04e4 A50B0000 		.4byte	.LASF182
 2942 04e8 03       		.byte	0x3
 2943 04e9 9C01     		.2byte	0x19c
 2944 04eb 97050000 		.4byte	0x597
 2945 04ef 0001     		.2byte	0x100
 2946 04f1 0A       		.uleb128 0xa
 2947 04f2 6D0A0000 		.4byte	.LASF183
 2948 04f6 03       		.byte	0x3
 2949 04f7 9D01     		.2byte	0x19d
 2950 04f9 82050000 		.4byte	0x582
 2951 04fd 2001     		.2byte	0x120
 2952 04ff 0A       		.uleb128 0xa
 2953 0500 C7030000 		.4byte	.LASF184
 2954 0504 03       		.byte	0x3
 2955 0505 9E01     		.2byte	0x19e
 2956 0507 9C050000 		.4byte	0x59c
 2957 050b 8001     		.2byte	0x180
 2958 050d 0A       		.uleb128 0xa
 2959 050e F6070000 		.4byte	.LASF185
 2960 0512 03       		.byte	0x3
 2961 0513 9F01     		.2byte	0x19f
 2962 0515 82050000 		.4byte	0x582
 2963 0519 A001     		.2byte	0x1a0
 2964 051b 0A       		.uleb128 0xa
 2965 051c 36080000 		.4byte	.LASF186
 2966 0520 03       		.byte	0x3
 2967 0521 A001     		.2byte	0x1a0
 2968 0523 A1050000 		.4byte	0x5a1
 2969 0527 0002     		.2byte	0x200
 2970 0529 0A       		.uleb128 0xa
 2971 052a 00080000 		.4byte	.LASF187
 2972 052e 03       		.byte	0x3
 2973 052f A101     		.2byte	0x1a1
 2974 0531 A6050000 		.4byte	0x5a6
 2975 0535 2002     		.2byte	0x220
 2976 0537 0B       		.uleb128 0xb
 2977 0538 495000   		.ascii	"IP\000"
 2978 053b 03       		.byte	0x3
 2979 053c A201     		.2byte	0x1a2
 2980 053e CB050000 		.4byte	0x5cb
 2981 0542 0003     		.2byte	0x300
 2982 0544 0A       		.uleb128 0xa
 2983 0545 0A080000 		.4byte	.LASF188
 2984 0549 03       		.byte	0x3
 2985 054a A301     		.2byte	0x1a3
 2986 054c D0050000 		.4byte	0x5d0
 2987 0550 F003     		.2byte	0x3f0
 2988 0552 0A       		.uleb128 0xa
 2989 0553 760C0000 		.4byte	.LASF189
 2990 0557 03       		.byte	0x3
 2991 0558 A401     		.2byte	0x1a4
 2992 055a 78050000 		.4byte	0x578
 2993 055e 000E     		.2byte	0xe00
 2994 0560 00       		.byte	0
 2995 0561 0C       		.uleb128 0xc
ARM GAS  C:\Users\Mathieu\AppData\Local\Temp\ccqdbTbw.s 			page 127


 2996 0562 78050000 		.4byte	0x578
 2997 0566 71050000 		.4byte	0x571
 2998 056a 0D       		.uleb128 0xd
 2999 056b 71050000 		.4byte	0x571
 3000 056f 07       		.byte	0x7
 3001 0570 00       		.byte	0
 3002 0571 05       		.uleb128 0x5
 3003 0572 04       		.byte	0x4
 3004 0573 07       		.byte	0x7
 3005 0574 57000000 		.4byte	.LASF190
 3006 0578 0E       		.uleb128 0xe
 3007 0579 9A040000 		.4byte	0x49a
 3008 057d 0E       		.uleb128 0xe
 3009 057e 61050000 		.4byte	0x561
 3010 0582 0C       		.uleb128 0xc
 3011 0583 9A040000 		.4byte	0x49a
 3012 0587 92050000 		.4byte	0x592
 3013 058b 0D       		.uleb128 0xd
 3014 058c 71050000 		.4byte	0x571
 3015 0590 17       		.byte	0x17
 3016 0591 00       		.byte	0
 3017 0592 0E       		.uleb128 0xe
 3018 0593 61050000 		.4byte	0x561
 3019 0597 0E       		.uleb128 0xe
 3020 0598 61050000 		.4byte	0x561
 3021 059c 0E       		.uleb128 0xe
 3022 059d 61050000 		.4byte	0x561
 3023 05a1 0E       		.uleb128 0xe
 3024 05a2 61050000 		.4byte	0x561
 3025 05a6 0C       		.uleb128 0xc
 3026 05a7 9A040000 		.4byte	0x49a
 3027 05ab B6050000 		.4byte	0x5b6
 3028 05af 0D       		.uleb128 0xd
 3029 05b0 71050000 		.4byte	0x571
 3030 05b4 37       		.byte	0x37
 3031 05b5 00       		.byte	0
 3032 05b6 0C       		.uleb128 0xc
 3033 05b7 C6050000 		.4byte	0x5c6
 3034 05bb C6050000 		.4byte	0x5c6
 3035 05bf 0D       		.uleb128 0xd
 3036 05c0 71050000 		.4byte	0x571
 3037 05c4 EF       		.byte	0xef
 3038 05c5 00       		.byte	0
 3039 05c6 0E       		.uleb128 0xe
 3040 05c7 6E040000 		.4byte	0x46e
 3041 05cb 0E       		.uleb128 0xe
 3042 05cc B6050000 		.4byte	0x5b6
 3043 05d0 0C       		.uleb128 0xc
 3044 05d1 9A040000 		.4byte	0x49a
 3045 05d5 E1050000 		.4byte	0x5e1
 3046 05d9 0F       		.uleb128 0xf
 3047 05da 71050000 		.4byte	0x571
 3048 05de 8302     		.2byte	0x283
 3049 05e0 00       		.byte	0
 3050 05e1 10       		.uleb128 0x10
 3051 05e2 B6180000 		.4byte	.LASF191
 3052 05e6 03       		.byte	0x3
ARM GAS  C:\Users\Mathieu\AppData\Local\Temp\ccqdbTbw.s 			page 128


 3053 05e7 A501     		.2byte	0x1a5
 3054 05e9 A5040000 		.4byte	0x4a5
 3055 05ed 11       		.uleb128 0x11
 3056 05ee 78050000 		.4byte	0x578
 3057 05f2 0C       		.uleb128 0xc
 3058 05f3 ED050000 		.4byte	0x5ed
 3059 05f7 02060000 		.4byte	0x602
 3060 05fb 0D       		.uleb128 0xd
 3061 05fc 71050000 		.4byte	0x571
 3062 0600 0F       		.byte	0xf
 3063 0601 00       		.byte	0
 3064 0602 12       		.uleb128 0x12
 3065 0603 80       		.byte	0x80
 3066 0604 07       		.byte	0x7
 3067 0605 22       		.byte	0x22
 3068 0606 D6060000 		.4byte	0x6d6
 3069 060a 13       		.uleb128 0x13
 3070 060b 4F555400 		.ascii	"OUT\000"
 3071 060f 07       		.byte	0x7
 3072 0610 23       		.byte	0x23
 3073 0611 78050000 		.4byte	0x578
 3074 0615 00       		.byte	0
 3075 0616 14       		.uleb128 0x14
 3076 0617 A8020000 		.4byte	.LASF192
 3077 061b 07       		.byte	0x7
 3078 061c 24       		.byte	0x24
 3079 061d 78050000 		.4byte	0x578
 3080 0621 04       		.byte	0x4
 3081 0622 14       		.uleb128 0x14
 3082 0623 8F020000 		.4byte	.LASF193
 3083 0627 07       		.byte	0x7
 3084 0628 25       		.byte	0x25
 3085 0629 78050000 		.4byte	0x578
 3086 062d 08       		.byte	0x8
 3087 062e 14       		.uleb128 0x14
 3088 062f 27160000 		.4byte	.LASF194
 3089 0633 07       		.byte	0x7
 3090 0634 26       		.byte	0x26
 3091 0635 78050000 		.4byte	0x578
 3092 0639 0C       		.byte	0xc
 3093 063a 13       		.uleb128 0x13
 3094 063b 494E00   		.ascii	"IN\000"
 3095 063e 07       		.byte	0x7
 3096 063f 27       		.byte	0x27
 3097 0640 ED050000 		.4byte	0x5ed
 3098 0644 10       		.byte	0x10
 3099 0645 14       		.uleb128 0x14
 3100 0646 4D060000 		.4byte	.LASF195
 3101 064a 07       		.byte	0x7
 3102 064b 28       		.byte	0x28
 3103 064c 78050000 		.4byte	0x578
 3104 0650 14       		.byte	0x14
 3105 0651 14       		.uleb128 0x14
 3106 0652 7D030000 		.4byte	.LASF196
 3107 0656 07       		.byte	0x7
 3108 0657 29       		.byte	0x29
 3109 0658 78050000 		.4byte	0x578
ARM GAS  C:\Users\Mathieu\AppData\Local\Temp\ccqdbTbw.s 			page 129


 3110 065c 18       		.byte	0x18
 3111 065d 14       		.uleb128 0x14
 3112 065e C1170000 		.4byte	.LASF197
 3113 0662 07       		.byte	0x7
 3114 0663 2A       		.byte	0x2a
 3115 0664 ED050000 		.4byte	0x5ed
 3116 0668 1C       		.byte	0x1c
 3117 0669 14       		.uleb128 0x14
 3118 066a 64170000 		.4byte	.LASF198
 3119 066e 07       		.byte	0x7
 3120 066f 2B       		.byte	0x2b
 3121 0670 78050000 		.4byte	0x578
 3122 0674 20       		.byte	0x20
 3123 0675 14       		.uleb128 0x14
 3124 0676 3B190000 		.4byte	.LASF199
 3125 067a 07       		.byte	0x7
 3126 067b 2C       		.byte	0x2c
 3127 067c 78050000 		.4byte	0x578
 3128 0680 24       		.byte	0x24
 3129 0681 13       		.uleb128 0x13
 3130 0682 43464700 		.ascii	"CFG\000"
 3131 0686 07       		.byte	0x7
 3132 0687 2D       		.byte	0x2d
 3133 0688 78050000 		.4byte	0x578
 3134 068c 28       		.byte	0x28
 3135 068d 14       		.uleb128 0x14
 3136 068e 0A0B0000 		.4byte	.LASF200
 3137 0692 07       		.byte	0x7
 3138 0693 2E       		.byte	0x2e
 3139 0694 78050000 		.4byte	0x578
 3140 0698 2C       		.byte	0x2c
 3141 0699 14       		.uleb128 0x14
 3142 069a DF110000 		.4byte	.LASF201
 3143 069e 07       		.byte	0x7
 3144 069f 2F       		.byte	0x2f
 3145 06a0 78050000 		.4byte	0x578
 3146 06a4 30       		.byte	0x30
 3147 06a5 14       		.uleb128 0x14
 3148 06a6 D51B0000 		.4byte	.LASF202
 3149 06aa 07       		.byte	0x7
 3150 06ab 30       		.byte	0x30
 3151 06ac 78050000 		.4byte	0x578
 3152 06b0 34       		.byte	0x34
 3153 06b1 14       		.uleb128 0x14
 3154 06b2 E40C0000 		.4byte	.LASF203
 3155 06b6 07       		.byte	0x7
 3156 06b7 31       		.byte	0x31
 3157 06b8 ED050000 		.4byte	0x5ed
 3158 06bc 38       		.byte	0x38
 3159 06bd 14       		.uleb128 0x14
 3160 06be B0060000 		.4byte	.LASF204
 3161 06c2 07       		.byte	0x7
 3162 06c3 32       		.byte	0x32
 3163 06c4 78050000 		.4byte	0x578
 3164 06c8 3C       		.byte	0x3c
 3165 06c9 14       		.uleb128 0x14
 3166 06ca DE070000 		.4byte	.LASF205
ARM GAS  C:\Users\Mathieu\AppData\Local\Temp\ccqdbTbw.s 			page 130


 3167 06ce 07       		.byte	0x7
 3168 06cf 33       		.byte	0x33
 3169 06d0 DB060000 		.4byte	0x6db
 3170 06d4 40       		.byte	0x40
 3171 06d5 00       		.byte	0
 3172 06d6 0E       		.uleb128 0xe
 3173 06d7 F2050000 		.4byte	0x5f2
 3174 06db 11       		.uleb128 0x11
 3175 06dc D6060000 		.4byte	0x6d6
 3176 06e0 06       		.uleb128 0x6
 3177 06e1 8C190000 		.4byte	.LASF206
 3178 06e5 07       		.byte	0x7
 3179 06e6 34       		.byte	0x34
 3180 06e7 02060000 		.4byte	0x602
 3181 06eb 15       		.uleb128 0x15
 3182 06ec 2440     		.2byte	0x4024
 3183 06ee 07       		.byte	0x7
 3184 06ef 39       		.byte	0x39
 3185 06f0 76070000 		.4byte	0x776
 3186 06f4 13       		.uleb128 0x13
 3187 06f5 50525400 		.ascii	"PRT\000"
 3188 06f9 07       		.byte	0x7
 3189 06fa 3A       		.byte	0x3a
 3190 06fb 76070000 		.4byte	0x776
 3191 06ff 00       		.byte	0
 3192 0700 16       		.uleb128 0x16
 3193 0701 5B050000 		.4byte	.LASF207
 3194 0705 07       		.byte	0x7
 3195 0706 3B       		.byte	0x3b
 3196 0707 ED050000 		.4byte	0x5ed
 3197 070b 0040     		.2byte	0x4000
 3198 070d 16       		.uleb128 0x16
 3199 070e 67050000 		.4byte	.LASF208
 3200 0712 07       		.byte	0x7
 3201 0713 3C       		.byte	0x3c
 3202 0714 ED050000 		.4byte	0x5ed
 3203 0718 0440     		.2byte	0x4004
 3204 071a 16       		.uleb128 0x16
 3205 071b 73050000 		.4byte	.LASF209
 3206 071f 07       		.byte	0x7
 3207 0720 3D       		.byte	0x3d
 3208 0721 ED050000 		.4byte	0x5ed
 3209 0725 0840     		.2byte	0x4008
 3210 0727 16       		.uleb128 0x16
 3211 0728 7F050000 		.4byte	.LASF210
 3212 072c 07       		.byte	0x7
 3213 072d 3E       		.byte	0x3e
 3214 072e ED050000 		.4byte	0x5ed
 3215 0732 0C40     		.2byte	0x400c
 3216 0734 16       		.uleb128 0x16
 3217 0735 101F0000 		.4byte	.LASF211
 3218 0739 07       		.byte	0x7
 3219 073a 3F       		.byte	0x3f
 3220 073b ED050000 		.4byte	0x5ed
 3221 073f 1040     		.2byte	0x4010
 3222 0741 16       		.uleb128 0x16
 3223 0742 8D160000 		.4byte	.LASF212
ARM GAS  C:\Users\Mathieu\AppData\Local\Temp\ccqdbTbw.s 			page 131


 3224 0746 07       		.byte	0x7
 3225 0747 40       		.byte	0x40
 3226 0748 78050000 		.4byte	0x578
 3227 074c 1440     		.2byte	0x4014
 3228 074e 16       		.uleb128 0x16
 3229 074f 7D0B0000 		.4byte	.LASF213
 3230 0753 07       		.byte	0x7
 3231 0754 41       		.byte	0x41
 3232 0755 78050000 		.4byte	0x578
 3233 0759 1840     		.2byte	0x4018
 3234 075b 16       		.uleb128 0x16
 3235 075c 650D0000 		.4byte	.LASF214
 3236 0760 07       		.byte	0x7
 3237 0761 42       		.byte	0x42
 3238 0762 ED050000 		.4byte	0x5ed
 3239 0766 1C40     		.2byte	0x401c
 3240 0768 16       		.uleb128 0x16
 3241 0769 9A1A0000 		.4byte	.LASF215
 3242 076d 07       		.byte	0x7
 3243 076e 43       		.byte	0x43
 3244 076f 78050000 		.4byte	0x578
 3245 0773 2040     		.2byte	0x4020
 3246 0775 00       		.byte	0
 3247 0776 0C       		.uleb128 0xc
 3248 0777 E0060000 		.4byte	0x6e0
 3249 077b 86070000 		.4byte	0x786
 3250 077f 0D       		.uleb128 0xd
 3251 0780 71050000 		.4byte	0x571
 3252 0784 7F       		.byte	0x7f
 3253 0785 00       		.byte	0
 3254 0786 06       		.uleb128 0x6
 3255 0787 C7090000 		.4byte	.LASF216
 3256 078b 07       		.byte	0x7
 3257 078c 44       		.byte	0x44
 3258 078d EB060000 		.4byte	0x6eb
 3259 0791 10       		.uleb128 0x10
 3260 0792 A11C0000 		.4byte	.LASF217
 3261 0796 08       		.byte	0x8
 3262 0797 3106     		.2byte	0x631
 3263 0799 E0060000 		.4byte	0x6e0
 3264 079d 10       		.uleb128 0x10
 3265 079e 60180000 		.4byte	.LASF218
 3266 07a2 08       		.byte	0x8
 3267 07a3 3206     		.2byte	0x632
 3268 07a5 86070000 		.4byte	0x786
 3269 07a9 05       		.uleb128 0x5
 3270 07aa 08       		.byte	0x8
 3271 07ab 04       		.byte	0x4
 3272 07ac 27170000 		.4byte	.LASF219
 3273 07b0 12       		.uleb128 0x12
 3274 07b1 B8       		.byte	0xb8
 3275 07b2 09       		.byte	0x9
 3276 07b3 34       		.byte	0x34
 3277 07b4 C10B0000 		.4byte	0xbc1
 3278 07b8 14       		.uleb128 0x14
 3279 07b9 22110000 		.4byte	.LASF220
 3280 07bd 09       		.byte	0x9
ARM GAS  C:\Users\Mathieu\AppData\Local\Temp\ccqdbTbw.s 			page 132


 3281 07be 37       		.byte	0x37
 3282 07bf 9A040000 		.4byte	0x49a
 3283 07c3 00       		.byte	0
 3284 07c4 14       		.uleb128 0x14
 3285 07c5 BB070000 		.4byte	.LASF221
 3286 07c9 09       		.byte	0x9
 3287 07ca 38       		.byte	0x38
 3288 07cb 9A040000 		.4byte	0x49a
 3289 07cf 04       		.byte	0x4
 3290 07d0 14       		.uleb128 0x14
 3291 07d1 B40D0000 		.4byte	.LASF222
 3292 07d5 09       		.byte	0x9
 3293 07d6 39       		.byte	0x39
 3294 07d7 9A040000 		.4byte	0x49a
 3295 07db 08       		.byte	0x8
 3296 07dc 14       		.uleb128 0x14
 3297 07dd 590B0000 		.4byte	.LASF223
 3298 07e1 09       		.byte	0x9
 3299 07e2 3A       		.byte	0x3a
 3300 07e3 9A040000 		.4byte	0x49a
 3301 07e7 0C       		.byte	0xc
 3302 07e8 14       		.uleb128 0x14
 3303 07e9 2C110000 		.4byte	.LASF224
 3304 07ed 09       		.byte	0x9
 3305 07ee 3B       		.byte	0x3b
 3306 07ef 9A040000 		.4byte	0x49a
 3307 07f3 10       		.byte	0x10
 3308 07f4 14       		.uleb128 0x14
 3309 07f5 1F010000 		.4byte	.LASF225
 3310 07f9 09       		.byte	0x9
 3311 07fa 3C       		.byte	0x3c
 3312 07fb 9A040000 		.4byte	0x49a
 3313 07ff 14       		.byte	0x14
 3314 0800 14       		.uleb128 0x14
 3315 0801 FD1B0000 		.4byte	.LASF226
 3316 0805 09       		.byte	0x9
 3317 0806 3D       		.byte	0x3d
 3318 0807 9A040000 		.4byte	0x49a
 3319 080b 18       		.byte	0x18
 3320 080c 14       		.uleb128 0x14
 3321 080d 9C080000 		.4byte	.LASF227
 3322 0811 09       		.byte	0x9
 3323 0812 3E       		.byte	0x3e
 3324 0813 9A040000 		.4byte	0x49a
 3325 0817 1C       		.byte	0x1c
 3326 0818 14       		.uleb128 0x14
 3327 0819 82210000 		.4byte	.LASF228
 3328 081d 09       		.byte	0x9
 3329 081e 3F       		.byte	0x3f
 3330 081f 9A040000 		.4byte	0x49a
 3331 0823 20       		.byte	0x20
 3332 0824 14       		.uleb128 0x14
 3333 0825 2C000000 		.4byte	.LASF229
 3334 0829 09       		.byte	0x9
 3335 082a 40       		.byte	0x40
 3336 082b 9A040000 		.4byte	0x49a
 3337 082f 24       		.byte	0x24
ARM GAS  C:\Users\Mathieu\AppData\Local\Temp\ccqdbTbw.s 			page 133


 3338 0830 14       		.uleb128 0x14
 3339 0831 EE0E0000 		.4byte	.LASF230
 3340 0835 09       		.byte	0x9
 3341 0836 43       		.byte	0x43
 3342 0837 6E040000 		.4byte	0x46e
 3343 083b 28       		.byte	0x28
 3344 083c 14       		.uleb128 0x14
 3345 083d 82120000 		.4byte	.LASF231
 3346 0841 09       		.byte	0x9
 3347 0842 44       		.byte	0x44
 3348 0843 6E040000 		.4byte	0x46e
 3349 0847 29       		.byte	0x29
 3350 0848 14       		.uleb128 0x14
 3351 0849 CB1B0000 		.4byte	.LASF232
 3352 084d 09       		.byte	0x9
 3353 084e 45       		.byte	0x45
 3354 084f 6E040000 		.4byte	0x46e
 3355 0853 2A       		.byte	0x2a
 3356 0854 14       		.uleb128 0x14
 3357 0855 C7040000 		.4byte	.LASF233
 3358 0859 09       		.byte	0x9
 3359 085a 46       		.byte	0x46
 3360 085b 6E040000 		.4byte	0x46e
 3361 085f 2B       		.byte	0x2b
 3362 0860 14       		.uleb128 0x14
 3363 0861 681F0000 		.4byte	.LASF234
 3364 0865 09       		.byte	0x9
 3365 0866 47       		.byte	0x47
 3366 0867 6E040000 		.4byte	0x46e
 3367 086b 2C       		.byte	0x2c
 3368 086c 14       		.uleb128 0x14
 3369 086d CA230000 		.4byte	.LASF235
 3370 0871 09       		.byte	0x9
 3371 0872 48       		.byte	0x48
 3372 0873 6E040000 		.4byte	0x46e
 3373 0877 2D       		.byte	0x2d
 3374 0878 14       		.uleb128 0x14
 3375 0879 35110000 		.4byte	.LASF236
 3376 087d 09       		.byte	0x9
 3377 087e 49       		.byte	0x49
 3378 087f 6E040000 		.4byte	0x46e
 3379 0883 2E       		.byte	0x2e
 3380 0884 14       		.uleb128 0x14
 3381 0885 491D0000 		.4byte	.LASF237
 3382 0889 09       		.byte	0x9
 3383 088a 4A       		.byte	0x4a
 3384 088b 6E040000 		.4byte	0x46e
 3385 088f 2F       		.byte	0x2f
 3386 0890 14       		.uleb128 0x14
 3387 0891 351D0000 		.4byte	.LASF238
 3388 0895 09       		.byte	0x9
 3389 0896 4B       		.byte	0x4b
 3390 0897 6E040000 		.4byte	0x46e
 3391 089b 30       		.byte	0x30
 3392 089c 14       		.uleb128 0x14
 3393 089d 93130000 		.4byte	.LASF239
 3394 08a1 09       		.byte	0x9
ARM GAS  C:\Users\Mathieu\AppData\Local\Temp\ccqdbTbw.s 			page 134


 3395 08a2 4E       		.byte	0x4e
 3396 08a3 6E040000 		.4byte	0x46e
 3397 08a7 31       		.byte	0x31
 3398 08a8 14       		.uleb128 0x14
 3399 08a9 51220000 		.4byte	.LASF240
 3400 08ad 09       		.byte	0x9
 3401 08ae 4F       		.byte	0x4f
 3402 08af 6E040000 		.4byte	0x46e
 3403 08b3 32       		.byte	0x32
 3404 08b4 14       		.uleb128 0x14
 3405 08b5 A71A0000 		.4byte	.LASF241
 3406 08b9 09       		.byte	0x9
 3407 08ba 50       		.byte	0x50
 3408 08bb 6E040000 		.4byte	0x46e
 3409 08bf 33       		.byte	0x33
 3410 08c0 14       		.uleb128 0x14
 3411 08c1 2A0E0000 		.4byte	.LASF242
 3412 08c5 09       		.byte	0x9
 3413 08c6 51       		.byte	0x51
 3414 08c7 6E040000 		.4byte	0x46e
 3415 08cb 34       		.byte	0x34
 3416 08cc 14       		.uleb128 0x14
 3417 08cd B60A0000 		.4byte	.LASF243
 3418 08d1 09       		.byte	0x9
 3419 08d2 52       		.byte	0x52
 3420 08d3 79040000 		.4byte	0x479
 3421 08d7 36       		.byte	0x36
 3422 08d8 14       		.uleb128 0x14
 3423 08d9 14010000 		.4byte	.LASF244
 3424 08dd 09       		.byte	0x9
 3425 08de 53       		.byte	0x53
 3426 08df 79040000 		.4byte	0x479
 3427 08e3 38       		.byte	0x38
 3428 08e4 14       		.uleb128 0x14
 3429 08e5 750D0000 		.4byte	.LASF245
 3430 08e9 09       		.byte	0x9
 3431 08ea 54       		.byte	0x54
 3432 08eb 79040000 		.4byte	0x479
 3433 08ef 3A       		.byte	0x3a
 3434 08f0 14       		.uleb128 0x14
 3435 08f1 560D0000 		.4byte	.LASF246
 3436 08f5 09       		.byte	0x9
 3437 08f6 55       		.byte	0x55
 3438 08f7 6E040000 		.4byte	0x46e
 3439 08fb 3C       		.byte	0x3c
 3440 08fc 14       		.uleb128 0x14
 3441 08fd E30E0000 		.4byte	.LASF247
 3442 0901 09       		.byte	0x9
 3443 0902 56       		.byte	0x56
 3444 0903 6E040000 		.4byte	0x46e
 3445 0907 3D       		.byte	0x3d
 3446 0908 14       		.uleb128 0x14
 3447 0909 C2020000 		.4byte	.LASF248
 3448 090d 09       		.byte	0x9
 3449 090e 57       		.byte	0x57
 3450 090f 6E040000 		.4byte	0x46e
 3451 0913 3E       		.byte	0x3e
ARM GAS  C:\Users\Mathieu\AppData\Local\Temp\ccqdbTbw.s 			page 135


 3452 0914 14       		.uleb128 0x14
 3453 0915 04070000 		.4byte	.LASF249
 3454 0919 09       		.byte	0x9
 3455 091a 58       		.byte	0x58
 3456 091b 6E040000 		.4byte	0x46e
 3457 091f 3F       		.byte	0x3f
 3458 0920 14       		.uleb128 0x14
 3459 0921 02100000 		.4byte	.LASF250
 3460 0925 09       		.byte	0x9
 3461 0926 59       		.byte	0x59
 3462 0927 6E040000 		.4byte	0x46e
 3463 092b 40       		.byte	0x40
 3464 092c 14       		.uleb128 0x14
 3465 092d 75110000 		.4byte	.LASF251
 3466 0931 09       		.byte	0x9
 3467 0932 5A       		.byte	0x5a
 3468 0933 6E040000 		.4byte	0x46e
 3469 0937 41       		.byte	0x41
 3470 0938 14       		.uleb128 0x14
 3471 0939 A70E0000 		.4byte	.LASF252
 3472 093d 09       		.byte	0x9
 3473 093e 5B       		.byte	0x5b
 3474 093f 6E040000 		.4byte	0x46e
 3475 0943 42       		.byte	0x42
 3476 0944 14       		.uleb128 0x14
 3477 0945 BC050000 		.4byte	.LASF253
 3478 0949 09       		.byte	0x9
 3479 094a 5C       		.byte	0x5c
 3480 094b 6E040000 		.4byte	0x46e
 3481 094f 43       		.byte	0x43
 3482 0950 14       		.uleb128 0x14
 3483 0951 431C0000 		.4byte	.LASF254
 3484 0955 09       		.byte	0x9
 3485 0956 5D       		.byte	0x5d
 3486 0957 6E040000 		.4byte	0x46e
 3487 095b 44       		.byte	0x44
 3488 095c 14       		.uleb128 0x14
 3489 095d 3E0F0000 		.4byte	.LASF255
 3490 0961 09       		.byte	0x9
 3491 0962 5E       		.byte	0x5e
 3492 0963 9A040000 		.4byte	0x49a
 3493 0967 48       		.byte	0x48
 3494 0968 14       		.uleb128 0x14
 3495 0969 F0000000 		.4byte	.LASF256
 3496 096d 09       		.byte	0x9
 3497 096e 5F       		.byte	0x5f
 3498 096f 9A040000 		.4byte	0x49a
 3499 0973 4C       		.byte	0x4c
 3500 0974 14       		.uleb128 0x14
 3501 0975 C6120000 		.4byte	.LASF257
 3502 0979 09       		.byte	0x9
 3503 097a 60       		.byte	0x60
 3504 097b 6E040000 		.4byte	0x46e
 3505 097f 50       		.byte	0x50
 3506 0980 14       		.uleb128 0x14
 3507 0981 04030000 		.4byte	.LASF258
 3508 0985 09       		.byte	0x9
ARM GAS  C:\Users\Mathieu\AppData\Local\Temp\ccqdbTbw.s 			page 136


 3509 0986 61       		.byte	0x61
 3510 0987 6E040000 		.4byte	0x46e
 3511 098b 51       		.byte	0x51
 3512 098c 14       		.uleb128 0x14
 3513 098d 25220000 		.4byte	.LASF259
 3514 0991 09       		.byte	0x9
 3515 0992 62       		.byte	0x62
 3516 0993 6E040000 		.4byte	0x46e
 3517 0997 52       		.byte	0x52
 3518 0998 14       		.uleb128 0x14
 3519 0999 F71E0000 		.4byte	.LASF260
 3520 099d 09       		.byte	0x9
 3521 099e 63       		.byte	0x63
 3522 099f 6E040000 		.4byte	0x46e
 3523 09a3 53       		.byte	0x53
 3524 09a4 14       		.uleb128 0x14
 3525 09a5 68160000 		.4byte	.LASF261
 3526 09a9 09       		.byte	0x9
 3527 09aa 64       		.byte	0x64
 3528 09ab 6E040000 		.4byte	0x46e
 3529 09af 54       		.byte	0x54
 3530 09b0 14       		.uleb128 0x14
 3531 09b1 B6230000 		.4byte	.LASF262
 3532 09b5 09       		.byte	0x9
 3533 09b6 65       		.byte	0x65
 3534 09b7 6E040000 		.4byte	0x46e
 3535 09bb 55       		.byte	0x55
 3536 09bc 14       		.uleb128 0x14
 3537 09bd 3A1E0000 		.4byte	.LASF263
 3538 09c1 09       		.byte	0x9
 3539 09c2 66       		.byte	0x66
 3540 09c3 6E040000 		.4byte	0x46e
 3541 09c7 56       		.byte	0x56
 3542 09c8 14       		.uleb128 0x14
 3543 09c9 CE180000 		.4byte	.LASF264
 3544 09cd 09       		.byte	0x9
 3545 09ce 67       		.byte	0x67
 3546 09cf 6E040000 		.4byte	0x46e
 3547 09d3 57       		.byte	0x57
 3548 09d4 14       		.uleb128 0x14
 3549 09d5 D7120000 		.4byte	.LASF265
 3550 09d9 09       		.byte	0x9
 3551 09da 68       		.byte	0x68
 3552 09db 6E040000 		.4byte	0x46e
 3553 09df 58       		.byte	0x58
 3554 09e0 14       		.uleb128 0x14
 3555 09e1 2F0D0000 		.4byte	.LASF266
 3556 09e5 09       		.byte	0x9
 3557 09e6 69       		.byte	0x69
 3558 09e7 6E040000 		.4byte	0x46e
 3559 09eb 59       		.byte	0x59
 3560 09ec 14       		.uleb128 0x14
 3561 09ed F3230000 		.4byte	.LASF267
 3562 09f1 09       		.byte	0x9
 3563 09f2 6E       		.byte	0x6e
 3564 09f3 84040000 		.4byte	0x484
 3565 09f7 5A       		.byte	0x5a
ARM GAS  C:\Users\Mathieu\AppData\Local\Temp\ccqdbTbw.s 			page 137


 3566 09f8 14       		.uleb128 0x14
 3567 09f9 5E0F0000 		.4byte	.LASF268
 3568 09fd 09       		.byte	0x9
 3569 09fe 6F       		.byte	0x6f
 3570 09ff 84040000 		.4byte	0x484
 3571 0a03 5C       		.byte	0x5c
 3572 0a04 14       		.uleb128 0x14
 3573 0a05 73210000 		.4byte	.LASF269
 3574 0a09 09       		.byte	0x9
 3575 0a0a 70       		.byte	0x70
 3576 0a0b 6E040000 		.4byte	0x46e
 3577 0a0f 5E       		.byte	0x5e
 3578 0a10 14       		.uleb128 0x14
 3579 0a11 FE000000 		.4byte	.LASF270
 3580 0a15 09       		.byte	0x9
 3581 0a16 71       		.byte	0x71
 3582 0a17 6E040000 		.4byte	0x46e
 3583 0a1b 5F       		.byte	0x5f
 3584 0a1c 14       		.uleb128 0x14
 3585 0a1d CC030000 		.4byte	.LASF271
 3586 0a21 09       		.byte	0x9
 3587 0a22 72       		.byte	0x72
 3588 0a23 6E040000 		.4byte	0x46e
 3589 0a27 60       		.byte	0x60
 3590 0a28 14       		.uleb128 0x14
 3591 0a29 49160000 		.4byte	.LASF272
 3592 0a2d 09       		.byte	0x9
 3593 0a2e 73       		.byte	0x73
 3594 0a2f 9A040000 		.4byte	0x49a
 3595 0a33 64       		.byte	0x64
 3596 0a34 14       		.uleb128 0x14
 3597 0a35 AA220000 		.4byte	.LASF273
 3598 0a39 09       		.byte	0x9
 3599 0a3a 76       		.byte	0x76
 3600 0a3b 84040000 		.4byte	0x484
 3601 0a3f 68       		.byte	0x68
 3602 0a40 14       		.uleb128 0x14
 3603 0a41 D4050000 		.4byte	.LASF274
 3604 0a45 09       		.byte	0x9
 3605 0a46 77       		.byte	0x77
 3606 0a47 84040000 		.4byte	0x484
 3607 0a4b 6A       		.byte	0x6a
 3608 0a4c 14       		.uleb128 0x14
 3609 0a4d F70B0000 		.4byte	.LASF275
 3610 0a51 09       		.byte	0x9
 3611 0a52 78       		.byte	0x78
 3612 0a53 84040000 		.4byte	0x484
 3613 0a57 6C       		.byte	0x6c
 3614 0a58 14       		.uleb128 0x14
 3615 0a59 0D060000 		.4byte	.LASF276
 3616 0a5d 09       		.byte	0x9
 3617 0a5e 79       		.byte	0x79
 3618 0a5f 84040000 		.4byte	0x484
 3619 0a63 6E       		.byte	0x6e
 3620 0a64 14       		.uleb128 0x14
 3621 0a65 A21B0000 		.4byte	.LASF277
 3622 0a69 09       		.byte	0x9
ARM GAS  C:\Users\Mathieu\AppData\Local\Temp\ccqdbTbw.s 			page 138


 3623 0a6a 7B       		.byte	0x7b
 3624 0a6b 6E040000 		.4byte	0x46e
 3625 0a6f 70       		.byte	0x70
 3626 0a70 14       		.uleb128 0x14
 3627 0a71 F0100000 		.4byte	.LASF278
 3628 0a75 09       		.byte	0x9
 3629 0a76 7C       		.byte	0x7c
 3630 0a77 6E040000 		.4byte	0x46e
 3631 0a7b 71       		.byte	0x71
 3632 0a7c 14       		.uleb128 0x14
 3633 0a7d 47070000 		.4byte	.LASF279
 3634 0a81 09       		.byte	0x9
 3635 0a82 7D       		.byte	0x7d
 3636 0a83 6E040000 		.4byte	0x46e
 3637 0a87 72       		.byte	0x72
 3638 0a88 14       		.uleb128 0x14
 3639 0a89 3A180000 		.4byte	.LASF280
 3640 0a8d 09       		.byte	0x9
 3641 0a8e 7E       		.byte	0x7e
 3642 0a8f 6E040000 		.4byte	0x46e
 3643 0a93 73       		.byte	0x73
 3644 0a94 14       		.uleb128 0x14
 3645 0a95 F6050000 		.4byte	.LASF281
 3646 0a99 09       		.byte	0x9
 3647 0a9a 80       		.byte	0x80
 3648 0a9b 84040000 		.4byte	0x484
 3649 0a9f 74       		.byte	0x74
 3650 0aa0 14       		.uleb128 0x14
 3651 0aa1 79100000 		.4byte	.LASF282
 3652 0aa5 09       		.byte	0x9
 3653 0aa6 81       		.byte	0x81
 3654 0aa7 84040000 		.4byte	0x484
 3655 0aab 76       		.byte	0x76
 3656 0aac 14       		.uleb128 0x14
 3657 0aad 2B130000 		.4byte	.LASF283
 3658 0ab1 09       		.byte	0x9
 3659 0ab2 82       		.byte	0x82
 3660 0ab3 84040000 		.4byte	0x484
 3661 0ab7 78       		.byte	0x78
 3662 0ab8 14       		.uleb128 0x14
 3663 0ab9 3A020000 		.4byte	.LASF284
 3664 0abd 09       		.byte	0x9
 3665 0abe 83       		.byte	0x83
 3666 0abf 84040000 		.4byte	0x484
 3667 0ac3 7A       		.byte	0x7a
 3668 0ac4 14       		.uleb128 0x14
 3669 0ac5 FF140000 		.4byte	.LASF285
 3670 0ac9 09       		.byte	0x9
 3671 0aca 86       		.byte	0x86
 3672 0acb 6E040000 		.4byte	0x46e
 3673 0acf 7C       		.byte	0x7c
 3674 0ad0 14       		.uleb128 0x14
 3675 0ad1 97020000 		.4byte	.LASF286
 3676 0ad5 09       		.byte	0x9
 3677 0ad6 87       		.byte	0x87
 3678 0ad7 6E040000 		.4byte	0x46e
 3679 0adb 7D       		.byte	0x7d
ARM GAS  C:\Users\Mathieu\AppData\Local\Temp\ccqdbTbw.s 			page 139


 3680 0adc 14       		.uleb128 0x14
 3681 0add 9D040000 		.4byte	.LASF287
 3682 0ae1 09       		.byte	0x9
 3683 0ae2 88       		.byte	0x88
 3684 0ae3 6E040000 		.4byte	0x46e
 3685 0ae7 7E       		.byte	0x7e
 3686 0ae8 14       		.uleb128 0x14
 3687 0ae9 53090000 		.4byte	.LASF288
 3688 0aed 09       		.byte	0x9
 3689 0aee 89       		.byte	0x89
 3690 0aef 6E040000 		.4byte	0x46e
 3691 0af3 7F       		.byte	0x7f
 3692 0af4 14       		.uleb128 0x14
 3693 0af5 741F0000 		.4byte	.LASF289
 3694 0af9 09       		.byte	0x9
 3695 0afa 8A       		.byte	0x8a
 3696 0afb 6E040000 		.4byte	0x46e
 3697 0aff 80       		.byte	0x80
 3698 0b00 14       		.uleb128 0x14
 3699 0b01 D50B0000 		.4byte	.LASF290
 3700 0b05 09       		.byte	0x9
 3701 0b06 8D       		.byte	0x8d
 3702 0b07 9A040000 		.4byte	0x49a
 3703 0b0b 84       		.byte	0x84
 3704 0b0c 14       		.uleb128 0x14
 3705 0b0d 990C0000 		.4byte	.LASF291
 3706 0b11 09       		.byte	0x9
 3707 0b12 8E       		.byte	0x8e
 3708 0b13 9A040000 		.4byte	0x49a
 3709 0b17 88       		.byte	0x88
 3710 0b18 14       		.uleb128 0x14
 3711 0b19 110B0000 		.4byte	.LASF292
 3712 0b1d 09       		.byte	0x9
 3713 0b1e 8F       		.byte	0x8f
 3714 0b1f 9A040000 		.4byte	0x49a
 3715 0b23 8C       		.byte	0x8c
 3716 0b24 14       		.uleb128 0x14
 3717 0b25 37000000 		.4byte	.LASF293
 3718 0b29 09       		.byte	0x9
 3719 0b2a 90       		.byte	0x90
 3720 0b2b 9A040000 		.4byte	0x49a
 3721 0b2f 90       		.byte	0x90
 3722 0b30 14       		.uleb128 0x14
 3723 0b31 ED0C0000 		.4byte	.LASF294
 3724 0b35 09       		.byte	0x9
 3725 0b36 91       		.byte	0x91
 3726 0b37 9A040000 		.4byte	0x49a
 3727 0b3b 94       		.byte	0x94
 3728 0b3c 14       		.uleb128 0x14
 3729 0b3d 6F080000 		.4byte	.LASF295
 3730 0b41 09       		.byte	0x9
 3731 0b42 92       		.byte	0x92
 3732 0b43 9A040000 		.4byte	0x49a
 3733 0b47 98       		.byte	0x98
 3734 0b48 14       		.uleb128 0x14
 3735 0b49 A5080000 		.4byte	.LASF296
 3736 0b4d 09       		.byte	0x9
ARM GAS  C:\Users\Mathieu\AppData\Local\Temp\ccqdbTbw.s 			page 140


 3737 0b4e 93       		.byte	0x93
 3738 0b4f 9A040000 		.4byte	0x49a
 3739 0b53 9C       		.byte	0x9c
 3740 0b54 14       		.uleb128 0x14
 3741 0b55 A9100000 		.4byte	.LASF297
 3742 0b59 09       		.byte	0x9
 3743 0b5a 94       		.byte	0x94
 3744 0b5b 9A040000 		.4byte	0x49a
 3745 0b5f A0       		.byte	0xa0
 3746 0b60 14       		.uleb128 0x14
 3747 0b61 A1180000 		.4byte	.LASF298
 3748 0b65 09       		.byte	0x9
 3749 0b66 95       		.byte	0x95
 3750 0b67 84040000 		.4byte	0x484
 3751 0b6b A4       		.byte	0xa4
 3752 0b6c 14       		.uleb128 0x14
 3753 0b6d 77180000 		.4byte	.LASF299
 3754 0b71 09       		.byte	0x9
 3755 0b72 96       		.byte	0x96
 3756 0b73 84040000 		.4byte	0x484
 3757 0b77 A6       		.byte	0xa6
 3758 0b78 14       		.uleb128 0x14
 3759 0b79 5D070000 		.4byte	.LASF300
 3760 0b7d 09       		.byte	0x9
 3761 0b7e 97       		.byte	0x97
 3762 0b7f 84040000 		.4byte	0x484
 3763 0b83 A8       		.byte	0xa8
 3764 0b84 14       		.uleb128 0x14
 3765 0b85 BF1A0000 		.4byte	.LASF301
 3766 0b89 09       		.byte	0x9
 3767 0b8a 98       		.byte	0x98
 3768 0b8b 84040000 		.4byte	0x484
 3769 0b8f AA       		.byte	0xaa
 3770 0b90 14       		.uleb128 0x14
 3771 0b91 14150000 		.4byte	.LASF302
 3772 0b95 09       		.byte	0x9
 3773 0b96 99       		.byte	0x99
 3774 0b97 84040000 		.4byte	0x484
 3775 0b9b AC       		.byte	0xac
 3776 0b9c 14       		.uleb128 0x14
 3777 0b9d CB0E0000 		.4byte	.LASF303
 3778 0ba1 09       		.byte	0x9
 3779 0ba2 9A       		.byte	0x9a
 3780 0ba3 84040000 		.4byte	0x484
 3781 0ba7 AE       		.byte	0xae
 3782 0ba8 14       		.uleb128 0x14
 3783 0ba9 91220000 		.4byte	.LASF304
 3784 0bad 09       		.byte	0x9
 3785 0bae 9D       		.byte	0x9d
 3786 0baf 84040000 		.4byte	0x484
 3787 0bb3 B0       		.byte	0xb0
 3788 0bb4 14       		.uleb128 0x14
 3789 0bb5 2F0C0000 		.4byte	.LASF305
 3790 0bb9 09       		.byte	0x9
 3791 0bba 9E       		.byte	0x9e
 3792 0bbb 9A040000 		.4byte	0x49a
 3793 0bbf B4       		.byte	0xb4
ARM GAS  C:\Users\Mathieu\AppData\Local\Temp\ccqdbTbw.s 			page 141


 3794 0bc0 00       		.byte	0
 3795 0bc1 06       		.uleb128 0x6
 3796 0bc2 F6110000 		.4byte	.LASF306
 3797 0bc6 09       		.byte	0x9
 3798 0bc7 9F       		.byte	0x9f
 3799 0bc8 B0070000 		.4byte	0x7b0
 3800 0bcc 10       		.uleb128 0x10
 3801 0bcd 1D190000 		.4byte	.LASF307
 3802 0bd1 0A       		.byte	0xa
 3803 0bd2 F601     		.2byte	0x1f6
 3804 0bd4 D80B0000 		.4byte	0xbd8
 3805 0bd8 05       		.uleb128 0x5
 3806 0bd9 01       		.byte	0x1
 3807 0bda 08       		.byte	0x8
 3808 0bdb 1B090000 		.4byte	.LASF308
 3809 0bdf 05       		.uleb128 0x5
 3810 0be0 04       		.byte	0x4
 3811 0be1 04       		.byte	0x4
 3812 0be2 8D130000 		.4byte	.LASF309
 3813 0be6 05       		.uleb128 0x5
 3814 0be7 08       		.byte	0x8
 3815 0be8 04       		.byte	0x4
 3816 0be9 6F120000 		.4byte	.LASF310
 3817 0bed 10       		.uleb128 0x10
 3818 0bee 2F1D0000 		.4byte	.LASF311
 3819 0bf2 0A       		.byte	0xa
 3820 0bf3 EA03     		.2byte	0x3ea
 3821 0bf5 6E040000 		.4byte	0x46e
 3822 0bf9 17       		.uleb128 0x17
 3823 0bfa 04       		.byte	0x4
 3824 0bfb 9A040000 		.4byte	0x49a
 3825 0bff 18       		.uleb128 0x18
 3826 0c00 08       		.byte	0x8
 3827 0c01 0B       		.byte	0xb
 3828 0c02 2D01     		.2byte	0x12d
 3829 0c04 230C0000 		.4byte	0xc23
 3830 0c08 09       		.uleb128 0x9
 3831 0c09 0E050000 		.4byte	.LASF312
 3832 0c0d 0B       		.byte	0xb
 3833 0c0e 2E01     		.2byte	0x12e
 3834 0c10 ED030000 		.4byte	0x3ed
 3835 0c14 00       		.byte	0
 3836 0c15 09       		.uleb128 0x9
 3837 0c16 361C0000 		.4byte	.LASF313
 3838 0c1a 0B       		.byte	0xb
 3839 0c1b 3201     		.2byte	0x132
 3840 0c1d 9A040000 		.4byte	0x49a
 3841 0c21 04       		.byte	0x4
 3842 0c22 00       		.byte	0
 3843 0c23 10       		.uleb128 0x10
 3844 0c24 7B0C0000 		.4byte	.LASF314
 3845 0c28 0B       		.byte	0xb
 3846 0c29 3301     		.2byte	0x133
 3847 0c2b FF0B0000 		.4byte	0xbff
 3848 0c2f 19       		.uleb128 0x19
 3849 0c30 04       		.byte	0x4
 3850 0c31 05       		.uleb128 0x5
ARM GAS  C:\Users\Mathieu\AppData\Local\Temp\ccqdbTbw.s 			page 142


 3851 0c32 01       		.byte	0x1
 3852 0c33 02       		.byte	0x2
 3853 0c34 96080000 		.4byte	.LASF315
 3854 0c38 1A       		.uleb128 0x1a
 3855 0c39 01       		.byte	0x1
 3856 0c3a 0A040000 		.4byte	0x40a
 3857 0c3e 0C       		.byte	0xc
 3858 0c3f 2402     		.2byte	0x224
 3859 0c41 520C0000 		.4byte	0xc52
 3860 0c45 04       		.uleb128 0x4
 3861 0c46 200D0000 		.4byte	.LASF316
 3862 0c4a 00       		.byte	0
 3863 0c4b 04       		.uleb128 0x4
 3864 0c4c 64210000 		.4byte	.LASF317
 3865 0c50 01       		.byte	0x1
 3866 0c51 00       		.byte	0
 3867 0c52 10       		.uleb128 0x10
 3868 0c53 B30E0000 		.4byte	.LASF318
 3869 0c57 0C       		.byte	0xc
 3870 0c58 2702     		.2byte	0x227
 3871 0c5a 380C0000 		.4byte	0xc38
 3872 0c5e 10       		.uleb128 0x10
 3873 0c5f 09160000 		.4byte	.LASF319
 3874 0c63 0C       		.byte	0xc
 3875 0c64 3902     		.2byte	0x239
 3876 0c66 6A0C0000 		.4byte	0xc6a
 3877 0c6a 17       		.uleb128 0x17
 3878 0c6b 04       		.byte	0x4
 3879 0c6c 700C0000 		.4byte	0xc70
 3880 0c70 1B       		.uleb128 0x1b
 3881 0c71 7B0C0000 		.4byte	0xc7b
 3882 0c75 1C       		.uleb128 0x1c
 3883 0c76 9A040000 		.4byte	0x49a
 3884 0c7a 00       		.byte	0
 3885 0c7b 10       		.uleb128 0x10
 3886 0c7c D7230000 		.4byte	.LASF320
 3887 0c80 0C       		.byte	0xc
 3888 0c81 4402     		.2byte	0x244
 3889 0c83 870C0000 		.4byte	0xc87
 3890 0c87 17       		.uleb128 0x17
 3891 0c88 04       		.byte	0x4
 3892 0c89 8D0C0000 		.4byte	0xc8d
 3893 0c8d 1D       		.uleb128 0x1d
 3894 0c8e 520C0000 		.4byte	0xc52
 3895 0c92 9C0C0000 		.4byte	0xc9c
 3896 0c96 1C       		.uleb128 0x1c
 3897 0c97 9A040000 		.4byte	0x49a
 3898 0c9b 00       		.byte	0
 3899 0c9c 1E       		.uleb128 0x1e
 3900 0c9d 94230000 		.4byte	.LASF344
 3901 0ca1 4C       		.byte	0x4c
 3902 0ca2 0C       		.byte	0xc
 3903 0ca3 C302     		.2byte	0x2c3
 3904 0ca5 BB0D0000 		.4byte	0xdbb
 3905 0ca9 09       		.uleb128 0x9
 3906 0caa 16050000 		.4byte	.LASF321
 3907 0cae 0C       		.byte	0xc
ARM GAS  C:\Users\Mathieu\AppData\Local\Temp\ccqdbTbw.s 			page 143


 3908 0caf C602     		.2byte	0x2c6
 3909 0cb1 310C0000 		.4byte	0xc31
 3910 0cb5 00       		.byte	0
 3911 0cb6 09       		.uleb128 0x9
 3912 0cb7 13190000 		.4byte	.LASF322
 3913 0cbb 0C       		.byte	0xc
 3914 0cbc C702     		.2byte	0x2c7
 3915 0cbe 310C0000 		.4byte	0xc31
 3916 0cc2 01       		.byte	0x1
 3917 0cc3 09       		.uleb128 0x9
 3918 0cc4 73020000 		.4byte	.LASF323
 3919 0cc8 0C       		.byte	0xc
 3920 0cc9 C902     		.2byte	0x2c9
 3921 0ccb 78050000 		.4byte	0x578
 3922 0ccf 04       		.byte	0x4
 3923 0cd0 09       		.uleb128 0x9
 3924 0cd1 EA1E0000 		.4byte	.LASF324
 3925 0cd5 0C       		.byte	0xc
 3926 0cd6 CB02     		.2byte	0x2cb
 3927 0cd8 78050000 		.4byte	0x578
 3928 0cdc 08       		.byte	0x8
 3929 0cdd 09       		.uleb128 0x9
 3930 0cde 1C210000 		.4byte	.LASF325
 3931 0ce2 0C       		.byte	0xc
 3932 0ce3 CC02     		.2byte	0x2cc
 3933 0ce5 310C0000 		.4byte	0xc31
 3934 0ce9 0C       		.byte	0xc
 3935 0cea 09       		.uleb128 0x9
 3936 0ceb 44210000 		.4byte	.LASF326
 3937 0cef 0C       		.byte	0xc
 3938 0cf0 CD02     		.2byte	0x2cd
 3939 0cf2 310C0000 		.4byte	0xc31
 3940 0cf6 0D       		.byte	0xd
 3941 0cf7 09       		.uleb128 0x9
 3942 0cf8 E11C0000 		.4byte	.LASF327
 3943 0cfc 0C       		.byte	0xc
 3944 0cfd CF02     		.2byte	0x2cf
 3945 0cff BB0D0000 		.4byte	0xdbb
 3946 0d03 10       		.byte	0x10
 3947 0d04 09       		.uleb128 0x9
 3948 0d05 EA0D0000 		.4byte	.LASF328
 3949 0d09 0C       		.byte	0xc
 3950 0d0a D002     		.2byte	0x2d0
 3951 0d0c 9A040000 		.4byte	0x49a
 3952 0d10 14       		.byte	0x14
 3953 0d11 09       		.uleb128 0x9
 3954 0d12 A71E0000 		.4byte	.LASF329
 3955 0d16 0C       		.byte	0xc
 3956 0d17 D102     		.2byte	0x2d1
 3957 0d19 78050000 		.4byte	0x578
 3958 0d1d 18       		.byte	0x18
 3959 0d1e 09       		.uleb128 0x9
 3960 0d1f E7110000 		.4byte	.LASF330
 3961 0d23 0C       		.byte	0xc
 3962 0d24 D202     		.2byte	0x2d2
 3963 0d26 78050000 		.4byte	0x578
 3964 0d2a 1C       		.byte	0x1c
ARM GAS  C:\Users\Mathieu\AppData\Local\Temp\ccqdbTbw.s 			page 144


 3965 0d2b 09       		.uleb128 0x9
 3966 0d2c 320F0000 		.4byte	.LASF331
 3967 0d30 0C       		.byte	0xc
 3968 0d31 D402     		.2byte	0x2d4
 3969 0d33 78050000 		.4byte	0x578
 3970 0d37 20       		.byte	0x20
 3971 0d38 09       		.uleb128 0x9
 3972 0d39 310B0000 		.4byte	.LASF332
 3973 0d3d 0C       		.byte	0xc
 3974 0d3e D502     		.2byte	0x2d5
 3975 0d40 C10D0000 		.4byte	0xdc1
 3976 0d44 24       		.byte	0x24
 3977 0d45 09       		.uleb128 0x9
 3978 0d46 EA200000 		.4byte	.LASF333
 3979 0d4a 0C       		.byte	0xc
 3980 0d4b D702     		.2byte	0x2d7
 3981 0d4d BB0D0000 		.4byte	0xdbb
 3982 0d51 28       		.byte	0x28
 3983 0d52 09       		.uleb128 0x9
 3984 0d53 DE100000 		.4byte	.LASF334
 3985 0d57 0C       		.byte	0xc
 3986 0d58 D802     		.2byte	0x2d8
 3987 0d5a 9A040000 		.4byte	0x49a
 3988 0d5e 2C       		.byte	0x2c
 3989 0d5f 09       		.uleb128 0x9
 3990 0d60 85070000 		.4byte	.LASF335
 3991 0d64 0C       		.byte	0xc
 3992 0d65 D902     		.2byte	0x2d9
 3993 0d67 78050000 		.4byte	0x578
 3994 0d6b 30       		.byte	0x30
 3995 0d6c 09       		.uleb128 0x9
 3996 0d6d 1E0C0000 		.4byte	.LASF336
 3997 0d71 0C       		.byte	0xc
 3998 0d72 DA02     		.2byte	0x2da
 3999 0d74 78050000 		.4byte	0x578
 4000 0d78 34       		.byte	0x34
 4001 0d79 09       		.uleb128 0x9
 4002 0d7a C6070000 		.4byte	.LASF337
 4003 0d7e 0C       		.byte	0xc
 4004 0d7f DC02     		.2byte	0x2dc
 4005 0d81 BB0D0000 		.4byte	0xdbb
 4006 0d85 38       		.byte	0x38
 4007 0d86 09       		.uleb128 0x9
 4008 0d87 CF150000 		.4byte	.LASF338
 4009 0d8b 0C       		.byte	0xc
 4010 0d8c DD02     		.2byte	0x2dd
 4011 0d8e 9A040000 		.4byte	0x49a
 4012 0d92 3C       		.byte	0x3c
 4013 0d93 09       		.uleb128 0x9
 4014 0d94 FF210000 		.4byte	.LASF339
 4015 0d98 0C       		.byte	0xc
 4016 0d99 DE02     		.2byte	0x2de
 4017 0d9b 78050000 		.4byte	0x578
 4018 0d9f 40       		.byte	0x40
 4019 0da0 09       		.uleb128 0x9
 4020 0da1 3B0E0000 		.4byte	.LASF340
 4021 0da5 0C       		.byte	0xc
ARM GAS  C:\Users\Mathieu\AppData\Local\Temp\ccqdbTbw.s 			page 145


 4022 0da6 E402     		.2byte	0x2e4
 4023 0da8 5E0C0000 		.4byte	0xc5e
 4024 0dac 44       		.byte	0x44
 4025 0dad 09       		.uleb128 0x9
 4026 0dae EE1C0000 		.4byte	.LASF341
 4027 0db2 0C       		.byte	0xc
 4028 0db3 EB02     		.2byte	0x2eb
 4029 0db5 7B0C0000 		.4byte	0xc7b
 4030 0db9 48       		.byte	0x48
 4031 0dba 00       		.byte	0
 4032 0dbb 17       		.uleb128 0x17
 4033 0dbc 04       		.byte	0x4
 4034 0dbd 6E040000 		.4byte	0x46e
 4035 0dc1 0E       		.uleb128 0xe
 4036 0dc2 310C0000 		.4byte	0xc31
 4037 0dc6 10       		.uleb128 0x10
 4038 0dc7 1D080000 		.4byte	.LASF342
 4039 0dcb 0C       		.byte	0xc
 4040 0dcc EE02     		.2byte	0x2ee
 4041 0dce 9C0C0000 		.4byte	0xc9c
 4042 0dd2 10       		.uleb128 0x10
 4043 0dd3 391F0000 		.4byte	.LASF343
 4044 0dd7 0D       		.byte	0xd
 4045 0dd8 F201     		.2byte	0x1f2
 4046 0dda 6A0C0000 		.4byte	0xc6a
 4047 0dde 1E       		.uleb128 0x1e
 4048 0ddf 67090000 		.4byte	.LASF345
 4049 0de3 24       		.byte	0x24
 4050 0de4 0D       		.byte	0xd
 4051 0de5 7402     		.2byte	0x274
 4052 0de7 610E0000 		.4byte	0xe61
 4053 0deb 09       		.uleb128 0x9
 4054 0dec 930E0000 		.4byte	.LASF346
 4055 0df0 0D       		.byte	0xd
 4056 0df1 7702     		.2byte	0x277
 4057 0df3 78050000 		.4byte	0x578
 4058 0df7 00       		.byte	0
 4059 0df8 09       		.uleb128 0x9
 4060 0df9 EA000000 		.4byte	.LASF347
 4061 0dfd 0D       		.byte	0xd
 4062 0dfe 7902     		.2byte	0x279
 4063 0e00 2F0C0000 		.4byte	0xc2f
 4064 0e04 04       		.byte	0x4
 4065 0e05 09       		.uleb128 0x9
 4066 0e06 F6090000 		.4byte	.LASF348
 4067 0e0a 0D       		.byte	0xd
 4068 0e0b 7A02     		.2byte	0x27a
 4069 0e0d 9A040000 		.4byte	0x49a
 4070 0e11 08       		.byte	0x8
 4071 0e12 09       		.uleb128 0x9
 4072 0e13 22130000 		.4byte	.LASF349
 4073 0e17 0D       		.byte	0xd
 4074 0e18 7B02     		.2byte	0x27b
 4075 0e1a 78050000 		.4byte	0x578
 4076 0e1e 0C       		.byte	0xc
 4077 0e1f 09       		.uleb128 0x9
 4078 0e20 3A1A0000 		.4byte	.LASF350
ARM GAS  C:\Users\Mathieu\AppData\Local\Temp\ccqdbTbw.s 			page 146


 4079 0e24 0D       		.byte	0xd
 4080 0e25 7D02     		.2byte	0x27d
 4081 0e27 2F0C0000 		.4byte	0xc2f
 4082 0e2b 10       		.byte	0x10
 4083 0e2c 09       		.uleb128 0x9
 4084 0e2d 20050000 		.4byte	.LASF351
 4085 0e31 0D       		.byte	0xd
 4086 0e32 7E02     		.2byte	0x27e
 4087 0e34 9A040000 		.4byte	0x49a
 4088 0e38 14       		.byte	0x14
 4089 0e39 09       		.uleb128 0x9
 4090 0e3a E9040000 		.4byte	.LASF352
 4091 0e3e 0D       		.byte	0xd
 4092 0e3f 7F02     		.2byte	0x27f
 4093 0e41 78050000 		.4byte	0x578
 4094 0e45 18       		.byte	0x18
 4095 0e46 09       		.uleb128 0x9
 4096 0e47 3B0E0000 		.4byte	.LASF340
 4097 0e4b 0D       		.byte	0xd
 4098 0e4c 8502     		.2byte	0x285
 4099 0e4e D20D0000 		.4byte	0xdd2
 4100 0e52 1C       		.byte	0x1c
 4101 0e53 09       		.uleb128 0x9
 4102 0e54 411D0000 		.4byte	.LASF353
 4103 0e58 0D       		.byte	0xd
 4104 0e59 8802     		.2byte	0x288
 4105 0e5b 9A040000 		.4byte	0x49a
 4106 0e5f 20       		.byte	0x20
 4107 0e60 00       		.byte	0
 4108 0e61 10       		.uleb128 0x10
 4109 0e62 551D0000 		.4byte	.LASF354
 4110 0e66 0D       		.byte	0xd
 4111 0e67 8B02     		.2byte	0x28b
 4112 0e69 DE0D0000 		.4byte	0xdde
 4113 0e6d 10       		.uleb128 0x10
 4114 0e6e 75170000 		.4byte	.LASF355
 4115 0e72 0E       		.byte	0xe
 4116 0e73 D901     		.2byte	0x1d9
 4117 0e75 6A0C0000 		.4byte	0xc6a
 4118 0e79 1E       		.uleb128 0x1e
 4119 0e7a 7C000000 		.4byte	.LASF356
 4120 0e7e 38       		.byte	0x38
 4121 0e7f 0E       		.byte	0xe
 4122 0e80 7502     		.2byte	0x275
 4123 0e82 3D0F0000 		.4byte	0xf3d
 4124 0e86 09       		.uleb128 0x9
 4125 0e87 CC010000 		.4byte	.LASF357
 4126 0e8b 0E       		.byte	0xe
 4127 0e8c 7802     		.2byte	0x278
 4128 0e8e 78050000 		.4byte	0x578
 4129 0e92 00       		.byte	0
 4130 0e93 09       		.uleb128 0x9
 4131 0e94 D01C0000 		.4byte	.LASF358
 4132 0e98 0E       		.byte	0xe
 4133 0e99 7902     		.2byte	0x279
 4134 0e9b 78050000 		.4byte	0x578
 4135 0e9f 04       		.byte	0x4
ARM GAS  C:\Users\Mathieu\AppData\Local\Temp\ccqdbTbw.s 			page 147


 4136 0ea0 09       		.uleb128 0x9
 4137 0ea1 8A230000 		.4byte	.LASF359
 4138 0ea5 0E       		.byte	0xe
 4139 0ea6 7B02     		.2byte	0x27b
 4140 0ea8 2F0C0000 		.4byte	0xc2f
 4141 0eac 08       		.byte	0x8
 4142 0ead 09       		.uleb128 0x9
 4143 0eae 5A160000 		.4byte	.LASF360
 4144 0eb2 0E       		.byte	0xe
 4145 0eb3 7C02     		.2byte	0x27c
 4146 0eb5 9A040000 		.4byte	0x49a
 4147 0eb9 0C       		.byte	0xc
 4148 0eba 09       		.uleb128 0x9
 4149 0ebb 500F0000 		.4byte	.LASF361
 4150 0ebf 0E       		.byte	0xe
 4151 0ec0 7D02     		.2byte	0x27d
 4152 0ec2 78050000 		.4byte	0x578
 4153 0ec6 10       		.byte	0x10
 4154 0ec7 09       		.uleb128 0x9
 4155 0ec8 31230000 		.4byte	.LASF362
 4156 0ecc 0E       		.byte	0xe
 4157 0ecd 7E02     		.2byte	0x27e
 4158 0ecf 78050000 		.4byte	0x578
 4159 0ed3 14       		.byte	0x14
 4160 0ed4 09       		.uleb128 0x9
 4161 0ed5 EA000000 		.4byte	.LASF347
 4162 0ed9 0E       		.byte	0xe
 4163 0eda 8002     		.2byte	0x280
 4164 0edc 2F0C0000 		.4byte	0xc2f
 4165 0ee0 18       		.byte	0x18
 4166 0ee1 09       		.uleb128 0x9
 4167 0ee2 F6090000 		.4byte	.LASF348
 4168 0ee6 0E       		.byte	0xe
 4169 0ee7 8102     		.2byte	0x281
 4170 0ee9 9A040000 		.4byte	0x49a
 4171 0eed 1C       		.byte	0x1c
 4172 0eee 09       		.uleb128 0x9
 4173 0eef 22130000 		.4byte	.LASF349
 4174 0ef3 0E       		.byte	0xe
 4175 0ef4 8202     		.2byte	0x282
 4176 0ef6 78050000 		.4byte	0x578
 4177 0efa 20       		.byte	0x20
 4178 0efb 09       		.uleb128 0x9
 4179 0efc 3A1A0000 		.4byte	.LASF350
 4180 0f00 0E       		.byte	0xe
 4181 0f01 8402     		.2byte	0x284
 4182 0f03 2F0C0000 		.4byte	0xc2f
 4183 0f07 24       		.byte	0x24
 4184 0f08 09       		.uleb128 0x9
 4185 0f09 20050000 		.4byte	.LASF351
 4186 0f0d 0E       		.byte	0xe
 4187 0f0e 8502     		.2byte	0x285
 4188 0f10 9A040000 		.4byte	0x49a
 4189 0f14 28       		.byte	0x28
 4190 0f15 09       		.uleb128 0x9
 4191 0f16 B0170000 		.4byte	.LASF363
 4192 0f1a 0E       		.byte	0xe
ARM GAS  C:\Users\Mathieu\AppData\Local\Temp\ccqdbTbw.s 			page 148


 4193 0f1b 8602     		.2byte	0x286
 4194 0f1d 78050000 		.4byte	0x578
 4195 0f21 2C       		.byte	0x2c
 4196 0f22 09       		.uleb128 0x9
 4197 0f23 3B0E0000 		.4byte	.LASF340
 4198 0f27 0E       		.byte	0xe
 4199 0f28 8B02     		.2byte	0x28b
 4200 0f2a 6D0E0000 		.4byte	0xe6d
 4201 0f2e 30       		.byte	0x30
 4202 0f2f 09       		.uleb128 0x9
 4203 0f30 411D0000 		.4byte	.LASF353
 4204 0f34 0E       		.byte	0xe
 4205 0f35 8E02     		.2byte	0x28e
 4206 0f37 9A040000 		.4byte	0x49a
 4207 0f3b 34       		.byte	0x34
 4208 0f3c 00       		.byte	0
 4209 0f3d 10       		.uleb128 0x10
 4210 0f3e DE060000 		.4byte	.LASF364
 4211 0f42 0E       		.byte	0xe
 4212 0f43 9102     		.2byte	0x291
 4213 0f45 790E0000 		.4byte	0xe79
 4214 0f49 1F       		.uleb128 0x1f
 4215 0f4a D90F0000 		.4byte	.LASF365
 4216 0f4e 4C       		.byte	0x4c
 4217 0f4f 0F       		.byte	0xf
 4218 0f50 2F       		.byte	0x2f
 4219 0f51 3A100000 		.4byte	0x103a
 4220 0f55 14       		.uleb128 0x14
 4221 0f56 CD1A0000 		.4byte	.LASF366
 4222 0f5a 0F       		.byte	0xf
 4223 0f5b 31       		.byte	0x31
 4224 0f5c 9A040000 		.4byte	0x49a
 4225 0f60 00       		.byte	0
 4226 0f61 14       		.uleb128 0x14
 4227 0f62 510A0000 		.4byte	.LASF367
 4228 0f66 0F       		.byte	0xf
 4229 0f67 33       		.byte	0x33
 4230 0f68 9A040000 		.4byte	0x49a
 4231 0f6c 04       		.byte	0x4
 4232 0f6d 14       		.uleb128 0x14
 4233 0f6e A5090000 		.4byte	.LASF368
 4234 0f72 0F       		.byte	0xf
 4235 0f73 34       		.byte	0x34
 4236 0f74 9A040000 		.4byte	0x49a
 4237 0f78 08       		.byte	0x8
 4238 0f79 14       		.uleb128 0x14
 4239 0f7a C0150000 		.4byte	.LASF369
 4240 0f7e 0F       		.byte	0xf
 4241 0f7f 35       		.byte	0x35
 4242 0f80 9A040000 		.4byte	0x49a
 4243 0f84 0C       		.byte	0xc
 4244 0f85 14       		.uleb128 0x14
 4245 0f86 D9200000 		.4byte	.LASF370
 4246 0f8a 0F       		.byte	0xf
 4247 0f8b 37       		.byte	0x37
 4248 0f8c 9A040000 		.4byte	0x49a
 4249 0f90 10       		.byte	0x10
ARM GAS  C:\Users\Mathieu\AppData\Local\Temp\ccqdbTbw.s 			page 149


 4250 0f91 14       		.uleb128 0x14
 4251 0f92 B0020000 		.4byte	.LASF371
 4252 0f96 0F       		.byte	0xf
 4253 0f97 38       		.byte	0x38
 4254 0f98 9A040000 		.4byte	0x49a
 4255 0f9c 14       		.byte	0x14
 4256 0f9d 14       		.uleb128 0x14
 4257 0f9e B9020000 		.4byte	.LASF372
 4258 0fa2 0F       		.byte	0xf
 4259 0fa3 39       		.byte	0x39
 4260 0fa4 9A040000 		.4byte	0x49a
 4261 0fa8 18       		.byte	0x18
 4262 0fa9 14       		.uleb128 0x14
 4263 0faa DB140000 		.4byte	.LASF373
 4264 0fae 0F       		.byte	0xf
 4265 0faf 3A       		.byte	0x3a
 4266 0fb0 310C0000 		.4byte	0xc31
 4267 0fb4 1C       		.byte	0x1c
 4268 0fb5 14       		.uleb128 0x14
 4269 0fb6 BF100000 		.4byte	.LASF374
 4270 0fba 0F       		.byte	0xf
 4271 0fbb 3C       		.byte	0x3c
 4272 0fbc 9A040000 		.4byte	0x49a
 4273 0fc0 20       		.byte	0x20
 4274 0fc1 14       		.uleb128 0x14
 4275 0fc2 D9000000 		.4byte	.LASF375
 4276 0fc6 0F       		.byte	0xf
 4277 0fc7 3D       		.byte	0x3d
 4278 0fc8 9A040000 		.4byte	0x49a
 4279 0fcc 24       		.byte	0x24
 4280 0fcd 14       		.uleb128 0x14
 4281 0fce 09000000 		.4byte	.LASF376
 4282 0fd2 0F       		.byte	0xf
 4283 0fd3 3F       		.byte	0x3f
 4284 0fd4 9A040000 		.4byte	0x49a
 4285 0fd8 28       		.byte	0x28
 4286 0fd9 14       		.uleb128 0x14
 4287 0fda E6050000 		.4byte	.LASF377
 4288 0fde 0F       		.byte	0xf
 4289 0fdf 40       		.byte	0x40
 4290 0fe0 9A040000 		.4byte	0x49a
 4291 0fe4 2C       		.byte	0x2c
 4292 0fe5 14       		.uleb128 0x14
 4293 0fe6 03230000 		.4byte	.LASF378
 4294 0fea 0F       		.byte	0xf
 4295 0feb 42       		.byte	0x42
 4296 0fec 9A040000 		.4byte	0x49a
 4297 0ff0 30       		.byte	0x30
 4298 0ff1 14       		.uleb128 0x14
 4299 0ff2 C11C0000 		.4byte	.LASF379
 4300 0ff6 0F       		.byte	0xf
 4301 0ff7 43       		.byte	0x43
 4302 0ff8 9A040000 		.4byte	0x49a
 4303 0ffc 34       		.byte	0x34
 4304 0ffd 14       		.uleb128 0x14
 4305 0ffe AB230000 		.4byte	.LASF380
 4306 1002 0F       		.byte	0xf
ARM GAS  C:\Users\Mathieu\AppData\Local\Temp\ccqdbTbw.s 			page 150


 4307 1003 45       		.byte	0x45
 4308 1004 9A040000 		.4byte	0x49a
 4309 1008 38       		.byte	0x38
 4310 1009 14       		.uleb128 0x14
 4311 100a A8120000 		.4byte	.LASF381
 4312 100e 0F       		.byte	0xf
 4313 100f 46       		.byte	0x46
 4314 1010 9A040000 		.4byte	0x49a
 4315 1014 3C       		.byte	0x3c
 4316 1015 14       		.uleb128 0x14
 4317 1016 B6210000 		.4byte	.LASF382
 4318 101a 0F       		.byte	0xf
 4319 101b 48       		.byte	0x48
 4320 101c 9A040000 		.4byte	0x49a
 4321 1020 40       		.byte	0x40
 4322 1021 14       		.uleb128 0x14
 4323 1022 B8030000 		.4byte	.LASF383
 4324 1026 0F       		.byte	0xf
 4325 1027 49       		.byte	0x49
 4326 1028 9A040000 		.4byte	0x49a
 4327 102c 44       		.byte	0x44
 4328 102d 14       		.uleb128 0x14
 4329 102e 22150000 		.4byte	.LASF384
 4330 1032 0F       		.byte	0xf
 4331 1033 4B       		.byte	0x4b
 4332 1034 9A040000 		.4byte	0x49a
 4333 1038 48       		.byte	0x48
 4334 1039 00       		.byte	0
 4335 103a 06       		.uleb128 0x6
 4336 103b 1B1F0000 		.4byte	.LASF385
 4337 103f 0F       		.byte	0xf
 4338 1040 4C       		.byte	0x4c
 4339 1041 490F0000 		.4byte	0xf49
 4340 1045 17       		.uleb128 0x17
 4341 1046 04       		.byte	0x4
 4342 1047 91070000 		.4byte	0x791
 4343 104b 17       		.uleb128 0x17
 4344 104c 04       		.byte	0x4
 4345 104d 51100000 		.4byte	0x1051
 4346 1051 20       		.uleb128 0x20
 4347 1052 17       		.uleb128 0x17
 4348 1053 04       		.byte	0x4
 4349 1054 58100000 		.4byte	0x1058
 4350 1058 11       		.uleb128 0x11
 4351 1059 0A040000 		.4byte	0x40a
 4352 105d 17       		.uleb128 0x17
 4353 105e 04       		.byte	0x4
 4354 105f 63100000 		.4byte	0x1063
 4355 1063 11       		.uleb128 0x11
 4356 1064 D80B0000 		.4byte	0xbd8
 4357 1068 12       		.uleb128 0x12
 4358 1069 04       		.byte	0x4
 4359 106a 10       		.byte	0x10
 4360 106b B6       		.byte	0xb6
 4361 106c 87100000 		.4byte	0x1087
 4362 1070 13       		.uleb128 0x13
 4363 1071 633000   		.ascii	"c0\000"
ARM GAS  C:\Users\Mathieu\AppData\Local\Temp\ccqdbTbw.s 			page 151


 4364 1074 10       		.byte	0x10
 4365 1075 B7       		.byte	0xb7
 4366 1076 E6030000 		.4byte	0x3e6
 4367 107a 00       		.byte	0
 4368 107b 13       		.uleb128 0x13
 4369 107c 633100   		.ascii	"c1\000"
 4370 107f 10       		.byte	0x10
 4371 1080 B8       		.byte	0xb8
 4372 1081 E6030000 		.4byte	0x3e6
 4373 1085 02       		.byte	0x2
 4374 1086 00       		.byte	0
 4375 1087 06       		.uleb128 0x6
 4376 1088 0B0C0000 		.4byte	.LASF386
 4377 108c 10       		.byte	0x10
 4378 108d B9       		.byte	0xb9
 4379 108e 68100000 		.4byte	0x1068
 4380 1092 12       		.uleb128 0x12
 4381 1093 08       		.byte	0x8
 4382 1094 10       		.byte	0x10
 4383 1095 BB       		.byte	0xbb
 4384 1096 BF100000 		.4byte	0x10bf
 4385 109a 14       		.uleb128 0x14
 4386 109b 410B0000 		.4byte	.LASF387
 4387 109f 10       		.byte	0x10
 4388 10a0 BC       		.byte	0xbc
 4389 10a1 27040000 		.4byte	0x427
 4390 10a5 00       		.byte	0
 4391 10a6 14       		.uleb128 0x14
 4392 10a7 14080000 		.4byte	.LASF388
 4393 10ab 10       		.byte	0x10
 4394 10ac BD       		.byte	0xbd
 4395 10ad 27040000 		.4byte	0x427
 4396 10b1 02       		.byte	0x2
 4397 10b2 14       		.uleb128 0x14
 4398 10b3 60150000 		.4byte	.LASF389
 4399 10b7 10       		.byte	0x10
 4400 10b8 BE       		.byte	0xbe
 4401 10b9 BF100000 		.4byte	0x10bf
 4402 10bd 04       		.byte	0x4
 4403 10be 00       		.byte	0
 4404 10bf 17       		.uleb128 0x17
 4405 10c0 04       		.byte	0x4
 4406 10c1 C5100000 		.4byte	0x10c5
 4407 10c5 11       		.uleb128 0x11
 4408 10c6 87100000 		.4byte	0x1087
 4409 10ca 06       		.uleb128 0x6
 4410 10cb D70D0000 		.4byte	.LASF390
 4411 10cf 10       		.byte	0x10
 4412 10d0 BF       		.byte	0xbf
 4413 10d1 92100000 		.4byte	0x1092
 4414 10d5 12       		.uleb128 0x12
 4415 10d6 08       		.byte	0x8
 4416 10d7 10       		.byte	0x10
 4417 10d8 C1       		.byte	0xc1
 4418 10d9 0E110000 		.4byte	0x110e
 4419 10dd 14       		.uleb128 0x14
 4420 10de 89020000 		.4byte	.LASF391
ARM GAS  C:\Users\Mathieu\AppData\Local\Temp\ccqdbTbw.s 			page 152


 4421 10e2 10       		.byte	0x10
 4422 10e3 C2       		.byte	0xc2
 4423 10e4 0A040000 		.4byte	0x40a
 4424 10e8 00       		.byte	0
 4425 10e9 14       		.uleb128 0x14
 4426 10ea 7E090000 		.4byte	.LASF392
 4427 10ee 10       		.byte	0x10
 4428 10ef C3       		.byte	0xc3
 4429 10f0 0A040000 		.4byte	0x40a
 4430 10f4 01       		.byte	0x1
 4431 10f5 14       		.uleb128 0x14
 4432 10f6 BA220000 		.4byte	.LASF393
 4433 10fa 10       		.byte	0x10
 4434 10fb C4       		.byte	0xc4
 4435 10fc 0A040000 		.4byte	0x40a
 4436 1100 02       		.byte	0x2
 4437 1101 14       		.uleb128 0x14
 4438 1102 5A230000 		.4byte	.LASF394
 4439 1106 10       		.byte	0x10
 4440 1107 C5       		.byte	0xc5
 4441 1108 52100000 		.4byte	0x1052
 4442 110c 04       		.byte	0x4
 4443 110d 00       		.byte	0
 4444 110e 06       		.uleb128 0x6
 4445 110f 9A0E0000 		.4byte	.LASF395
 4446 1113 10       		.byte	0x10
 4447 1114 C6       		.byte	0xc6
 4448 1115 D5100000 		.4byte	0x10d5
 4449 1119 12       		.uleb128 0x12
 4450 111a 0C       		.byte	0xc
 4451 111b 10       		.byte	0x10
 4452 111c C8       		.byte	0xc8
 4453 111d 6A110000 		.4byte	0x116a
 4454 1121 14       		.uleb128 0x14
 4455 1122 89020000 		.4byte	.LASF391
 4456 1126 10       		.byte	0x10
 4457 1127 C9       		.byte	0xc9
 4458 1128 0A040000 		.4byte	0x40a
 4459 112c 00       		.byte	0
 4460 112d 14       		.uleb128 0x14
 4461 112e 5E210000 		.4byte	.LASF396
 4462 1132 10       		.byte	0x10
 4463 1133 CA       		.byte	0xca
 4464 1134 0A040000 		.4byte	0x40a
 4465 1138 01       		.byte	0x1
 4466 1139 14       		.uleb128 0x14
 4467 113a 060C0000 		.4byte	.LASF397
 4468 113e 10       		.byte	0x10
 4469 113f CB       		.byte	0xcb
 4470 1140 F8030000 		.4byte	0x3f8
 4471 1144 02       		.byte	0x2
 4472 1145 14       		.uleb128 0x14
 4473 1146 A0090000 		.4byte	.LASF398
 4474 114a 10       		.byte	0x10
 4475 114b CC       		.byte	0xcc
 4476 114c F8030000 		.4byte	0x3f8
 4477 1150 03       		.byte	0x3
ARM GAS  C:\Users\Mathieu\AppData\Local\Temp\ccqdbTbw.s 			page 153


 4478 1151 14       		.uleb128 0x14
 4479 1152 7E090000 		.4byte	.LASF392
 4480 1156 10       		.byte	0x10
 4481 1157 CD       		.byte	0xcd
 4482 1158 0A040000 		.4byte	0x40a
 4483 115c 04       		.byte	0x4
 4484 115d 14       		.uleb128 0x14
 4485 115e 5A230000 		.4byte	.LASF394
 4486 1162 10       		.byte	0x10
 4487 1163 CE       		.byte	0xce
 4488 1164 52100000 		.4byte	0x1052
 4489 1168 08       		.byte	0x8
 4490 1169 00       		.byte	0
 4491 116a 06       		.uleb128 0x6
 4492 116b 1C0A0000 		.4byte	.LASF399
 4493 116f 10       		.byte	0x10
 4494 1170 CF       		.byte	0xcf
 4495 1171 19110000 		.4byte	0x1119
 4496 1175 1F       		.uleb128 0x1f
 4497 1176 0E1B0000 		.4byte	.LASF400
 4498 117a 0C       		.byte	0xc
 4499 117b 10       		.byte	0x10
 4500 117c D1       		.byte	0xd1
 4501 117d B2110000 		.4byte	0x11b2
 4502 1181 14       		.uleb128 0x14
 4503 1182 B9140000 		.4byte	.LASF401
 4504 1186 10       		.byte	0x10
 4505 1187 D2       		.byte	0xd2
 4506 1188 27040000 		.4byte	0x427
 4507 118c 00       		.byte	0
 4508 118d 14       		.uleb128 0x14
 4509 118e F21D0000 		.4byte	.LASF402
 4510 1192 10       		.byte	0x10
 4511 1193 D3       		.byte	0xd3
 4512 1194 27040000 		.4byte	0x427
 4513 1198 02       		.byte	0x2
 4514 1199 14       		.uleb128 0x14
 4515 119a 7E060000 		.4byte	.LASF403
 4516 119e 10       		.byte	0x10
 4517 119f D4       		.byte	0xd4
 4518 11a0 B2110000 		.4byte	0x11b2
 4519 11a4 04       		.byte	0x4
 4520 11a5 14       		.uleb128 0x14
 4521 11a6 F0090000 		.4byte	.LASF404
 4522 11aa 10       		.byte	0x10
 4523 11ab D5       		.byte	0xd5
 4524 11ac BD110000 		.4byte	0x11bd
 4525 11b0 08       		.byte	0x8
 4526 11b1 00       		.byte	0
 4527 11b2 17       		.uleb128 0x17
 4528 11b3 04       		.byte	0x4
 4529 11b4 B8110000 		.4byte	0x11b8
 4530 11b8 11       		.uleb128 0x11
 4531 11b9 0E110000 		.4byte	0x110e
 4532 11bd 17       		.uleb128 0x17
 4533 11be 04       		.byte	0x4
 4534 11bf C3110000 		.4byte	0x11c3
ARM GAS  C:\Users\Mathieu\AppData\Local\Temp\ccqdbTbw.s 			page 154


 4535 11c3 11       		.uleb128 0x11
 4536 11c4 75110000 		.4byte	0x1175
 4537 11c8 06       		.uleb128 0x6
 4538 11c9 0E1B0000 		.4byte	.LASF400
 4539 11cd 10       		.byte	0x10
 4540 11ce D6       		.byte	0xd6
 4541 11cf 75110000 		.4byte	0x1175
 4542 11d3 1F       		.uleb128 0x1f
 4543 11d4 6A000000 		.4byte	.LASF405
 4544 11d8 0C       		.byte	0xc
 4545 11d9 10       		.byte	0x10
 4546 11da D8       		.byte	0xd8
 4547 11db 10120000 		.4byte	0x1210
 4548 11df 14       		.uleb128 0x14
 4549 11e0 B9140000 		.4byte	.LASF401
 4550 11e4 10       		.byte	0x10
 4551 11e5 D9       		.byte	0xd9
 4552 11e6 27040000 		.4byte	0x427
 4553 11ea 00       		.byte	0
 4554 11eb 14       		.uleb128 0x14
 4555 11ec F21D0000 		.4byte	.LASF402
 4556 11f0 10       		.byte	0x10
 4557 11f1 DA       		.byte	0xda
 4558 11f2 27040000 		.4byte	0x427
 4559 11f6 02       		.byte	0x2
 4560 11f7 14       		.uleb128 0x14
 4561 11f8 7E060000 		.4byte	.LASF403
 4562 11fc 10       		.byte	0x10
 4563 11fd DB       		.byte	0xdb
 4564 11fe 10120000 		.4byte	0x1210
 4565 1202 04       		.byte	0x4
 4566 1203 14       		.uleb128 0x14
 4567 1204 F0090000 		.4byte	.LASF404
 4568 1208 10       		.byte	0x10
 4569 1209 DC       		.byte	0xdc
 4570 120a 1B120000 		.4byte	0x121b
 4571 120e 08       		.byte	0x8
 4572 120f 00       		.byte	0
 4573 1210 17       		.uleb128 0x17
 4574 1211 04       		.byte	0x4
 4575 1212 16120000 		.4byte	0x1216
 4576 1216 11       		.uleb128 0x11
 4577 1217 6A110000 		.4byte	0x116a
 4578 121b 17       		.uleb128 0x17
 4579 121c 04       		.byte	0x4
 4580 121d 21120000 		.4byte	0x1221
 4581 1221 11       		.uleb128 0x11
 4582 1222 D3110000 		.4byte	0x11d3
 4583 1226 06       		.uleb128 0x6
 4584 1227 6A000000 		.4byte	.LASF405
 4585 122b 10       		.byte	0x10
 4586 122c DD       		.byte	0xdd
 4587 122d D3110000 		.4byte	0x11d3
 4588 1231 12       		.uleb128 0x12
 4589 1232 14       		.byte	0x14
 4590 1233 10       		.byte	0x10
 4591 1234 DF       		.byte	0xdf
ARM GAS  C:\Users\Mathieu\AppData\Local\Temp\ccqdbTbw.s 			page 155


 4592 1235 9A120000 		.4byte	0x129a
 4593 1239 14       		.uleb128 0x14
 4594 123a 5A230000 		.4byte	.LASF394
 4595 123e 10       		.byte	0x10
 4596 123f E0       		.byte	0xe0
 4597 1240 52100000 		.4byte	0x1052
 4598 1244 00       		.byte	0
 4599 1245 14       		.uleb128 0x14
 4600 1246 D3210000 		.4byte	.LASF406
 4601 124a 10       		.byte	0x10
 4602 124b E1       		.byte	0xe1
 4603 124c 52100000 		.4byte	0x1052
 4604 1250 04       		.byte	0x4
 4605 1251 14       		.uleb128 0x14
 4606 1252 B31A0000 		.4byte	.LASF407
 4607 1256 10       		.byte	0x10
 4608 1257 E2       		.byte	0xe2
 4609 1258 9A120000 		.4byte	0x129a
 4610 125c 08       		.byte	0x8
 4611 125d 14       		.uleb128 0x14
 4612 125e 410B0000 		.4byte	.LASF387
 4613 1262 10       		.byte	0x10
 4614 1263 E3       		.byte	0xe3
 4615 1264 27040000 		.4byte	0x427
 4616 1268 0C       		.byte	0xc
 4617 1269 14       		.uleb128 0x14
 4618 126a 14080000 		.4byte	.LASF388
 4619 126e 10       		.byte	0x10
 4620 126f E4       		.byte	0xe4
 4621 1270 27040000 		.4byte	0x427
 4622 1274 0E       		.byte	0xe
 4623 1275 14       		.uleb128 0x14
 4624 1276 89020000 		.4byte	.LASF391
 4625 127a 10       		.byte	0x10
 4626 127b E5       		.byte	0xe5
 4627 127c 0A040000 		.4byte	0x40a
 4628 1280 10       		.byte	0x10
 4629 1281 14       		.uleb128 0x14
 4630 1282 7E090000 		.4byte	.LASF392
 4631 1286 10       		.byte	0x10
 4632 1287 E6       		.byte	0xe6
 4633 1288 0A040000 		.4byte	0x40a
 4634 128c 11       		.byte	0x11
 4635 128d 14       		.uleb128 0x14
 4636 128e BA220000 		.4byte	.LASF393
 4637 1292 10       		.byte	0x10
 4638 1293 E7       		.byte	0xe7
 4639 1294 0A040000 		.4byte	0x40a
 4640 1298 12       		.byte	0x12
 4641 1299 00       		.byte	0
 4642 129a 17       		.uleb128 0x17
 4643 129b 04       		.byte	0x4
 4644 129c A0120000 		.4byte	0x12a0
 4645 12a0 11       		.uleb128 0x11
 4646 12a1 CA100000 		.4byte	0x10ca
 4647 12a5 06       		.uleb128 0x6
 4648 12a6 52150000 		.4byte	.LASF408
ARM GAS  C:\Users\Mathieu\AppData\Local\Temp\ccqdbTbw.s 			page 156


 4649 12aa 10       		.byte	0x10
 4650 12ab E8       		.byte	0xe8
 4651 12ac 31120000 		.4byte	0x1231
 4652 12b0 12       		.uleb128 0x12
 4653 12b1 06       		.byte	0x6
 4654 12b2 10       		.byte	0x10
 4655 12b3 F1       		.byte	0xf1
 4656 12b4 E9120000 		.4byte	0x12e9
 4657 12b8 14       		.uleb128 0x14
 4658 12b9 FA080000 		.4byte	.LASF409
 4659 12bd 10       		.byte	0x10
 4660 12be F2       		.byte	0xf2
 4661 12bf 27040000 		.4byte	0x427
 4662 12c3 00       		.byte	0
 4663 12c4 14       		.uleb128 0x14
 4664 12c5 2F200000 		.4byte	.LASF410
 4665 12c9 10       		.byte	0x10
 4666 12ca F3       		.byte	0xf3
 4667 12cb 0A040000 		.4byte	0x40a
 4668 12cf 02       		.byte	0x2
 4669 12d0 14       		.uleb128 0x14
 4670 12d1 67080000 		.4byte	.LASF411
 4671 12d5 10       		.byte	0x10
 4672 12d6 F4       		.byte	0xf4
 4673 12d7 0A040000 		.4byte	0x40a
 4674 12db 03       		.byte	0x3
 4675 12dc 14       		.uleb128 0x14
 4676 12dd D91C0000 		.4byte	.LASF412
 4677 12e1 10       		.byte	0x10
 4678 12e2 F5       		.byte	0xf5
 4679 12e3 0A040000 		.4byte	0x40a
 4680 12e7 04       		.byte	0x4
 4681 12e8 00       		.byte	0
 4682 12e9 06       		.uleb128 0x6
 4683 12ea 6A180000 		.4byte	.LASF413
 4684 12ee 10       		.byte	0x10
 4685 12ef F6       		.byte	0xf6
 4686 12f0 B0120000 		.4byte	0x12b0
 4687 12f4 10       		.uleb128 0x10
 4688 12f5 ED140000 		.4byte	.LASF414
 4689 12f9 10       		.byte	0x10
 4690 12fa 1301     		.2byte	0x113
 4691 12fc 00130000 		.4byte	0x1300
 4692 1300 1D       		.uleb128 0x1d
 4693 1301 60040000 		.4byte	0x460
 4694 1305 14130000 		.4byte	0x1314
 4695 1309 1C       		.uleb128 0x1c
 4696 130a 5D100000 		.4byte	0x105d
 4697 130e 1C       		.uleb128 0x1c
 4698 130f 60040000 		.4byte	0x460
 4699 1313 00       		.byte	0
 4700 1314 10       		.uleb128 0x10
 4701 1315 C90F0000 		.4byte	.LASF415
 4702 1319 10       		.byte	0x10
 4703 131a 1401     		.2byte	0x114
 4704 131c 00130000 		.4byte	0x1300
 4705 1320 10       		.uleb128 0x10
ARM GAS  C:\Users\Mathieu\AppData\Local\Temp\ccqdbTbw.s 			page 157


 4706 1321 9A150000 		.4byte	.LASF416
 4707 1325 10       		.byte	0x10
 4708 1326 1501     		.2byte	0x115
 4709 1328 2C130000 		.4byte	0x132c
 4710 132c 1B       		.uleb128 0x1b
 4711 132d 3C130000 		.4byte	0x133c
 4712 1331 1C       		.uleb128 0x1c
 4713 1332 5D100000 		.4byte	0x105d
 4714 1336 1C       		.uleb128 0x1c
 4715 1337 60040000 		.4byte	0x460
 4716 133b 00       		.byte	0
 4717 133c 18       		.uleb128 0x18
 4718 133d 0C       		.byte	0xc
 4719 133e 10       		.byte	0x10
 4720 133f 1701     		.2byte	0x117
 4721 1341 6D130000 		.4byte	0x136d
 4722 1345 09       		.uleb128 0x9
 4723 1346 6F060000 		.4byte	.LASF417
 4724 134a 10       		.byte	0x10
 4725 134b 1801     		.2byte	0x118
 4726 134d 6D130000 		.4byte	0x136d
 4727 1351 00       		.byte	0
 4728 1352 09       		.uleb128 0x9
 4729 1353 701C0000 		.4byte	.LASF418
 4730 1357 10       		.byte	0x10
 4731 1358 1901     		.2byte	0x119
 4732 135a 73130000 		.4byte	0x1373
 4733 135e 04       		.byte	0x4
 4734 135f 09       		.uleb128 0x9
 4735 1360 5E1B0000 		.4byte	.LASF419
 4736 1364 10       		.byte	0x10
 4737 1365 1A01     		.2byte	0x11a
 4738 1367 79130000 		.4byte	0x1379
 4739 136b 08       		.byte	0x8
 4740 136c 00       		.byte	0
 4741 136d 17       		.uleb128 0x17
 4742 136e 04       		.byte	0x4
 4743 136f F4120000 		.4byte	0x12f4
 4744 1373 17       		.uleb128 0x17
 4745 1374 04       		.byte	0x4
 4746 1375 14130000 		.4byte	0x1314
 4747 1379 17       		.uleb128 0x17
 4748 137a 04       		.byte	0x4
 4749 137b 20130000 		.4byte	0x1320
 4750 137f 10       		.uleb128 0x10
 4751 1380 781D0000 		.4byte	.LASF420
 4752 1384 10       		.byte	0x10
 4753 1385 1B01     		.2byte	0x11b
 4754 1387 3C130000 		.4byte	0x133c
 4755 138b 10       		.uleb128 0x10
 4756 138c E91D0000 		.4byte	.LASF421
 4757 1390 10       		.byte	0x10
 4758 1391 2401     		.2byte	0x124
 4759 1393 97130000 		.4byte	0x1397
 4760 1397 1E       		.uleb128 0x1e
 4761 1398 E91D0000 		.4byte	.LASF421
 4762 139c 24       		.byte	0x24
ARM GAS  C:\Users\Mathieu\AppData\Local\Temp\ccqdbTbw.s 			page 158


 4763 139d 10       		.byte	0x10
 4764 139e B101     		.2byte	0x1b1
 4765 13a0 59140000 		.4byte	0x1459
 4766 13a4 09       		.uleb128 0x9
 4767 13a5 260B0000 		.4byte	.LASF422
 4768 13a9 10       		.byte	0x10
 4769 13aa B201     		.2byte	0x1b2
 4770 13ac 64150000 		.4byte	0x1564
 4771 13b0 00       		.byte	0
 4772 13b1 09       		.uleb128 0x9
 4773 13b2 20200000 		.4byte	.LASF423
 4774 13b6 10       		.byte	0x10
 4775 13b7 B301     		.2byte	0x1b3
 4776 13b9 6A150000 		.4byte	0x156a
 4777 13bd 04       		.byte	0x4
 4778 13be 09       		.uleb128 0x9
 4779 13bf D5010000 		.4byte	.LASF424
 4780 13c3 10       		.byte	0x10
 4781 13c4 B401     		.2byte	0x1b4
 4782 13c6 70150000 		.4byte	0x1570
 4783 13ca 08       		.byte	0x8
 4784 13cb 09       		.uleb128 0x9
 4785 13cc 89060000 		.4byte	.LASF425
 4786 13d0 10       		.byte	0x10
 4787 13d1 B501     		.2byte	0x1b5
 4788 13d3 76150000 		.4byte	0x1576
 4789 13d7 0C       		.byte	0xc
 4790 13d8 09       		.uleb128 0x9
 4791 13d9 67110000 		.4byte	.LASF426
 4792 13dd 10       		.byte	0x10
 4793 13de B601     		.2byte	0x1b6
 4794 13e0 7C150000 		.4byte	0x157c
 4795 13e4 10       		.byte	0x10
 4796 13e5 09       		.uleb128 0x9
 4797 13e6 60000000 		.4byte	.LASF427
 4798 13ea 10       		.byte	0x10
 4799 13eb B701     		.2byte	0x1b7
 4800 13ed 82150000 		.4byte	0x1582
 4801 13f1 14       		.byte	0x14
 4802 13f2 09       		.uleb128 0x9
 4803 13f3 5E210000 		.4byte	.LASF396
 4804 13f7 10       		.byte	0x10
 4805 13f8 B801     		.2byte	0x1b8
 4806 13fa 0A040000 		.4byte	0x40a
 4807 13fe 18       		.byte	0x18
 4808 13ff 09       		.uleb128 0x9
 4809 1400 B0040000 		.4byte	.LASF428
 4810 1404 10       		.byte	0x10
 4811 1405 B901     		.2byte	0x1b9
 4812 1407 0A040000 		.4byte	0x40a
 4813 140b 19       		.byte	0x19
 4814 140c 09       		.uleb128 0x9
 4815 140d E5080000 		.4byte	.LASF429
 4816 1411 10       		.byte	0x10
 4817 1412 BA01     		.2byte	0x1ba
 4818 1414 0A040000 		.4byte	0x40a
 4819 1418 1A       		.byte	0x1a
ARM GAS  C:\Users\Mathieu\AppData\Local\Temp\ccqdbTbw.s 			page 159


 4820 1419 09       		.uleb128 0x9
 4821 141a DD1B0000 		.4byte	.LASF430
 4822 141e 10       		.byte	0x10
 4823 141f BB01     		.2byte	0x1bb
 4824 1421 0A040000 		.4byte	0x40a
 4825 1425 1B       		.byte	0x1b
 4826 1426 21       		.uleb128 0x21
 4827 1427 7000     		.ascii	"p\000"
 4828 1429 10       		.byte	0x10
 4829 142a C101     		.2byte	0x1c1
 4830 142c 09150000 		.4byte	0x1509
 4831 1430 1C       		.byte	0x1c
 4832 1431 09       		.uleb128 0x9
 4833 1432 2F200000 		.4byte	.LASF410
 4834 1436 10       		.byte	0x10
 4835 1437 C201     		.2byte	0x1c2
 4836 1439 0A040000 		.4byte	0x40a
 4837 143d 20       		.byte	0x20
 4838 143e 09       		.uleb128 0x9
 4839 143f 67080000 		.4byte	.LASF411
 4840 1443 10       		.byte	0x10
 4841 1444 C301     		.2byte	0x1c3
 4842 1446 0A040000 		.4byte	0x40a
 4843 144a 21       		.byte	0x21
 4844 144b 09       		.uleb128 0x9
 4845 144c D91C0000 		.4byte	.LASF412
 4846 1450 10       		.byte	0x10
 4847 1451 C401     		.2byte	0x1c4
 4848 1453 0A040000 		.4byte	0x40a
 4849 1457 22       		.byte	0x22
 4850 1458 00       		.byte	0
 4851 1459 10       		.uleb128 0x10
 4852 145a FC190000 		.4byte	.LASF431
 4853 145e 10       		.byte	0x10
 4854 145f 2601     		.2byte	0x126
 4855 1461 65140000 		.4byte	0x1465
 4856 1465 1B       		.uleb128 0x1b
 4857 1466 70140000 		.4byte	0x1470
 4858 146a 1C       		.uleb128 0x1c
 4859 146b 27040000 		.4byte	0x427
 4860 146f 00       		.byte	0
 4861 1470 10       		.uleb128 0x10
 4862 1471 C60D0000 		.4byte	.LASF432
 4863 1475 10       		.byte	0x10
 4864 1476 2701     		.2byte	0x127
 4865 1478 7C140000 		.4byte	0x147c
 4866 147c 1D       		.uleb128 0x1d
 4867 147d 60040000 		.4byte	0x460
 4868 1481 90140000 		.4byte	0x1490
 4869 1485 1C       		.uleb128 0x1c
 4870 1486 27040000 		.4byte	0x427
 4871 148a 1C       		.uleb128 0x1c
 4872 148b 90140000 		.4byte	0x1490
 4873 148f 00       		.byte	0
 4874 1490 17       		.uleb128 0x17
 4875 1491 04       		.byte	0x4
 4876 1492 60040000 		.4byte	0x460
ARM GAS  C:\Users\Mathieu\AppData\Local\Temp\ccqdbTbw.s 			page 160


 4877 1496 10       		.uleb128 0x10
 4878 1497 AA0B0000 		.4byte	.LASF433
 4879 149b 10       		.byte	0x10
 4880 149c 2801     		.2byte	0x128
 4881 149e A2140000 		.4byte	0x14a2
 4882 14a2 1B       		.uleb128 0x1b
 4883 14a3 B2140000 		.4byte	0x14b2
 4884 14a7 1C       		.uleb128 0x1c
 4885 14a8 B2140000 		.4byte	0x14b2
 4886 14ac 1C       		.uleb128 0x1c
 4887 14ad BD140000 		.4byte	0x14bd
 4888 14b1 00       		.byte	0
 4889 14b2 17       		.uleb128 0x17
 4890 14b3 04       		.byte	0x4
 4891 14b4 B8140000 		.4byte	0x14b8
 4892 14b8 11       		.uleb128 0x11
 4893 14b9 8B130000 		.4byte	0x138b
 4894 14bd 17       		.uleb128 0x17
 4895 14be 04       		.byte	0x4
 4896 14bf E9120000 		.4byte	0x12e9
 4897 14c3 10       		.uleb128 0x10
 4898 14c4 D8080000 		.4byte	.LASF434
 4899 14c8 10       		.byte	0x10
 4900 14c9 2901     		.2byte	0x129
 4901 14cb CF140000 		.4byte	0x14cf
 4902 14cf 1D       		.uleb128 0x1d
 4903 14d0 D80B0000 		.4byte	0xbd8
 4904 14d4 E3140000 		.4byte	0x14e3
 4905 14d8 1C       		.uleb128 0x1c
 4906 14d9 B2140000 		.4byte	0x14b2
 4907 14dd 1C       		.uleb128 0x1c
 4908 14de 27040000 		.4byte	0x427
 4909 14e2 00       		.byte	0
 4910 14e3 10       		.uleb128 0x10
 4911 14e4 851B0000 		.4byte	.LASF435
 4912 14e8 10       		.byte	0x10
 4913 14e9 2A01     		.2byte	0x12a
 4914 14eb EF140000 		.4byte	0x14ef
 4915 14ef 1D       		.uleb128 0x1d
 4916 14f0 60040000 		.4byte	0x460
 4917 14f4 03150000 		.4byte	0x1503
 4918 14f8 1C       		.uleb128 0x1c
 4919 14f9 27040000 		.4byte	0x427
 4920 14fd 1C       		.uleb128 0x1c
 4921 14fe 03150000 		.4byte	0x1503
 4922 1502 00       		.byte	0
 4923 1503 17       		.uleb128 0x17
 4924 1504 04       		.byte	0x4
 4925 1505 6A110000 		.4byte	0x116a
 4926 1509 22       		.uleb128 0x22
 4927 150a 04       		.byte	0x4
 4928 150b 10       		.byte	0x10
 4929 150c BC01     		.2byte	0x1bc
 4930 150e 43150000 		.4byte	0x1543
 4931 1512 23       		.uleb128 0x23
 4932 1513 A01F0000 		.4byte	.LASF436
 4933 1517 10       		.byte	0x10
ARM GAS  C:\Users\Mathieu\AppData\Local\Temp\ccqdbTbw.s 			page 161


 4934 1518 BD01     		.2byte	0x1bd
 4935 151a 4B100000 		.4byte	0x104b
 4936 151e 23       		.uleb128 0x23
 4937 151f 4C050000 		.4byte	.LASF437
 4938 1523 10       		.byte	0x10
 4939 1524 BE01     		.2byte	0x1be
 4940 1526 43150000 		.4byte	0x1543
 4941 152a 23       		.uleb128 0x23
 4942 152b A30A0000 		.4byte	.LASF438
 4943 152f 10       		.byte	0x10
 4944 1530 BF01     		.2byte	0x1bf
 4945 1532 4E150000 		.4byte	0x154e
 4946 1536 23       		.uleb128 0x23
 4947 1537 B71E0000 		.4byte	.LASF439
 4948 153b 10       		.byte	0x10
 4949 153c C001     		.2byte	0x1c0
 4950 153e 59150000 		.4byte	0x1559
 4951 1542 00       		.byte	0
 4952 1543 17       		.uleb128 0x17
 4953 1544 04       		.byte	0x4
 4954 1545 49150000 		.4byte	0x1549
 4955 1549 11       		.uleb128 0x11
 4956 154a A5120000 		.4byte	0x12a5
 4957 154e 17       		.uleb128 0x17
 4958 154f 04       		.byte	0x4
 4959 1550 54150000 		.4byte	0x1554
 4960 1554 11       		.uleb128 0x11
 4961 1555 C8110000 		.4byte	0x11c8
 4962 1559 17       		.uleb128 0x17
 4963 155a 04       		.byte	0x4
 4964 155b 5F150000 		.4byte	0x155f
 4965 155f 11       		.uleb128 0x11
 4966 1560 26120000 		.4byte	0x1226
 4967 1564 17       		.uleb128 0x17
 4968 1565 04       		.byte	0x4
 4969 1566 59140000 		.4byte	0x1459
 4970 156a 17       		.uleb128 0x17
 4971 156b 04       		.byte	0x4
 4972 156c 70140000 		.4byte	0x1470
 4973 1570 17       		.uleb128 0x17
 4974 1571 04       		.byte	0x4
 4975 1572 96140000 		.4byte	0x1496
 4976 1576 17       		.uleb128 0x17
 4977 1577 04       		.byte	0x4
 4978 1578 C3140000 		.4byte	0x14c3
 4979 157c 17       		.uleb128 0x17
 4980 157d 04       		.byte	0x4
 4981 157e E3140000 		.4byte	0x14e3
 4982 1582 17       		.uleb128 0x17
 4983 1583 04       		.byte	0x4
 4984 1584 88150000 		.4byte	0x1588
 4985 1588 11       		.uleb128 0x11
 4986 1589 7F130000 		.4byte	0x137f
 4987 158d 06       		.uleb128 0x6
 4988 158e 33170000 		.4byte	.LASF440
 4989 1592 11       		.byte	0x11
 4990 1593 35       		.byte	0x35
ARM GAS  C:\Users\Mathieu\AppData\Local\Temp\ccqdbTbw.s 			page 162


 4991 1594 0A040000 		.4byte	0x40a
 4992 1598 06       		.uleb128 0x6
 4993 1599 971E0000 		.4byte	.LASF441
 4994 159d 12       		.byte	0x12
 4995 159e 69       		.byte	0x69
 4996 159f 8D150000 		.4byte	0x158d
 4997 15a3 02       		.uleb128 0x2
 4998 15a4 01       		.byte	0x1
 4999 15a5 0A040000 		.4byte	0x40a
 5000 15a9 12       		.byte	0x12
 5001 15aa 6E       		.byte	0x6e
 5002 15ab C2150000 		.4byte	0x15c2
 5003 15af 04       		.uleb128 0x4
 5004 15b0 B6120000 		.4byte	.LASF442
 5005 15b4 00       		.byte	0
 5006 15b5 04       		.uleb128 0x4
 5007 15b6 87030000 		.4byte	.LASF443
 5008 15ba 01       		.byte	0x1
 5009 15bb 04       		.uleb128 0x4
 5010 15bc 8A0D0000 		.4byte	.LASF444
 5011 15c0 02       		.byte	0x2
 5012 15c1 00       		.byte	0
 5013 15c2 06       		.uleb128 0x6
 5014 15c3 E1150000 		.4byte	.LASF445
 5015 15c7 12       		.byte	0x12
 5016 15c8 72       		.byte	0x72
 5017 15c9 A3150000 		.4byte	0x15a3
 5018 15cd 06       		.uleb128 0x6
 5019 15ce 10070000 		.4byte	.LASF446
 5020 15d2 13       		.byte	0x13
 5021 15d3 2E       		.byte	0x2e
 5022 15d4 2F0C0000 		.4byte	0xc2f
 5023 15d8 06       		.uleb128 0x6
 5024 15d9 2D0A0000 		.4byte	.LASF447
 5025 15dd 14       		.byte	0x14
 5026 15de 25       		.byte	0x25
 5027 15df CD150000 		.4byte	0x15cd
 5028 15e3 24       		.uleb128 0x24
 5029 15e4 0A040000 		.4byte	.LASF448
 5030 15e8 03       		.byte	0x3
 5031 15e9 E606     		.2byte	0x6e6
 5032 15eb 03       		.byte	0x3
 5033 15ec FD150000 		.4byte	0x15fd
 5034 15f0 25       		.uleb128 0x25
 5035 15f1 08060000 		.4byte	.LASF450
 5036 15f5 03       		.byte	0x3
 5037 15f6 E606     		.2byte	0x6e6
 5038 15f8 ED030000 		.4byte	0x3ed
 5039 15fc 00       		.byte	0
 5040 15fd 24       		.uleb128 0x24
 5041 15fe 1B0F0000 		.4byte	.LASF449
 5042 1602 02       		.byte	0x2
 5043 1603 3E06     		.2byte	0x63e
 5044 1605 03       		.byte	0x3
 5045 1606 23160000 		.4byte	0x1623
 5046 160a 25       		.uleb128 0x25
 5047 160b FA210000 		.4byte	.LASF451
ARM GAS  C:\Users\Mathieu\AppData\Local\Temp\ccqdbTbw.s 			page 163


 5048 160f 02       		.byte	0x2
 5049 1610 3E06     		.2byte	0x63e
 5050 1612 45100000 		.4byte	0x1045
 5051 1616 25       		.uleb128 0x25
 5052 1617 091F0000 		.4byte	.LASF452
 5053 161b 02       		.byte	0x2
 5054 161c 3E06     		.2byte	0x63e
 5055 161e 9A040000 		.4byte	0x49a
 5056 1622 00       		.byte	0
 5057 1623 26       		.uleb128 0x26
 5058 1624 AA010000 		.4byte	.LASF455
 5059 1628 01       		.byte	0x1
 5060 1629 28       		.byte	0x28
 5061 162a 00000000 		.4byte	.LFB660
 5062 162e 2C000000 		.4byte	.LFE660-.LFB660
 5063 1632 01       		.uleb128 0x1
 5064 1633 9C       		.byte	0x9c
 5065 1634 B2160000 		.4byte	0x16b2
 5066 1638 27       		.uleb128 0x27
 5067 1639 A90A0000 		.4byte	.LASF453
 5068 163d 01       		.byte	0x1
 5069 163e 28       		.byte	0x28
 5070 163f C2150000 		.4byte	0x15c2
 5071 1643 00000000 		.4byte	.LLST0
 5072 1647 27       		.uleb128 0x27
 5073 1648 391B0000 		.4byte	.LASF454
 5074 164c 01       		.byte	0x1
 5075 164d 28       		.byte	0x28
 5076 164e 310C0000 		.4byte	0xc31
 5077 1652 21000000 		.4byte	.LLST1
 5078 1656 28       		.uleb128 0x28
 5079 1657 6A1E0000 		.4byte	.LASF459
 5080 165b 01       		.byte	0x1
 5081 165c 2A       		.byte	0x2a
 5082 165d B2160000 		.4byte	0x16b2
 5083 1661 42000000 		.4byte	.LLST2
 5084 1665 29       		.uleb128 0x29
 5085 1666 0A000000 		.4byte	.LVL1
 5086 166a 692F0000 		.4byte	0x2f69
 5087 166e 2A       		.uleb128 0x2a
 5088 166f 1A000000 		.4byte	.LVL4
 5089 1673 742F0000 		.4byte	0x2f74
 5090 1677 94160000 		.4byte	0x1694
 5091 167b 2B       		.uleb128 0x2b
 5092 167c 01       		.uleb128 0x1
 5093 167d 50       		.byte	0x50
 5094 167e 02       		.uleb128 0x2
 5095 167f 74       		.byte	0x74
 5096 1680 00       		.sleb128 0
 5097 1681 2B       		.uleb128 0x2b
 5098 1682 01       		.uleb128 0x1
 5099 1683 51       		.byte	0x51
 5100 1684 02       		.uleb128 0x2
 5101 1685 75       		.byte	0x75
 5102 1686 00       		.sleb128 0
 5103 1687 2B       		.uleb128 0x2b
 5104 1688 01       		.uleb128 0x1
ARM GAS  C:\Users\Mathieu\AppData\Local\Temp\ccqdbTbw.s 			page 164


 5105 1689 52       		.byte	0x52
 5106 168a 02       		.uleb128 0x2
 5107 168b 76       		.byte	0x76
 5108 168c 00       		.sleb128 0
 5109 168d 2B       		.uleb128 0x2b
 5110 168e 01       		.uleb128 0x1
 5111 168f 53       		.byte	0x53
 5112 1690 02       		.uleb128 0x2
 5113 1691 77       		.byte	0x77
 5114 1692 00       		.sleb128 0
 5115 1693 00       		.byte	0
 5116 1694 2C       		.uleb128 0x2c
 5117 1695 26000000 		.4byte	.LVL5
 5118 1699 7F2F0000 		.4byte	0x2f7f
 5119 169d 2B       		.uleb128 0x2b
 5120 169e 01       		.uleb128 0x1
 5121 169f 50       		.byte	0x50
 5122 16a0 02       		.uleb128 0x2
 5123 16a1 74       		.byte	0x74
 5124 16a2 00       		.sleb128 0
 5125 16a3 2B       		.uleb128 0x2b
 5126 16a4 01       		.uleb128 0x1
 5127 16a5 51       		.byte	0x51
 5128 16a6 02       		.uleb128 0x2
 5129 16a7 75       		.byte	0x75
 5130 16a8 00       		.sleb128 0
 5131 16a9 2B       		.uleb128 0x2b
 5132 16aa 01       		.uleb128 0x1
 5133 16ab 52       		.byte	0x52
 5134 16ac 03       		.uleb128 0x3
 5135 16ad 0A       		.byte	0xa
 5136 16ae B016     		.2byte	0x16b0
 5137 16b0 00       		.byte	0
 5138 16b1 00       		.byte	0
 5139 16b2 17       		.uleb128 0x17
 5140 16b3 04       		.byte	0x4
 5141 16b4 98150000 		.4byte	0x1598
 5142 16b8 26       		.uleb128 0x26
 5143 16b9 B1000000 		.4byte	.LASF456
 5144 16bd 01       		.byte	0x1
 5145 16be 43       		.byte	0x43
 5146 16bf 00000000 		.4byte	.LFB661
 5147 16c3 1E000000 		.4byte	.LFE661-.LFB661
 5148 16c7 01       		.uleb128 0x1
 5149 16c8 9C       		.byte	0x9c
 5150 16c9 15170000 		.4byte	0x1715
 5151 16cd 2A       		.uleb128 0x2a
 5152 16ce 08000000 		.4byte	.LVL7
 5153 16d2 882F0000 		.4byte	0x2f88
 5154 16d6 E0160000 		.4byte	0x16e0
 5155 16da 2B       		.uleb128 0x2b
 5156 16db 01       		.uleb128 0x1
 5157 16dc 50       		.byte	0x50
 5158 16dd 01       		.uleb128 0x1
 5159 16de 30       		.byte	0x30
 5160 16df 00       		.byte	0
 5161 16e0 2A       		.uleb128 0x2a
ARM GAS  C:\Users\Mathieu\AppData\Local\Temp\ccqdbTbw.s 			page 165


 5162 16e1 10000000 		.4byte	.LVL8
 5163 16e5 942F0000 		.4byte	0x2f94
 5164 16e9 F7160000 		.4byte	0x16f7
 5165 16ed 2B       		.uleb128 0x2b
 5166 16ee 01       		.uleb128 0x1
 5167 16ef 50       		.byte	0x50
 5168 16f0 05       		.uleb128 0x5
 5169 16f1 0C       		.byte	0xc
 5170 16f2 FFFFFF00 		.4byte	0xffffff
 5171 16f6 00       		.byte	0
 5172 16f7 29       		.uleb128 0x29
 5173 16f8 14000000 		.4byte	.LVL9
 5174 16fc A02F0000 		.4byte	0x2fa0
 5175 1700 2C       		.uleb128 0x2c
 5176 1701 1C000000 		.4byte	.LVL10
 5177 1705 23160000 		.4byte	0x1623
 5178 1709 2B       		.uleb128 0x2b
 5179 170a 01       		.uleb128 0x1
 5180 170b 50       		.byte	0x50
 5181 170c 01       		.uleb128 0x1
 5182 170d 31       		.byte	0x31
 5183 170e 2B       		.uleb128 0x2b
 5184 170f 01       		.uleb128 0x1
 5185 1710 51       		.byte	0x51
 5186 1711 01       		.uleb128 0x1
 5187 1712 31       		.byte	0x31
 5188 1713 00       		.byte	0
 5189 1714 00       		.byte	0
 5190 1715 26       		.uleb128 0x26
 5191 1716 EC0B0000 		.4byte	.LASF457
 5192 171a 01       		.byte	0x1
 5193 171b 58       		.byte	0x58
 5194 171c 00000000 		.4byte	.LFB662
 5195 1720 78000000 		.4byte	.LFE662-.LFB662
 5196 1724 01       		.uleb128 0x1
 5197 1725 9C       		.byte	0x9c
 5198 1726 A9170000 		.4byte	0x17a9
 5199 172a 27       		.uleb128 0x27
 5200 172b 4A0A0000 		.4byte	.LASF458
 5201 172f 01       		.byte	0x1
 5202 1730 58       		.byte	0x58
 5203 1731 F90B0000 		.4byte	0xbf9
 5204 1735 6B000000 		.4byte	.LLST3
 5205 1739 2D       		.uleb128 0x2d
 5206 173a 6D617800 		.ascii	"max\000"
 5207 173e 01       		.byte	0x1
 5208 173f 5D       		.byte	0x5d
 5209 1740 9A040000 		.4byte	0x49a
 5210 1744 97000000 		.4byte	.LLST4
 5211 1748 2D       		.uleb128 0x2d
 5212 1749 6D696E00 		.ascii	"min\000"
 5213 174d 01       		.byte	0x1
 5214 174e 5E       		.byte	0x5e
 5215 174f 9A040000 		.4byte	0x49a
 5216 1753 B6000000 		.4byte	.LLST5
 5217 1757 2D       		.uleb128 0x2d
 5218 1758 6B00     		.ascii	"k\000"
ARM GAS  C:\Users\Mathieu\AppData\Local\Temp\ccqdbTbw.s 			page 166


 5219 175a 01       		.byte	0x1
 5220 175b 6D       		.byte	0x6d
 5221 175c 60040000 		.4byte	0x460
 5222 1760 D9000000 		.4byte	.LLST6
 5223 1764 2E       		.uleb128 0x2e
 5224 1765 00000000 		.4byte	.Ldebug_ranges0+0
 5225 1769 7B170000 		.4byte	0x177b
 5226 176d 2D       		.uleb128 0x2d
 5227 176e 6900     		.ascii	"i\000"
 5228 1770 01       		.byte	0x1
 5229 1771 60       		.byte	0x60
 5230 1772 60040000 		.4byte	0x460
 5231 1776 EC000000 		.4byte	.LLST7
 5232 177a 00       		.byte	0
 5233 177b 2F       		.uleb128 0x2f
 5234 177c 2C000000 		.4byte	.LBB12
 5235 1780 42000000 		.4byte	.LBE12-.LBB12
 5236 1784 2D       		.uleb128 0x2d
 5237 1785 6A00     		.ascii	"j\000"
 5238 1787 01       		.byte	0x1
 5239 1788 6E       		.byte	0x6e
 5240 1789 60040000 		.4byte	0x460
 5241 178d 0B010000 		.4byte	.LLST8
 5242 1791 2C       		.uleb128 0x2c
 5243 1792 66000000 		.4byte	.LVL18
 5244 1796 AC2F0000 		.4byte	0x2fac
 5245 179a 2B       		.uleb128 0x2b
 5246 179b 01       		.uleb128 0x1
 5247 179c 50       		.byte	0x50
 5248 179d 02       		.uleb128 0x2
 5249 179e 74       		.byte	0x74
 5250 179f 07       		.sleb128 7
 5251 17a0 2B       		.uleb128 0x2b
 5252 17a1 01       		.uleb128 0x1
 5253 17a2 52       		.byte	0x52
 5254 17a3 02       		.uleb128 0x2
 5255 17a4 74       		.byte	0x74
 5256 17a5 08       		.sleb128 8
 5257 17a6 00       		.byte	0
 5258 17a7 00       		.byte	0
 5259 17a8 00       		.byte	0
 5260 17a9 26       		.uleb128 0x26
 5261 17aa 61190000 		.4byte	.LASF460
 5262 17ae 01       		.byte	0x1
 5263 17af 82       		.byte	0x82
 5264 17b0 00000000 		.4byte	.LFB663
 5265 17b4 B8000000 		.4byte	.LFE663-.LFB663
 5266 17b8 01       		.uleb128 0x1
 5267 17b9 9C       		.byte	0x9c
 5268 17ba 7D190000 		.4byte	0x197d
 5269 17be 29       		.uleb128 0x29
 5270 17bf 06000000 		.4byte	.LVL22
 5271 17c3 A02F0000 		.4byte	0x2fa0
 5272 17c7 29       		.uleb128 0x29
 5273 17c8 0C000000 		.4byte	.LVL23
 5274 17cc B82F0000 		.4byte	0x2fb8
 5275 17d0 2A       		.uleb128 0x2a
ARM GAS  C:\Users\Mathieu\AppData\Local\Temp\ccqdbTbw.s 			page 167


 5276 17d1 12000000 		.4byte	.LVL24
 5277 17d5 C42F0000 		.4byte	0x2fc4
 5278 17d9 E3170000 		.4byte	0x17e3
 5279 17dd 2B       		.uleb128 0x2b
 5280 17de 01       		.uleb128 0x1
 5281 17df 50       		.byte	0x50
 5282 17e0 01       		.uleb128 0x1
 5283 17e1 32       		.byte	0x32
 5284 17e2 00       		.byte	0
 5285 17e3 2A       		.uleb128 0x2a
 5286 17e4 1E000000 		.4byte	.LVL25
 5287 17e8 D02F0000 		.4byte	0x2fd0
 5288 17ec 07180000 		.4byte	0x1807
 5289 17f0 2B       		.uleb128 0x2b
 5290 17f1 01       		.uleb128 0x1
 5291 17f2 50       		.byte	0x50
 5292 17f3 02       		.uleb128 0x2
 5293 17f4 08       		.byte	0x8
 5294 17f5 2A       		.byte	0x2a
 5295 17f6 2B       		.uleb128 0x2b
 5296 17f7 01       		.uleb128 0x1
 5297 17f8 51       		.byte	0x51
 5298 17f9 01       		.uleb128 0x1
 5299 17fa 34       		.byte	0x34
 5300 17fb 2B       		.uleb128 0x2b
 5301 17fc 01       		.uleb128 0x1
 5302 17fd 52       		.byte	0x52
 5303 17fe 02       		.uleb128 0x2
 5304 17ff 08       		.byte	0x8
 5305 1800 DE       		.byte	0xde
 5306 1801 2B       		.uleb128 0x2b
 5307 1802 01       		.uleb128 0x1
 5308 1803 53       		.byte	0x53
 5309 1804 01       		.uleb128 0x1
 5310 1805 48       		.byte	0x48
 5311 1806 00       		.byte	0
 5312 1807 2A       		.uleb128 0x2a
 5313 1808 28000000 		.4byte	.LVL26
 5314 180c DC2F0000 		.4byte	0x2fdc
 5315 1810 29180000 		.4byte	0x1829
 5316 1814 2B       		.uleb128 0x2b
 5317 1815 01       		.uleb128 0x1
 5318 1816 50       		.byte	0x50
 5319 1817 05       		.uleb128 0x5
 5320 1818 03       		.byte	0x3
 5321 1819 00000000 		.4byte	.LC0
 5322 181d 2B       		.uleb128 0x2b
 5323 181e 01       		.uleb128 0x1
 5324 181f 51       		.byte	0x51
 5325 1820 02       		.uleb128 0x2
 5326 1821 08       		.byte	0x8
 5327 1822 46       		.byte	0x46
 5328 1823 2B       		.uleb128 0x2b
 5329 1824 01       		.uleb128 0x1
 5330 1825 52       		.byte	0x52
 5331 1826 01       		.uleb128 0x1
 5332 1827 38       		.byte	0x38
ARM GAS  C:\Users\Mathieu\AppData\Local\Temp\ccqdbTbw.s 			page 168


 5333 1828 00       		.byte	0
 5334 1829 2A       		.uleb128 0x2a
 5335 182a 32000000 		.4byte	.LVL27
 5336 182e DC2F0000 		.4byte	0x2fdc
 5337 1832 4B180000 		.4byte	0x184b
 5338 1836 2B       		.uleb128 0x2b
 5339 1837 01       		.uleb128 0x1
 5340 1838 50       		.byte	0x50
 5341 1839 05       		.uleb128 0x5
 5342 183a 03       		.byte	0x3
 5343 183b 0C000000 		.4byte	.LC1
 5344 183f 2B       		.uleb128 0x2b
 5345 1840 01       		.uleb128 0x1
 5346 1841 51       		.byte	0x51
 5347 1842 02       		.uleb128 0x2
 5348 1843 08       		.byte	0x8
 5349 1844 8C       		.byte	0x8c
 5350 1845 2B       		.uleb128 0x2b
 5351 1846 01       		.uleb128 0x1
 5352 1847 52       		.byte	0x52
 5353 1848 01       		.uleb128 0x1
 5354 1849 38       		.byte	0x38
 5355 184a 00       		.byte	0
 5356 184b 2A       		.uleb128 0x2a
 5357 184c 3C000000 		.4byte	.LVL28
 5358 1850 DC2F0000 		.4byte	0x2fdc
 5359 1854 6D180000 		.4byte	0x186d
 5360 1858 2B       		.uleb128 0x2b
 5361 1859 01       		.uleb128 0x1
 5362 185a 50       		.byte	0x50
 5363 185b 05       		.uleb128 0x5
 5364 185c 03       		.byte	0x3
 5365 185d 10000000 		.4byte	.LC2
 5366 1861 2B       		.uleb128 0x2b
 5367 1862 01       		.uleb128 0x1
 5368 1863 51       		.byte	0x51
 5369 1864 02       		.uleb128 0x2
 5370 1865 08       		.byte	0x8
 5371 1866 C8       		.byte	0xc8
 5372 1867 2B       		.uleb128 0x2b
 5373 1868 01       		.uleb128 0x1
 5374 1869 52       		.byte	0x52
 5375 186a 01       		.uleb128 0x1
 5376 186b 38       		.byte	0x38
 5377 186c 00       		.byte	0
 5378 186d 2A       		.uleb128 0x2a
 5379 186e 4A000000 		.4byte	.LVL29
 5380 1872 D02F0000 		.4byte	0x2fd0
 5381 1876 92180000 		.4byte	0x1892
 5382 187a 2B       		.uleb128 0x2b
 5383 187b 01       		.uleb128 0x1
 5384 187c 50       		.byte	0x50
 5385 187d 01       		.uleb128 0x1
 5386 187e 37       		.byte	0x37
 5387 187f 2B       		.uleb128 0x2b
 5388 1880 01       		.uleb128 0x1
 5389 1881 51       		.byte	0x51
ARM GAS  C:\Users\Mathieu\AppData\Local\Temp\ccqdbTbw.s 			page 169


 5390 1882 01       		.uleb128 0x1
 5391 1883 4C       		.byte	0x4c
 5392 1884 2B       		.uleb128 0x2b
 5393 1885 01       		.uleb128 0x1
 5394 1886 52       		.byte	0x52
 5395 1887 03       		.uleb128 0x3
 5396 1888 0A       		.byte	0xa
 5397 1889 0101     		.2byte	0x101
 5398 188b 2B       		.uleb128 0x2b
 5399 188c 01       		.uleb128 0x1
 5400 188d 53       		.byte	0x53
 5401 188e 02       		.uleb128 0x2
 5402 188f 08       		.byte	0x8
 5403 1890 80       		.byte	0x80
 5404 1891 00       		.byte	0
 5405 1892 2A       		.uleb128 0x2a
 5406 1893 54000000 		.4byte	.LVL30
 5407 1897 DC2F0000 		.4byte	0x2fdc
 5408 189b B4180000 		.4byte	0x18b4
 5409 189f 2B       		.uleb128 0x2b
 5410 18a0 01       		.uleb128 0x1
 5411 18a1 50       		.byte	0x50
 5412 18a2 05       		.uleb128 0x5
 5413 18a3 03       		.byte	0x3
 5414 18a4 14000000 		.4byte	.LC3
 5415 18a8 2B       		.uleb128 0x2b
 5416 18a9 01       		.uleb128 0x1
 5417 18aa 51       		.byte	0x51
 5418 18ab 01       		.uleb128 0x1
 5419 18ac 44       		.byte	0x44
 5420 18ad 2B       		.uleb128 0x2b
 5421 18ae 01       		.uleb128 0x1
 5422 18af 52       		.byte	0x52
 5423 18b0 02       		.uleb128 0x2
 5424 18b1 08       		.byte	0x8
 5425 18b2 32       		.byte	0x32
 5426 18b3 00       		.byte	0
 5427 18b4 2A       		.uleb128 0x2a
 5428 18b5 5E000000 		.4byte	.LVL31
 5429 18b9 DC2F0000 		.4byte	0x2fdc
 5430 18bd D6180000 		.4byte	0x18d6
 5431 18c1 2B       		.uleb128 0x2b
 5432 18c2 01       		.uleb128 0x1
 5433 18c3 50       		.byte	0x50
 5434 18c4 05       		.uleb128 0x5
 5435 18c5 03       		.byte	0x3
 5436 18c6 38000000 		.4byte	.LC4
 5437 18ca 2B       		.uleb128 0x2b
 5438 18cb 01       		.uleb128 0x1
 5439 18cc 51       		.byte	0x51
 5440 18cd 01       		.uleb128 0x1
 5441 18ce 44       		.byte	0x44
 5442 18cf 2B       		.uleb128 0x2b
 5443 18d0 01       		.uleb128 0x1
 5444 18d1 52       		.byte	0x52
 5445 18d2 02       		.uleb128 0x2
 5446 18d3 08       		.byte	0x8
ARM GAS  C:\Users\Mathieu\AppData\Local\Temp\ccqdbTbw.s 			page 170


 5447 18d4 5A       		.byte	0x5a
 5448 18d5 00       		.byte	0
 5449 18d6 2A       		.uleb128 0x2a
 5450 18d7 6A000000 		.4byte	.LVL32
 5451 18db D02F0000 		.4byte	0x2fd0
 5452 18df FB180000 		.4byte	0x18fb
 5453 18e3 2B       		.uleb128 0x2b
 5454 18e4 01       		.uleb128 0x1
 5455 18e5 50       		.byte	0x50
 5456 18e6 01       		.uleb128 0x1
 5457 18e7 37       		.byte	0x37
 5458 18e8 2B       		.uleb128 0x2b
 5459 18e9 01       		.uleb128 0x1
 5460 18ea 51       		.byte	0x51
 5461 18eb 02       		.uleb128 0x2
 5462 18ec 08       		.byte	0x8
 5463 18ed 84       		.byte	0x84
 5464 18ee 2B       		.uleb128 0x2b
 5465 18ef 01       		.uleb128 0x1
 5466 18f0 52       		.byte	0x52
 5467 18f1 02       		.uleb128 0x2
 5468 18f2 08       		.byte	0x8
 5469 18f3 84       		.byte	0x84
 5470 18f4 2B       		.uleb128 0x2b
 5471 18f5 01       		.uleb128 0x1
 5472 18f6 53       		.byte	0x53
 5473 18f7 02       		.uleb128 0x2
 5474 18f8 08       		.byte	0x8
 5475 18f9 AC       		.byte	0xac
 5476 18fa 00       		.byte	0
 5477 18fb 2A       		.uleb128 0x2a
 5478 18fc 74000000 		.4byte	.LVL33
 5479 1900 DC2F0000 		.4byte	0x2fdc
 5480 1904 1E190000 		.4byte	0x191e
 5481 1908 2B       		.uleb128 0x2b
 5482 1909 01       		.uleb128 0x1
 5483 190a 50       		.byte	0x50
 5484 190b 05       		.uleb128 0x5
 5485 190c 03       		.byte	0x3
 5486 190d 50000000 		.4byte	.LC5
 5487 1911 2B       		.uleb128 0x2b
 5488 1912 01       		.uleb128 0x1
 5489 1913 51       		.byte	0x51
 5490 1914 02       		.uleb128 0x2
 5491 1915 08       		.byte	0x8
 5492 1916 24       		.byte	0x24
 5493 1917 2B       		.uleb128 0x2b
 5494 1918 01       		.uleb128 0x1
 5495 1919 52       		.byte	0x52
 5496 191a 02       		.uleb128 0x2
 5497 191b 08       		.byte	0x8
 5498 191c 8A       		.byte	0x8a
 5499 191d 00       		.byte	0
 5500 191e 2A       		.uleb128 0x2a
 5501 191f 82000000 		.4byte	.LVL34
 5502 1923 D02F0000 		.4byte	0x2fd0
 5503 1927 45190000 		.4byte	0x1945
ARM GAS  C:\Users\Mathieu\AppData\Local\Temp\ccqdbTbw.s 			page 171


 5504 192b 2B       		.uleb128 0x2b
 5505 192c 01       		.uleb128 0x1
 5506 192d 50       		.byte	0x50
 5507 192e 02       		.uleb128 0x2
 5508 192f 08       		.byte	0x8
 5509 1930 89       		.byte	0x89
 5510 1931 2B       		.uleb128 0x2b
 5511 1932 01       		.uleb128 0x1
 5512 1933 51       		.byte	0x51
 5513 1934 02       		.uleb128 0x2
 5514 1935 08       		.byte	0x8
 5515 1936 84       		.byte	0x84
 5516 1937 2B       		.uleb128 0x2b
 5517 1938 01       		.uleb128 0x1
 5518 1939 52       		.byte	0x52
 5519 193a 03       		.uleb128 0x3
 5520 193b 0A       		.byte	0xa
 5521 193c 0101     		.2byte	0x101
 5522 193e 2B       		.uleb128 0x2b
 5523 193f 01       		.uleb128 0x1
 5524 1940 53       		.byte	0x53
 5525 1941 02       		.uleb128 0x2
 5526 1942 08       		.byte	0x8
 5527 1943 AC       		.byte	0xac
 5528 1944 00       		.byte	0
 5529 1945 2A       		.uleb128 0x2a
 5530 1946 8C000000 		.4byte	.LVL35
 5531 194a DC2F0000 		.4byte	0x2fdc
 5532 194e 68190000 		.4byte	0x1968
 5533 1952 2B       		.uleb128 0x2b
 5534 1953 01       		.uleb128 0x1
 5535 1954 50       		.byte	0x50
 5536 1955 05       		.uleb128 0x5
 5537 1956 03       		.byte	0x3
 5538 1957 5C000000 		.4byte	.LC6
 5539 195b 2B       		.uleb128 0x2b
 5540 195c 01       		.uleb128 0x1
 5541 195d 51       		.byte	0x51
 5542 195e 02       		.uleb128 0x2
 5543 195f 08       		.byte	0x8
 5544 1960 A7       		.byte	0xa7
 5545 1961 2B       		.uleb128 0x2b
 5546 1962 01       		.uleb128 0x1
 5547 1963 52       		.byte	0x52
 5548 1964 02       		.uleb128 0x2
 5549 1965 08       		.byte	0x8
 5550 1966 8A       		.byte	0x8a
 5551 1967 00       		.byte	0
 5552 1968 2C       		.uleb128 0x2c
 5553 1969 94000000 		.4byte	.LVL36
 5554 196d 23160000 		.4byte	0x1623
 5555 1971 2B       		.uleb128 0x2b
 5556 1972 01       		.uleb128 0x1
 5557 1973 50       		.byte	0x50
 5558 1974 01       		.uleb128 0x1
 5559 1975 31       		.byte	0x31
 5560 1976 2B       		.uleb128 0x2b
ARM GAS  C:\Users\Mathieu\AppData\Local\Temp\ccqdbTbw.s 			page 172


 5561 1977 01       		.uleb128 0x1
 5562 1978 51       		.byte	0x51
 5563 1979 01       		.uleb128 0x1
 5564 197a 31       		.byte	0x31
 5565 197b 00       		.byte	0
 5566 197c 00       		.byte	0
 5567 197d 26       		.uleb128 0x26
 5568 197e 3D040000 		.4byte	.LASF461
 5569 1982 01       		.byte	0x1
 5570 1983 AA       		.byte	0xaa
 5571 1984 00000000 		.4byte	.LFB664
 5572 1988 34010000 		.4byte	.LFE664-.LFB664
 5573 198c 01       		.uleb128 0x1
 5574 198d 9C       		.byte	0x9c
 5575 198e 561C0000 		.4byte	0x1c56
 5576 1992 30       		.uleb128 0x30
 5577 1993 DF040000 		.4byte	.LASF462
 5578 1997 01       		.byte	0x1
 5579 1998 D0       		.byte	0xd0
 5580 1999 561C0000 		.4byte	0x1c56
 5581 199d 02       		.uleb128 0x2
 5582 199e 91       		.byte	0x91
 5583 199f 48       		.sleb128 -56
 5584 19a0 29       		.uleb128 0x29
 5585 19a1 08000000 		.4byte	.LVL37
 5586 19a5 A02F0000 		.4byte	0x2fa0
 5587 19a9 29       		.uleb128 0x29
 5588 19aa 0E000000 		.4byte	.LVL38
 5589 19ae B82F0000 		.4byte	0x2fb8
 5590 19b2 2A       		.uleb128 0x2a
 5591 19b3 14000000 		.4byte	.LVL39
 5592 19b7 C42F0000 		.4byte	0x2fc4
 5593 19bb C5190000 		.4byte	0x19c5
 5594 19bf 2B       		.uleb128 0x2b
 5595 19c0 01       		.uleb128 0x1
 5596 19c1 50       		.byte	0x50
 5597 19c2 01       		.uleb128 0x1
 5598 19c3 32       		.byte	0x32
 5599 19c4 00       		.byte	0
 5600 19c5 2A       		.uleb128 0x2a
 5601 19c6 20000000 		.4byte	.LVL40
 5602 19ca D02F0000 		.4byte	0x2fd0
 5603 19ce E9190000 		.4byte	0x19e9
 5604 19d2 2B       		.uleb128 0x2b
 5605 19d3 01       		.uleb128 0x1
 5606 19d4 50       		.byte	0x50
 5607 19d5 02       		.uleb128 0x2
 5608 19d6 08       		.byte	0x8
 5609 19d7 2A       		.byte	0x2a
 5610 19d8 2B       		.uleb128 0x2b
 5611 19d9 01       		.uleb128 0x1
 5612 19da 51       		.byte	0x51
 5613 19db 01       		.uleb128 0x1
 5614 19dc 34       		.byte	0x34
 5615 19dd 2B       		.uleb128 0x2b
 5616 19de 01       		.uleb128 0x1
 5617 19df 52       		.byte	0x52
ARM GAS  C:\Users\Mathieu\AppData\Local\Temp\ccqdbTbw.s 			page 173


 5618 19e0 02       		.uleb128 0x2
 5619 19e1 08       		.byte	0x8
 5620 19e2 DE       		.byte	0xde
 5621 19e3 2B       		.uleb128 0x2b
 5622 19e4 01       		.uleb128 0x1
 5623 19e5 53       		.byte	0x53
 5624 19e6 01       		.uleb128 0x1
 5625 19e7 48       		.byte	0x48
 5626 19e8 00       		.byte	0
 5627 19e9 2A       		.uleb128 0x2a
 5628 19ea 2A000000 		.4byte	.LVL41
 5629 19ee DC2F0000 		.4byte	0x2fdc
 5630 19f2 0B1A0000 		.4byte	0x1a0b
 5631 19f6 2B       		.uleb128 0x2b
 5632 19f7 01       		.uleb128 0x1
 5633 19f8 50       		.byte	0x50
 5634 19f9 05       		.uleb128 0x5
 5635 19fa 03       		.byte	0x3
 5636 19fb 00000000 		.4byte	.LC0
 5637 19ff 2B       		.uleb128 0x2b
 5638 1a00 01       		.uleb128 0x1
 5639 1a01 51       		.byte	0x51
 5640 1a02 02       		.uleb128 0x2
 5641 1a03 08       		.byte	0x8
 5642 1a04 46       		.byte	0x46
 5643 1a05 2B       		.uleb128 0x2b
 5644 1a06 01       		.uleb128 0x1
 5645 1a07 52       		.byte	0x52
 5646 1a08 01       		.uleb128 0x1
 5647 1a09 38       		.byte	0x38
 5648 1a0a 00       		.byte	0
 5649 1a0b 2A       		.uleb128 0x2a
 5650 1a0c 34000000 		.4byte	.LVL42
 5651 1a10 DC2F0000 		.4byte	0x2fdc
 5652 1a14 2D1A0000 		.4byte	0x1a2d
 5653 1a18 2B       		.uleb128 0x2b
 5654 1a19 01       		.uleb128 0x1
 5655 1a1a 50       		.byte	0x50
 5656 1a1b 05       		.uleb128 0x5
 5657 1a1c 03       		.byte	0x3
 5658 1a1d 0C000000 		.4byte	.LC1
 5659 1a21 2B       		.uleb128 0x2b
 5660 1a22 01       		.uleb128 0x1
 5661 1a23 51       		.byte	0x51
 5662 1a24 02       		.uleb128 0x2
 5663 1a25 08       		.byte	0x8
 5664 1a26 8C       		.byte	0x8c
 5665 1a27 2B       		.uleb128 0x2b
 5666 1a28 01       		.uleb128 0x1
 5667 1a29 52       		.byte	0x52
 5668 1a2a 01       		.uleb128 0x1
 5669 1a2b 38       		.byte	0x38
 5670 1a2c 00       		.byte	0
 5671 1a2d 2A       		.uleb128 0x2a
 5672 1a2e 3E000000 		.4byte	.LVL43
 5673 1a32 DC2F0000 		.4byte	0x2fdc
 5674 1a36 4F1A0000 		.4byte	0x1a4f
ARM GAS  C:\Users\Mathieu\AppData\Local\Temp\ccqdbTbw.s 			page 174


 5675 1a3a 2B       		.uleb128 0x2b
 5676 1a3b 01       		.uleb128 0x1
 5677 1a3c 50       		.byte	0x50
 5678 1a3d 05       		.uleb128 0x5
 5679 1a3e 03       		.byte	0x3
 5680 1a3f 10000000 		.4byte	.LC2
 5681 1a43 2B       		.uleb128 0x2b
 5682 1a44 01       		.uleb128 0x1
 5683 1a45 51       		.byte	0x51
 5684 1a46 02       		.uleb128 0x2
 5685 1a47 08       		.byte	0x8
 5686 1a48 C8       		.byte	0xc8
 5687 1a49 2B       		.uleb128 0x2b
 5688 1a4a 01       		.uleb128 0x1
 5689 1a4b 52       		.byte	0x52
 5690 1a4c 01       		.uleb128 0x1
 5691 1a4d 38       		.byte	0x38
 5692 1a4e 00       		.byte	0
 5693 1a4f 2A       		.uleb128 0x2a
 5694 1a50 52000000 		.4byte	.LVL44
 5695 1a54 E82F0000 		.4byte	0x2fe8
 5696 1a58 731A0000 		.4byte	0x1a73
 5697 1a5c 2B       		.uleb128 0x2b
 5698 1a5d 01       		.uleb128 0x1
 5699 1a5e 50       		.byte	0x50
 5700 1a5f 02       		.uleb128 0x2
 5701 1a60 08       		.byte	0x8
 5702 1a61 7F       		.byte	0x7f
 5703 1a62 2B       		.uleb128 0x2b
 5704 1a63 01       		.uleb128 0x1
 5705 1a64 51       		.byte	0x51
 5706 1a65 01       		.uleb128 0x1
 5707 1a66 3A       		.byte	0x3a
 5708 1a67 2B       		.uleb128 0x2b
 5709 1a68 01       		.uleb128 0x1
 5710 1a69 52       		.byte	0x52
 5711 1a6a 02       		.uleb128 0x2
 5712 1a6b 08       		.byte	0x8
 5713 1a6c 87       		.byte	0x87
 5714 1a6d 2B       		.uleb128 0x2b
 5715 1a6e 01       		.uleb128 0x1
 5716 1a6f 53       		.byte	0x53
 5717 1a70 01       		.uleb128 0x1
 5718 1a71 42       		.byte	0x42
 5719 1a72 00       		.byte	0
 5720 1a73 2A       		.uleb128 0x2a
 5721 1a74 5E000000 		.4byte	.LVL45
 5722 1a78 D02F0000 		.4byte	0x2fd0
 5723 1a7c 971A0000 		.4byte	0x1a97
 5724 1a80 2B       		.uleb128 0x2b
 5725 1a81 01       		.uleb128 0x1
 5726 1a82 50       		.byte	0x50
 5727 1a83 02       		.uleb128 0x2
 5728 1a84 08       		.byte	0x8
 5729 1a85 BB       		.byte	0xbb
 5730 1a86 2B       		.uleb128 0x2b
 5731 1a87 01       		.uleb128 0x1
ARM GAS  C:\Users\Mathieu\AppData\Local\Temp\ccqdbTbw.s 			page 175


 5732 1a88 51       		.byte	0x51
 5733 1a89 01       		.uleb128 0x1
 5734 1a8a 3A       		.byte	0x3a
 5735 1a8b 2B       		.uleb128 0x2b
 5736 1a8c 01       		.uleb128 0x1
 5737 1a8d 52       		.byte	0x52
 5738 1a8e 02       		.uleb128 0x2
 5739 1a8f 08       		.byte	0x8
 5740 1a90 C3       		.byte	0xc3
 5741 1a91 2B       		.uleb128 0x2b
 5742 1a92 01       		.uleb128 0x1
 5743 1a93 53       		.byte	0x53
 5744 1a94 01       		.uleb128 0x1
 5745 1a95 42       		.byte	0x42
 5746 1a96 00       		.byte	0
 5747 1a97 2A       		.uleb128 0x2a
 5748 1a98 64000000 		.4byte	.LVL46
 5749 1a9c 15170000 		.4byte	0x1715
 5750 1aa0 AE1A0000 		.4byte	0x1aae
 5751 1aa4 2B       		.uleb128 0x2b
 5752 1aa5 01       		.uleb128 0x1
 5753 1aa6 50       		.byte	0x50
 5754 1aa7 05       		.uleb128 0x5
 5755 1aa8 03       		.byte	0x3
 5756 1aa9 00000000 		.4byte	RED_data
 5757 1aad 00       		.byte	0
 5758 1aae 2A       		.uleb128 0x2a
 5759 1aaf 72000000 		.4byte	.LVL47
 5760 1ab3 D02F0000 		.4byte	0x2fd0
 5761 1ab7 D21A0000 		.4byte	0x1ad2
 5762 1abb 2B       		.uleb128 0x2b
 5763 1abc 01       		.uleb128 0x1
 5764 1abd 50       		.byte	0x50
 5765 1abe 02       		.uleb128 0x2
 5766 1abf 08       		.byte	0x8
 5767 1ac0 7F       		.byte	0x7f
 5768 1ac1 2B       		.uleb128 0x2b
 5769 1ac2 01       		.uleb128 0x1
 5770 1ac3 51       		.byte	0x51
 5771 1ac4 01       		.uleb128 0x1
 5772 1ac5 3A       		.byte	0x3a
 5773 1ac6 2B       		.uleb128 0x2b
 5774 1ac7 01       		.uleb128 0x1
 5775 1ac8 52       		.byte	0x52
 5776 1ac9 02       		.uleb128 0x2
 5777 1aca 08       		.byte	0x8
 5778 1acb 87       		.byte	0x87
 5779 1acc 2B       		.uleb128 0x2b
 5780 1acd 01       		.uleb128 0x1
 5781 1ace 53       		.byte	0x53
 5782 1acf 01       		.uleb128 0x1
 5783 1ad0 42       		.byte	0x42
 5784 1ad1 00       		.byte	0
 5785 1ad2 2A       		.uleb128 0x2a
 5786 1ad3 7E000000 		.4byte	.LVL48
 5787 1ad7 E82F0000 		.4byte	0x2fe8
 5788 1adb F61A0000 		.4byte	0x1af6
ARM GAS  C:\Users\Mathieu\AppData\Local\Temp\ccqdbTbw.s 			page 176


 5789 1adf 2B       		.uleb128 0x2b
 5790 1ae0 01       		.uleb128 0x1
 5791 1ae1 50       		.byte	0x50
 5792 1ae2 02       		.uleb128 0x2
 5793 1ae3 08       		.byte	0x8
 5794 1ae4 BB       		.byte	0xbb
 5795 1ae5 2B       		.uleb128 0x2b
 5796 1ae6 01       		.uleb128 0x1
 5797 1ae7 51       		.byte	0x51
 5798 1ae8 01       		.uleb128 0x1
 5799 1ae9 3A       		.byte	0x3a
 5800 1aea 2B       		.uleb128 0x2b
 5801 1aeb 01       		.uleb128 0x1
 5802 1aec 52       		.byte	0x52
 5803 1aed 02       		.uleb128 0x2
 5804 1aee 08       		.byte	0x8
 5805 1aef C3       		.byte	0xc3
 5806 1af0 2B       		.uleb128 0x2b
 5807 1af1 01       		.uleb128 0x1
 5808 1af2 53       		.byte	0x53
 5809 1af3 01       		.uleb128 0x1
 5810 1af4 42       		.byte	0x42
 5811 1af5 00       		.byte	0
 5812 1af6 2A       		.uleb128 0x2a
 5813 1af7 84000000 		.4byte	.LVL49
 5814 1afb 15170000 		.4byte	0x1715
 5815 1aff 0D1B0000 		.4byte	0x1b0d
 5816 1b03 2B       		.uleb128 0x2b
 5817 1b04 01       		.uleb128 0x1
 5818 1b05 50       		.byte	0x50
 5819 1b06 05       		.uleb128 0x5
 5820 1b07 03       		.byte	0x3
 5821 1b08 00000000 		.4byte	IR_data
 5822 1b0c 00       		.byte	0
 5823 1b0d 2A       		.uleb128 0x2a
 5824 1b0e 92000000 		.4byte	.LVL50
 5825 1b12 D02F0000 		.4byte	0x2fd0
 5826 1b16 321B0000 		.4byte	0x1b32
 5827 1b1a 2B       		.uleb128 0x2b
 5828 1b1b 01       		.uleb128 0x1
 5829 1b1c 50       		.byte	0x50
 5830 1b1d 01       		.uleb128 0x1
 5831 1b1e 37       		.byte	0x37
 5832 1b1f 2B       		.uleb128 0x2b
 5833 1b20 01       		.uleb128 0x1
 5834 1b21 51       		.byte	0x51
 5835 1b22 01       		.uleb128 0x1
 5836 1b23 4C       		.byte	0x4c
 5837 1b24 2B       		.uleb128 0x2b
 5838 1b25 01       		.uleb128 0x1
 5839 1b26 52       		.byte	0x52
 5840 1b27 03       		.uleb128 0x3
 5841 1b28 0A       		.byte	0xa
 5842 1b29 0101     		.2byte	0x101
 5843 1b2b 2B       		.uleb128 0x2b
 5844 1b2c 01       		.uleb128 0x1
 5845 1b2d 53       		.byte	0x53
ARM GAS  C:\Users\Mathieu\AppData\Local\Temp\ccqdbTbw.s 			page 177


 5846 1b2e 02       		.uleb128 0x2
 5847 1b2f 08       		.byte	0x8
 5848 1b30 80       		.byte	0x80
 5849 1b31 00       		.byte	0
 5850 1b32 2A       		.uleb128 0x2a
 5851 1b33 9E000000 		.4byte	.LVL51
 5852 1b37 D02F0000 		.4byte	0x2fd0
 5853 1b3b 571B0000 		.4byte	0x1b57
 5854 1b3f 2B       		.uleb128 0x2b
 5855 1b40 01       		.uleb128 0x1
 5856 1b41 50       		.byte	0x50
 5857 1b42 01       		.uleb128 0x1
 5858 1b43 37       		.byte	0x37
 5859 1b44 2B       		.uleb128 0x2b
 5860 1b45 01       		.uleb128 0x1
 5861 1b46 51       		.byte	0x51
 5862 1b47 02       		.uleb128 0x2
 5863 1b48 08       		.byte	0x8
 5864 1b49 84       		.byte	0x84
 5865 1b4a 2B       		.uleb128 0x2b
 5866 1b4b 01       		.uleb128 0x1
 5867 1b4c 52       		.byte	0x52
 5868 1b4d 02       		.uleb128 0x2
 5869 1b4e 08       		.byte	0x8
 5870 1b4f 84       		.byte	0x84
 5871 1b50 2B       		.uleb128 0x2b
 5872 1b51 01       		.uleb128 0x1
 5873 1b52 53       		.byte	0x53
 5874 1b53 02       		.uleb128 0x2
 5875 1b54 08       		.byte	0x8
 5876 1b55 AC       		.byte	0xac
 5877 1b56 00       		.byte	0
 5878 1b57 2A       		.uleb128 0x2a
 5879 1b58 A8000000 		.4byte	.LVL52
 5880 1b5c DC2F0000 		.4byte	0x2fdc
 5881 1b60 7A1B0000 		.4byte	0x1b7a
 5882 1b64 2B       		.uleb128 0x2b
 5883 1b65 01       		.uleb128 0x1
 5884 1b66 50       		.byte	0x50
 5885 1b67 05       		.uleb128 0x5
 5886 1b68 03       		.byte	0x3
 5887 1b69 50000000 		.4byte	.LC5
 5888 1b6d 2B       		.uleb128 0x2b
 5889 1b6e 01       		.uleb128 0x1
 5890 1b6f 51       		.byte	0x51
 5891 1b70 02       		.uleb128 0x2
 5892 1b71 08       		.byte	0x8
 5893 1b72 24       		.byte	0x24
 5894 1b73 2B       		.uleb128 0x2b
 5895 1b74 01       		.uleb128 0x1
 5896 1b75 52       		.byte	0x52
 5897 1b76 02       		.uleb128 0x2
 5898 1b77 08       		.byte	0x8
 5899 1b78 8A       		.byte	0x8a
 5900 1b79 00       		.byte	0
 5901 1b7a 2A       		.uleb128 0x2a
 5902 1b7b B6000000 		.4byte	.LVL53
ARM GAS  C:\Users\Mathieu\AppData\Local\Temp\ccqdbTbw.s 			page 178


 5903 1b7f D02F0000 		.4byte	0x2fd0
 5904 1b83 A11B0000 		.4byte	0x1ba1
 5905 1b87 2B       		.uleb128 0x2b
 5906 1b88 01       		.uleb128 0x1
 5907 1b89 50       		.byte	0x50
 5908 1b8a 02       		.uleb128 0x2
 5909 1b8b 08       		.byte	0x8
 5910 1b8c 89       		.byte	0x89
 5911 1b8d 2B       		.uleb128 0x2b
 5912 1b8e 01       		.uleb128 0x1
 5913 1b8f 51       		.byte	0x51
 5914 1b90 02       		.uleb128 0x2
 5915 1b91 08       		.byte	0x8
 5916 1b92 84       		.byte	0x84
 5917 1b93 2B       		.uleb128 0x2b
 5918 1b94 01       		.uleb128 0x1
 5919 1b95 52       		.byte	0x52
 5920 1b96 03       		.uleb128 0x3
 5921 1b97 0A       		.byte	0xa
 5922 1b98 0101     		.2byte	0x101
 5923 1b9a 2B       		.uleb128 0x2b
 5924 1b9b 01       		.uleb128 0x1
 5925 1b9c 53       		.byte	0x53
 5926 1b9d 02       		.uleb128 0x2
 5927 1b9e 08       		.byte	0x8
 5928 1b9f AC       		.byte	0xac
 5929 1ba0 00       		.byte	0
 5930 1ba1 2A       		.uleb128 0x2a
 5931 1ba2 C0000000 		.4byte	.LVL54
 5932 1ba6 DC2F0000 		.4byte	0x2fdc
 5933 1baa C41B0000 		.4byte	0x1bc4
 5934 1bae 2B       		.uleb128 0x2b
 5935 1baf 01       		.uleb128 0x1
 5936 1bb0 50       		.byte	0x50
 5937 1bb1 05       		.uleb128 0x5
 5938 1bb2 03       		.byte	0x3
 5939 1bb3 5C000000 		.4byte	.LC6
 5940 1bb7 2B       		.uleb128 0x2b
 5941 1bb8 01       		.uleb128 0x1
 5942 1bb9 51       		.byte	0x51
 5943 1bba 02       		.uleb128 0x2
 5944 1bbb 08       		.byte	0x8
 5945 1bbc A7       		.byte	0xa7
 5946 1bbd 2B       		.uleb128 0x2b
 5947 1bbe 01       		.uleb128 0x1
 5948 1bbf 52       		.byte	0x52
 5949 1bc0 02       		.uleb128 0x2
 5950 1bc1 08       		.byte	0x8
 5951 1bc2 8A       		.byte	0x8a
 5952 1bc3 00       		.byte	0
 5953 1bc4 29       		.uleb128 0x29
 5954 1bc5 C6000000 		.4byte	.LVL55
 5955 1bc9 B82F0000 		.4byte	0x2fb8
 5956 1bcd 2A       		.uleb128 0x2a
 5957 1bce D6000000 		.4byte	.LVL56
 5958 1bd2 F42F0000 		.4byte	0x2ff4
 5959 1bd6 E71B0000 		.4byte	0x1be7
ARM GAS  C:\Users\Mathieu\AppData\Local\Temp\ccqdbTbw.s 			page 179


 5960 1bda 2B       		.uleb128 0x2b
 5961 1bdb 01       		.uleb128 0x1
 5962 1bdc 50       		.byte	0x50
 5963 1bdd 02       		.uleb128 0x2
 5964 1bde 7D       		.byte	0x7d
 5965 1bdf 00       		.sleb128 0
 5966 1be0 2B       		.uleb128 0x2b
 5967 1be1 01       		.uleb128 0x1
 5968 1be2 51       		.byte	0x51
 5969 1be3 02       		.uleb128 0x2
 5970 1be4 74       		.byte	0x74
 5971 1be5 00       		.sleb128 0
 5972 1be6 00       		.byte	0
 5973 1be7 2A       		.uleb128 0x2a
 5974 1be8 E0000000 		.4byte	.LVL57
 5975 1bec DC2F0000 		.4byte	0x2fdc
 5976 1bf0 071C0000 		.4byte	0x1c07
 5977 1bf4 2B       		.uleb128 0x2b
 5978 1bf5 01       		.uleb128 0x1
 5979 1bf6 50       		.byte	0x50
 5980 1bf7 02       		.uleb128 0x2
 5981 1bf8 7D       		.byte	0x7d
 5982 1bf9 00       		.sleb128 0
 5983 1bfa 2B       		.uleb128 0x2b
 5984 1bfb 01       		.uleb128 0x1
 5985 1bfc 51       		.byte	0x51
 5986 1bfd 02       		.uleb128 0x2
 5987 1bfe 08       		.byte	0x8
 5988 1bff 24       		.byte	0x24
 5989 1c00 2B       		.uleb128 0x2b
 5990 1c01 01       		.uleb128 0x1
 5991 1c02 52       		.byte	0x52
 5992 1c03 02       		.uleb128 0x2
 5993 1c04 08       		.byte	0x8
 5994 1c05 9A       		.byte	0x9a
 5995 1c06 00       		.byte	0
 5996 1c07 2A       		.uleb128 0x2a
 5997 1c08 EC000000 		.4byte	.LVL58
 5998 1c0c F42F0000 		.4byte	0x2ff4
 5999 1c10 211C0000 		.4byte	0x1c21
 6000 1c14 2B       		.uleb128 0x2b
 6001 1c15 01       		.uleb128 0x1
 6002 1c16 50       		.byte	0x50
 6003 1c17 02       		.uleb128 0x2
 6004 1c18 7D       		.byte	0x7d
 6005 1c19 00       		.sleb128 0
 6006 1c1a 2B       		.uleb128 0x2b
 6007 1c1b 01       		.uleb128 0x1
 6008 1c1c 51       		.byte	0x51
 6009 1c1d 02       		.uleb128 0x2
 6010 1c1e 74       		.byte	0x74
 6011 1c1f 00       		.sleb128 0
 6012 1c20 00       		.byte	0
 6013 1c21 2A       		.uleb128 0x2a
 6014 1c22 F6000000 		.4byte	.LVL59
 6015 1c26 DC2F0000 		.4byte	0x2fdc
 6016 1c2a 411C0000 		.4byte	0x1c41
ARM GAS  C:\Users\Mathieu\AppData\Local\Temp\ccqdbTbw.s 			page 180


 6017 1c2e 2B       		.uleb128 0x2b
 6018 1c2f 01       		.uleb128 0x1
 6019 1c30 50       		.byte	0x50
 6020 1c31 02       		.uleb128 0x2
 6021 1c32 7D       		.byte	0x7d
 6022 1c33 00       		.sleb128 0
 6023 1c34 2B       		.uleb128 0x2b
 6024 1c35 01       		.uleb128 0x1
 6025 1c36 51       		.byte	0x51
 6026 1c37 02       		.uleb128 0x2
 6027 1c38 08       		.byte	0x8
 6028 1c39 A7       		.byte	0xa7
 6029 1c3a 2B       		.uleb128 0x2b
 6030 1c3b 01       		.uleb128 0x1
 6031 1c3c 52       		.byte	0x52
 6032 1c3d 02       		.uleb128 0x2
 6033 1c3e 08       		.byte	0x8
 6034 1c3f 9A       		.byte	0x9a
 6035 1c40 00       		.byte	0
 6036 1c41 2C       		.uleb128 0x2c
 6037 1c42 FE000000 		.4byte	.LVL60
 6038 1c46 23160000 		.4byte	0x1623
 6039 1c4a 2B       		.uleb128 0x2b
 6040 1c4b 01       		.uleb128 0x1
 6041 1c4c 50       		.byte	0x50
 6042 1c4d 01       		.uleb128 0x1
 6043 1c4e 31       		.byte	0x31
 6044 1c4f 2B       		.uleb128 0x2b
 6045 1c50 01       		.uleb128 0x1
 6046 1c51 51       		.byte	0x51
 6047 1c52 01       		.uleb128 0x1
 6048 1c53 31       		.byte	0x31
 6049 1c54 00       		.byte	0
 6050 1c55 00       		.byte	0
 6051 1c56 0C       		.uleb128 0xc
 6052 1c57 D80B0000 		.4byte	0xbd8
 6053 1c5b 661C0000 		.4byte	0x1c66
 6054 1c5f 0D       		.uleb128 0xd
 6055 1c60 71050000 		.4byte	0x571
 6056 1c64 27       		.byte	0x27
 6057 1c65 00       		.byte	0
 6058 1c66 26       		.uleb128 0x26
 6059 1c67 430D0000 		.4byte	.LASF463
 6060 1c6b 01       		.byte	0x1
 6061 1c6c E6       		.byte	0xe6
 6062 1c6d 00000000 		.4byte	.LFB665
 6063 1c71 94010000 		.4byte	.LFE665-.LFB665
 6064 1c75 01       		.uleb128 0x1
 6065 1c76 9C       		.byte	0x9c
 6066 1c77 60200000 		.4byte	0x2060
 6067 1c7b 29       		.uleb128 0x29
 6068 1c7c 06000000 		.4byte	.LVL61
 6069 1c80 A02F0000 		.4byte	0x2fa0
 6070 1c84 2A       		.uleb128 0x2a
 6071 1c85 0C000000 		.4byte	.LVL62
 6072 1c89 C42F0000 		.4byte	0x2fc4
 6073 1c8d 971C0000 		.4byte	0x1c97
ARM GAS  C:\Users\Mathieu\AppData\Local\Temp\ccqdbTbw.s 			page 181


 6074 1c91 2B       		.uleb128 0x2b
 6075 1c92 01       		.uleb128 0x1
 6076 1c93 50       		.byte	0x50
 6077 1c94 01       		.uleb128 0x1
 6078 1c95 32       		.byte	0x32
 6079 1c96 00       		.byte	0
 6080 1c97 29       		.uleb128 0x29
 6081 1c98 12000000 		.4byte	.LVL63
 6082 1c9c B82F0000 		.4byte	0x2fb8
 6083 1ca0 2A       		.uleb128 0x2a
 6084 1ca1 1E000000 		.4byte	.LVL64
 6085 1ca5 D02F0000 		.4byte	0x2fd0
 6086 1ca9 C41C0000 		.4byte	0x1cc4
 6087 1cad 2B       		.uleb128 0x2b
 6088 1cae 01       		.uleb128 0x1
 6089 1caf 50       		.byte	0x50
 6090 1cb0 02       		.uleb128 0x2
 6091 1cb1 08       		.byte	0x8
 6092 1cb2 52       		.byte	0x52
 6093 1cb3 2B       		.uleb128 0x2b
 6094 1cb4 01       		.uleb128 0x1
 6095 1cb5 51       		.byte	0x51
 6096 1cb6 01       		.uleb128 0x1
 6097 1cb7 34       		.byte	0x34
 6098 1cb8 2B       		.uleb128 0x2b
 6099 1cb9 01       		.uleb128 0x1
 6100 1cba 52       		.byte	0x52
 6101 1cbb 02       		.uleb128 0x2
 6102 1cbc 08       		.byte	0x8
 6103 1cbd B6       		.byte	0xb6
 6104 1cbe 2B       		.uleb128 0x2b
 6105 1cbf 01       		.uleb128 0x1
 6106 1cc0 53       		.byte	0x53
 6107 1cc1 01       		.uleb128 0x1
 6108 1cc2 48       		.byte	0x48
 6109 1cc3 00       		.byte	0
 6110 1cc4 2A       		.uleb128 0x2a
 6111 1cc5 28000000 		.4byte	.LVL65
 6112 1cc9 DC2F0000 		.4byte	0x2fdc
 6113 1ccd E61C0000 		.4byte	0x1ce6
 6114 1cd1 2B       		.uleb128 0x2b
 6115 1cd2 01       		.uleb128 0x1
 6116 1cd3 50       		.byte	0x50
 6117 1cd4 05       		.uleb128 0x5
 6118 1cd5 03       		.byte	0x3
 6119 1cd6 6C000000 		.4byte	.LC8
 6120 1cda 2B       		.uleb128 0x2b
 6121 1cdb 01       		.uleb128 0x1
 6122 1cdc 51       		.byte	0x51
 6123 1cdd 02       		.uleb128 0x2
 6124 1cde 08       		.byte	0x8
 6125 1cdf 76       		.byte	0x76
 6126 1ce0 2B       		.uleb128 0x2b
 6127 1ce1 01       		.uleb128 0x1
 6128 1ce2 52       		.byte	0x52
 6129 1ce3 01       		.uleb128 0x1
 6130 1ce4 38       		.byte	0x38
ARM GAS  C:\Users\Mathieu\AppData\Local\Temp\ccqdbTbw.s 			page 182


 6131 1ce5 00       		.byte	0
 6132 1ce6 2A       		.uleb128 0x2a
 6133 1ce7 36000000 		.4byte	.LVL66
 6134 1ceb D02F0000 		.4byte	0x2fd0
 6135 1cef 0B1D0000 		.4byte	0x1d0b
 6136 1cf3 2B       		.uleb128 0x2b
 6137 1cf4 01       		.uleb128 0x1
 6138 1cf5 50       		.byte	0x50
 6139 1cf6 01       		.uleb128 0x1
 6140 1cf7 37       		.byte	0x37
 6141 1cf8 2B       		.uleb128 0x2b
 6142 1cf9 01       		.uleb128 0x1
 6143 1cfa 51       		.byte	0x51
 6144 1cfb 01       		.uleb128 0x1
 6145 1cfc 4C       		.byte	0x4c
 6146 1cfd 2B       		.uleb128 0x2b
 6147 1cfe 01       		.uleb128 0x1
 6148 1cff 52       		.byte	0x52
 6149 1d00 03       		.uleb128 0x3
 6150 1d01 0A       		.byte	0xa
 6151 1d02 0101     		.2byte	0x101
 6152 1d04 2B       		.uleb128 0x2b
 6153 1d05 01       		.uleb128 0x1
 6154 1d06 53       		.byte	0x53
 6155 1d07 02       		.uleb128 0x2
 6156 1d08 08       		.byte	0x8
 6157 1d09 30       		.byte	0x30
 6158 1d0a 00       		.byte	0
 6159 1d0b 2A       		.uleb128 0x2a
 6160 1d0c 42000000 		.4byte	.LVL67
 6161 1d10 D02F0000 		.4byte	0x2fd0
 6162 1d14 2F1D0000 		.4byte	0x1d2f
 6163 1d18 2B       		.uleb128 0x2b
 6164 1d19 01       		.uleb128 0x1
 6165 1d1a 50       		.byte	0x50
 6166 1d1b 01       		.uleb128 0x1
 6167 1d1c 3A       		.byte	0x3a
 6168 1d1d 2B       		.uleb128 0x2b
 6169 1d1e 01       		.uleb128 0x1
 6170 1d1f 51       		.byte	0x51
 6171 1d20 02       		.uleb128 0x2
 6172 1d21 08       		.byte	0x8
 6173 1d22 20       		.byte	0x20
 6174 1d23 2B       		.uleb128 0x2b
 6175 1d24 01       		.uleb128 0x1
 6176 1d25 52       		.byte	0x52
 6177 1d26 01       		.uleb128 0x1
 6178 1d27 4E       		.byte	0x4e
 6179 1d28 2B       		.uleb128 0x2b
 6180 1d29 01       		.uleb128 0x1
 6181 1d2a 53       		.byte	0x53
 6182 1d2b 02       		.uleb128 0x2
 6183 1d2c 08       		.byte	0x8
 6184 1d2d 2C       		.byte	0x2c
 6185 1d2e 00       		.byte	0
 6186 1d2f 2A       		.uleb128 0x2a
 6187 1d30 4C000000 		.4byte	.LVL68
ARM GAS  C:\Users\Mathieu\AppData\Local\Temp\ccqdbTbw.s 			page 183


 6188 1d34 DC2F0000 		.4byte	0x2fdc
 6189 1d38 521D0000 		.4byte	0x1d52
 6190 1d3c 2B       		.uleb128 0x2b
 6191 1d3d 01       		.uleb128 0x1
 6192 1d3e 50       		.byte	0x50
 6193 1d3f 05       		.uleb128 0x5
 6194 1d40 03       		.byte	0x3
 6195 1d41 74000000 		.4byte	.LC9
 6196 1d45 2B       		.uleb128 0x2b
 6197 1d46 01       		.uleb128 0x1
 6198 1d47 51       		.byte	0x51
 6199 1d48 02       		.uleb128 0x2
 6200 1d49 08       		.byte	0x8
 6201 1d4a 3C       		.byte	0x3c
 6202 1d4b 2B       		.uleb128 0x2b
 6203 1d4c 01       		.uleb128 0x1
 6204 1d4d 52       		.byte	0x52
 6205 1d4e 02       		.uleb128 0x2
 6206 1d4f 08       		.byte	0x8
 6207 1d50 20       		.byte	0x20
 6208 1d51 00       		.byte	0
 6209 1d52 2A       		.uleb128 0x2a
 6210 1d53 5A000000 		.4byte	.LVL69
 6211 1d57 D02F0000 		.4byte	0x2fd0
 6212 1d5b 781D0000 		.4byte	0x1d78
 6213 1d5f 2B       		.uleb128 0x2b
 6214 1d60 01       		.uleb128 0x1
 6215 1d61 50       		.byte	0x50
 6216 1d62 01       		.uleb128 0x1
 6217 1d63 37       		.byte	0x37
 6218 1d64 2B       		.uleb128 0x2b
 6219 1d65 01       		.uleb128 0x1
 6220 1d66 51       		.byte	0x51
 6221 1d67 02       		.uleb128 0x2
 6222 1d68 08       		.byte	0x8
 6223 1d69 34       		.byte	0x34
 6224 1d6a 2B       		.uleb128 0x2b
 6225 1d6b 01       		.uleb128 0x1
 6226 1d6c 52       		.byte	0x52
 6227 1d6d 03       		.uleb128 0x3
 6228 1d6e 0A       		.byte	0xa
 6229 1d6f 0101     		.2byte	0x101
 6230 1d71 2B       		.uleb128 0x2b
 6231 1d72 01       		.uleb128 0x1
 6232 1d73 53       		.byte	0x53
 6233 1d74 02       		.uleb128 0x2
 6234 1d75 08       		.byte	0x8
 6235 1d76 48       		.byte	0x48
 6236 1d77 00       		.byte	0
 6237 1d78 2A       		.uleb128 0x2a
 6238 1d79 66000000 		.4byte	.LVL70
 6239 1d7d D02F0000 		.4byte	0x2fd0
 6240 1d81 9C1D0000 		.4byte	0x1d9c
 6241 1d85 2B       		.uleb128 0x2b
 6242 1d86 01       		.uleb128 0x1
 6243 1d87 50       		.byte	0x50
 6244 1d88 01       		.uleb128 0x1
ARM GAS  C:\Users\Mathieu\AppData\Local\Temp\ccqdbTbw.s 			page 184


 6245 1d89 3A       		.byte	0x3a
 6246 1d8a 2B       		.uleb128 0x2b
 6247 1d8b 01       		.uleb128 0x1
 6248 1d8c 51       		.byte	0x51
 6249 1d8d 02       		.uleb128 0x2
 6250 1d8e 08       		.byte	0x8
 6251 1d8f 38       		.byte	0x38
 6252 1d90 2B       		.uleb128 0x2b
 6253 1d91 01       		.uleb128 0x1
 6254 1d92 52       		.byte	0x52
 6255 1d93 01       		.uleb128 0x1
 6256 1d94 4E       		.byte	0x4e
 6257 1d95 2B       		.uleb128 0x2b
 6258 1d96 01       		.uleb128 0x1
 6259 1d97 53       		.byte	0x53
 6260 1d98 02       		.uleb128 0x2
 6261 1d99 08       		.byte	0x8
 6262 1d9a 44       		.byte	0x44
 6263 1d9b 00       		.byte	0
 6264 1d9c 2A       		.uleb128 0x2a
 6265 1d9d 70000000 		.4byte	.LVL71
 6266 1da1 DC2F0000 		.4byte	0x2fdc
 6267 1da5 BF1D0000 		.4byte	0x1dbf
 6268 1da9 2B       		.uleb128 0x2b
 6269 1daa 01       		.uleb128 0x1
 6270 1dab 50       		.byte	0x50
 6271 1dac 05       		.uleb128 0x5
 6272 1dad 03       		.byte	0x3
 6273 1dae 90000000 		.4byte	.LC10
 6274 1db2 2B       		.uleb128 0x2b
 6275 1db3 01       		.uleb128 0x1
 6276 1db4 51       		.byte	0x51
 6277 1db5 02       		.uleb128 0x2
 6278 1db6 08       		.byte	0x8
 6279 1db7 3C       		.byte	0x3c
 6280 1db8 2B       		.uleb128 0x2b
 6281 1db9 01       		.uleb128 0x1
 6282 1dba 52       		.byte	0x52
 6283 1dbb 02       		.uleb128 0x2
 6284 1dbc 08       		.byte	0x8
 6285 1dbd 38       		.byte	0x38
 6286 1dbe 00       		.byte	0
 6287 1dbf 2A       		.uleb128 0x2a
 6288 1dc0 7E000000 		.4byte	.LVL72
 6289 1dc4 D02F0000 		.4byte	0x2fd0
 6290 1dc8 E51D0000 		.4byte	0x1de5
 6291 1dcc 2B       		.uleb128 0x2b
 6292 1dcd 01       		.uleb128 0x1
 6293 1dce 50       		.byte	0x50
 6294 1dcf 01       		.uleb128 0x1
 6295 1dd0 37       		.byte	0x37
 6296 1dd1 2B       		.uleb128 0x2b
 6297 1dd2 01       		.uleb128 0x1
 6298 1dd3 51       		.byte	0x51
 6299 1dd4 02       		.uleb128 0x2
 6300 1dd5 08       		.byte	0x8
 6301 1dd6 4C       		.byte	0x4c
ARM GAS  C:\Users\Mathieu\AppData\Local\Temp\ccqdbTbw.s 			page 185


 6302 1dd7 2B       		.uleb128 0x2b
 6303 1dd8 01       		.uleb128 0x1
 6304 1dd9 52       		.byte	0x52
 6305 1dda 03       		.uleb128 0x3
 6306 1ddb 0A       		.byte	0xa
 6307 1ddc 0101     		.2byte	0x101
 6308 1dde 2B       		.uleb128 0x2b
 6309 1ddf 01       		.uleb128 0x1
 6310 1de0 53       		.byte	0x53
 6311 1de1 02       		.uleb128 0x2
 6312 1de2 08       		.byte	0x8
 6313 1de3 60       		.byte	0x60
 6314 1de4 00       		.byte	0
 6315 1de5 2A       		.uleb128 0x2a
 6316 1de6 8A000000 		.4byte	.LVL73
 6317 1dea D02F0000 		.4byte	0x2fd0
 6318 1dee 091E0000 		.4byte	0x1e09
 6319 1df2 2B       		.uleb128 0x2b
 6320 1df3 01       		.uleb128 0x1
 6321 1df4 50       		.byte	0x50
 6322 1df5 01       		.uleb128 0x1
 6323 1df6 3A       		.byte	0x3a
 6324 1df7 2B       		.uleb128 0x2b
 6325 1df8 01       		.uleb128 0x1
 6326 1df9 51       		.byte	0x51
 6327 1dfa 02       		.uleb128 0x2
 6328 1dfb 08       		.byte	0x8
 6329 1dfc 50       		.byte	0x50
 6330 1dfd 2B       		.uleb128 0x2b
 6331 1dfe 01       		.uleb128 0x1
 6332 1dff 52       		.byte	0x52
 6333 1e00 01       		.uleb128 0x1
 6334 1e01 4E       		.byte	0x4e
 6335 1e02 2B       		.uleb128 0x2b
 6336 1e03 01       		.uleb128 0x1
 6337 1e04 53       		.byte	0x53
 6338 1e05 02       		.uleb128 0x2
 6339 1e06 08       		.byte	0x8
 6340 1e07 5C       		.byte	0x5c
 6341 1e08 00       		.byte	0
 6342 1e09 2A       		.uleb128 0x2a
 6343 1e0a 94000000 		.4byte	.LVL74
 6344 1e0e DC2F0000 		.4byte	0x2fdc
 6345 1e12 2C1E0000 		.4byte	0x1e2c
 6346 1e16 2B       		.uleb128 0x2b
 6347 1e17 01       		.uleb128 0x1
 6348 1e18 50       		.byte	0x50
 6349 1e19 05       		.uleb128 0x5
 6350 1e1a 03       		.byte	0x3
 6351 1e1b A4000000 		.4byte	.LC11
 6352 1e1f 2B       		.uleb128 0x2b
 6353 1e20 01       		.uleb128 0x1
 6354 1e21 51       		.byte	0x51
 6355 1e22 02       		.uleb128 0x2
 6356 1e23 08       		.byte	0x8
 6357 1e24 3C       		.byte	0x3c
 6358 1e25 2B       		.uleb128 0x2b
ARM GAS  C:\Users\Mathieu\AppData\Local\Temp\ccqdbTbw.s 			page 186


 6359 1e26 01       		.uleb128 0x1
 6360 1e27 52       		.byte	0x52
 6361 1e28 02       		.uleb128 0x2
 6362 1e29 08       		.byte	0x8
 6363 1e2a 50       		.byte	0x50
 6364 1e2b 00       		.byte	0
 6365 1e2c 2A       		.uleb128 0x2a
 6366 1e2d A2000000 		.4byte	.LVL75
 6367 1e31 D02F0000 		.4byte	0x2fd0
 6368 1e35 521E0000 		.4byte	0x1e52
 6369 1e39 2B       		.uleb128 0x2b
 6370 1e3a 01       		.uleb128 0x1
 6371 1e3b 50       		.byte	0x50
 6372 1e3c 01       		.uleb128 0x1
 6373 1e3d 37       		.byte	0x37
 6374 1e3e 2B       		.uleb128 0x2b
 6375 1e3f 01       		.uleb128 0x1
 6376 1e40 51       		.byte	0x51
 6377 1e41 02       		.uleb128 0x2
 6378 1e42 08       		.byte	0x8
 6379 1e43 64       		.byte	0x64
 6380 1e44 2B       		.uleb128 0x2b
 6381 1e45 01       		.uleb128 0x1
 6382 1e46 52       		.byte	0x52
 6383 1e47 03       		.uleb128 0x3
 6384 1e48 0A       		.byte	0xa
 6385 1e49 0101     		.2byte	0x101
 6386 1e4b 2B       		.uleb128 0x2b
 6387 1e4c 01       		.uleb128 0x1
 6388 1e4d 53       		.byte	0x53
 6389 1e4e 02       		.uleb128 0x2
 6390 1e4f 08       		.byte	0x8
 6391 1e50 78       		.byte	0x78
 6392 1e51 00       		.byte	0
 6393 1e52 2A       		.uleb128 0x2a
 6394 1e53 AE000000 		.4byte	.LVL76
 6395 1e57 D02F0000 		.4byte	0x2fd0
 6396 1e5b 761E0000 		.4byte	0x1e76
 6397 1e5f 2B       		.uleb128 0x2b
 6398 1e60 01       		.uleb128 0x1
 6399 1e61 50       		.byte	0x50
 6400 1e62 01       		.uleb128 0x1
 6401 1e63 3A       		.byte	0x3a
 6402 1e64 2B       		.uleb128 0x2b
 6403 1e65 01       		.uleb128 0x1
 6404 1e66 51       		.byte	0x51
 6405 1e67 02       		.uleb128 0x2
 6406 1e68 08       		.byte	0x8
 6407 1e69 68       		.byte	0x68
 6408 1e6a 2B       		.uleb128 0x2b
 6409 1e6b 01       		.uleb128 0x1
 6410 1e6c 52       		.byte	0x52
 6411 1e6d 01       		.uleb128 0x1
 6412 1e6e 4E       		.byte	0x4e
 6413 1e6f 2B       		.uleb128 0x2b
 6414 1e70 01       		.uleb128 0x1
 6415 1e71 53       		.byte	0x53
ARM GAS  C:\Users\Mathieu\AppData\Local\Temp\ccqdbTbw.s 			page 187


 6416 1e72 02       		.uleb128 0x2
 6417 1e73 08       		.byte	0x8
 6418 1e74 74       		.byte	0x74
 6419 1e75 00       		.byte	0
 6420 1e76 2A       		.uleb128 0x2a
 6421 1e77 B8000000 		.4byte	.LVL77
 6422 1e7b DC2F0000 		.4byte	0x2fdc
 6423 1e7f 991E0000 		.4byte	0x1e99
 6424 1e83 2B       		.uleb128 0x2b
 6425 1e84 01       		.uleb128 0x1
 6426 1e85 50       		.byte	0x50
 6427 1e86 05       		.uleb128 0x5
 6428 1e87 03       		.byte	0x3
 6429 1e88 B8000000 		.4byte	.LC12
 6430 1e8c 2B       		.uleb128 0x2b
 6431 1e8d 01       		.uleb128 0x1
 6432 1e8e 51       		.byte	0x51
 6433 1e8f 02       		.uleb128 0x2
 6434 1e90 08       		.byte	0x8
 6435 1e91 3C       		.byte	0x3c
 6436 1e92 2B       		.uleb128 0x2b
 6437 1e93 01       		.uleb128 0x1
 6438 1e94 52       		.byte	0x52
 6439 1e95 02       		.uleb128 0x2
 6440 1e96 08       		.byte	0x8
 6441 1e97 68       		.byte	0x68
 6442 1e98 00       		.byte	0
 6443 1e99 2A       		.uleb128 0x2a
 6444 1e9a C6000000 		.4byte	.LVL78
 6445 1e9e D02F0000 		.4byte	0x2fd0
 6446 1ea2 BF1E0000 		.4byte	0x1ebf
 6447 1ea6 2B       		.uleb128 0x2b
 6448 1ea7 01       		.uleb128 0x1
 6449 1ea8 50       		.byte	0x50
 6450 1ea9 01       		.uleb128 0x1
 6451 1eaa 37       		.byte	0x37
 6452 1eab 2B       		.uleb128 0x2b
 6453 1eac 01       		.uleb128 0x1
 6454 1ead 51       		.byte	0x51
 6455 1eae 02       		.uleb128 0x2
 6456 1eaf 08       		.byte	0x8
 6457 1eb0 7C       		.byte	0x7c
 6458 1eb1 2B       		.uleb128 0x2b
 6459 1eb2 01       		.uleb128 0x1
 6460 1eb3 52       		.byte	0x52
 6461 1eb4 03       		.uleb128 0x3
 6462 1eb5 0A       		.byte	0xa
 6463 1eb6 0101     		.2byte	0x101
 6464 1eb8 2B       		.uleb128 0x2b
 6465 1eb9 01       		.uleb128 0x1
 6466 1eba 53       		.byte	0x53
 6467 1ebb 02       		.uleb128 0x2
 6468 1ebc 08       		.byte	0x8
 6469 1ebd 90       		.byte	0x90
 6470 1ebe 00       		.byte	0
 6471 1ebf 2A       		.uleb128 0x2a
 6472 1ec0 D2000000 		.4byte	.LVL79
ARM GAS  C:\Users\Mathieu\AppData\Local\Temp\ccqdbTbw.s 			page 188


 6473 1ec4 D02F0000 		.4byte	0x2fd0
 6474 1ec8 E31E0000 		.4byte	0x1ee3
 6475 1ecc 2B       		.uleb128 0x2b
 6476 1ecd 01       		.uleb128 0x1
 6477 1ece 50       		.byte	0x50
 6478 1ecf 01       		.uleb128 0x1
 6479 1ed0 3A       		.byte	0x3a
 6480 1ed1 2B       		.uleb128 0x2b
 6481 1ed2 01       		.uleb128 0x1
 6482 1ed3 51       		.byte	0x51
 6483 1ed4 02       		.uleb128 0x2
 6484 1ed5 08       		.byte	0x8
 6485 1ed6 80       		.byte	0x80
 6486 1ed7 2B       		.uleb128 0x2b
 6487 1ed8 01       		.uleb128 0x1
 6488 1ed9 52       		.byte	0x52
 6489 1eda 01       		.uleb128 0x1
 6490 1edb 4E       		.byte	0x4e
 6491 1edc 2B       		.uleb128 0x2b
 6492 1edd 01       		.uleb128 0x1
 6493 1ede 53       		.byte	0x53
 6494 1edf 02       		.uleb128 0x2
 6495 1ee0 08       		.byte	0x8
 6496 1ee1 8C       		.byte	0x8c
 6497 1ee2 00       		.byte	0
 6498 1ee3 2A       		.uleb128 0x2a
 6499 1ee4 DC000000 		.4byte	.LVL80
 6500 1ee8 DC2F0000 		.4byte	0x2fdc
 6501 1eec 061F0000 		.4byte	0x1f06
 6502 1ef0 2B       		.uleb128 0x2b
 6503 1ef1 01       		.uleb128 0x1
 6504 1ef2 50       		.byte	0x50
 6505 1ef3 05       		.uleb128 0x5
 6506 1ef4 03       		.byte	0x3
 6507 1ef5 D0000000 		.4byte	.LC13
 6508 1ef9 2B       		.uleb128 0x2b
 6509 1efa 01       		.uleb128 0x1
 6510 1efb 51       		.byte	0x51
 6511 1efc 02       		.uleb128 0x2
 6512 1efd 08       		.byte	0x8
 6513 1efe 3C       		.byte	0x3c
 6514 1eff 2B       		.uleb128 0x2b
 6515 1f00 01       		.uleb128 0x1
 6516 1f01 52       		.byte	0x52
 6517 1f02 02       		.uleb128 0x2
 6518 1f03 08       		.byte	0x8
 6519 1f04 80       		.byte	0x80
 6520 1f05 00       		.byte	0
 6521 1f06 2A       		.uleb128 0x2a
 6522 1f07 EA000000 		.4byte	.LVL81
 6523 1f0b D02F0000 		.4byte	0x2fd0
 6524 1f0f 2C1F0000 		.4byte	0x1f2c
 6525 1f13 2B       		.uleb128 0x2b
 6526 1f14 01       		.uleb128 0x1
 6527 1f15 50       		.byte	0x50
 6528 1f16 01       		.uleb128 0x1
 6529 1f17 37       		.byte	0x37
ARM GAS  C:\Users\Mathieu\AppData\Local\Temp\ccqdbTbw.s 			page 189


 6530 1f18 2B       		.uleb128 0x2b
 6531 1f19 01       		.uleb128 0x1
 6532 1f1a 51       		.byte	0x51
 6533 1f1b 02       		.uleb128 0x2
 6534 1f1c 08       		.byte	0x8
 6535 1f1d 94       		.byte	0x94
 6536 1f1e 2B       		.uleb128 0x2b
 6537 1f1f 01       		.uleb128 0x1
 6538 1f20 52       		.byte	0x52
 6539 1f21 03       		.uleb128 0x3
 6540 1f22 0A       		.byte	0xa
 6541 1f23 0101     		.2byte	0x101
 6542 1f25 2B       		.uleb128 0x2b
 6543 1f26 01       		.uleb128 0x1
 6544 1f27 53       		.byte	0x53
 6545 1f28 02       		.uleb128 0x2
 6546 1f29 08       		.byte	0x8
 6547 1f2a A8       		.byte	0xa8
 6548 1f2b 00       		.byte	0
 6549 1f2c 2A       		.uleb128 0x2a
 6550 1f2d F6000000 		.4byte	.LVL82
 6551 1f31 D02F0000 		.4byte	0x2fd0
 6552 1f35 501F0000 		.4byte	0x1f50
 6553 1f39 2B       		.uleb128 0x2b
 6554 1f3a 01       		.uleb128 0x1
 6555 1f3b 50       		.byte	0x50
 6556 1f3c 01       		.uleb128 0x1
 6557 1f3d 3A       		.byte	0x3a
 6558 1f3e 2B       		.uleb128 0x2b
 6559 1f3f 01       		.uleb128 0x1
 6560 1f40 51       		.byte	0x51
 6561 1f41 02       		.uleb128 0x2
 6562 1f42 08       		.byte	0x8
 6563 1f43 98       		.byte	0x98
 6564 1f44 2B       		.uleb128 0x2b
 6565 1f45 01       		.uleb128 0x1
 6566 1f46 52       		.byte	0x52
 6567 1f47 01       		.uleb128 0x1
 6568 1f48 4E       		.byte	0x4e
 6569 1f49 2B       		.uleb128 0x2b
 6570 1f4a 01       		.uleb128 0x1
 6571 1f4b 53       		.byte	0x53
 6572 1f4c 02       		.uleb128 0x2
 6573 1f4d 08       		.byte	0x8
 6574 1f4e A4       		.byte	0xa4
 6575 1f4f 00       		.byte	0
 6576 1f50 2A       		.uleb128 0x2a
 6577 1f51 00010000 		.4byte	.LVL83
 6578 1f55 DC2F0000 		.4byte	0x2fdc
 6579 1f59 731F0000 		.4byte	0x1f73
 6580 1f5d 2B       		.uleb128 0x2b
 6581 1f5e 01       		.uleb128 0x1
 6582 1f5f 50       		.byte	0x50
 6583 1f60 05       		.uleb128 0x5
 6584 1f61 03       		.byte	0x3
 6585 1f62 EC000000 		.4byte	.LC14
 6586 1f66 2B       		.uleb128 0x2b
ARM GAS  C:\Users\Mathieu\AppData\Local\Temp\ccqdbTbw.s 			page 190


 6587 1f67 01       		.uleb128 0x1
 6588 1f68 51       		.byte	0x51
 6589 1f69 02       		.uleb128 0x2
 6590 1f6a 08       		.byte	0x8
 6591 1f6b 3C       		.byte	0x3c
 6592 1f6c 2B       		.uleb128 0x2b
 6593 1f6d 01       		.uleb128 0x1
 6594 1f6e 52       		.byte	0x52
 6595 1f6f 02       		.uleb128 0x2
 6596 1f70 08       		.byte	0x8
 6597 1f71 98       		.byte	0x98
 6598 1f72 00       		.byte	0
 6599 1f73 2A       		.uleb128 0x2a
 6600 1f74 20010000 		.4byte	.LVL84
 6601 1f78 E82F0000 		.4byte	0x2fe8
 6602 1f7c 971F0000 		.4byte	0x1f97
 6603 1f80 2B       		.uleb128 0x2b
 6604 1f81 01       		.uleb128 0x1
 6605 1f82 50       		.byte	0x50
 6606 1f83 01       		.uleb128 0x1
 6607 1f84 3A       		.byte	0x3a
 6608 1f85 2B       		.uleb128 0x2b
 6609 1f86 01       		.uleb128 0x1
 6610 1f87 51       		.byte	0x51
 6611 1f88 02       		.uleb128 0x2
 6612 1f89 08       		.byte	0x8
 6613 1f8a 20       		.byte	0x20
 6614 1f8b 2B       		.uleb128 0x2b
 6615 1f8c 01       		.uleb128 0x1
 6616 1f8d 52       		.byte	0x52
 6617 1f8e 01       		.uleb128 0x1
 6618 1f8f 4E       		.byte	0x4e
 6619 1f90 2B       		.uleb128 0x2b
 6620 1f91 01       		.uleb128 0x1
 6621 1f92 53       		.byte	0x53
 6622 1f93 02       		.uleb128 0x2
 6623 1f94 08       		.byte	0x8
 6624 1f95 2C       		.byte	0x2c
 6625 1f96 00       		.byte	0
 6626 1f97 2A       		.uleb128 0x2a
 6627 1f98 2E010000 		.4byte	.LVL85
 6628 1f9c E82F0000 		.4byte	0x2fe8
 6629 1fa0 BB1F0000 		.4byte	0x1fbb
 6630 1fa4 2B       		.uleb128 0x2b
 6631 1fa5 01       		.uleb128 0x1
 6632 1fa6 50       		.byte	0x50
 6633 1fa7 01       		.uleb128 0x1
 6634 1fa8 3A       		.byte	0x3a
 6635 1fa9 2B       		.uleb128 0x2b
 6636 1faa 01       		.uleb128 0x1
 6637 1fab 51       		.byte	0x51
 6638 1fac 02       		.uleb128 0x2
 6639 1fad 08       		.byte	0x8
 6640 1fae 38       		.byte	0x38
 6641 1faf 2B       		.uleb128 0x2b
 6642 1fb0 01       		.uleb128 0x1
 6643 1fb1 52       		.byte	0x52
ARM GAS  C:\Users\Mathieu\AppData\Local\Temp\ccqdbTbw.s 			page 191


 6644 1fb2 01       		.uleb128 0x1
 6645 1fb3 4E       		.byte	0x4e
 6646 1fb4 2B       		.uleb128 0x2b
 6647 1fb5 01       		.uleb128 0x1
 6648 1fb6 53       		.byte	0x53
 6649 1fb7 02       		.uleb128 0x2
 6650 1fb8 08       		.byte	0x8
 6651 1fb9 44       		.byte	0x44
 6652 1fba 00       		.byte	0
 6653 1fbb 2A       		.uleb128 0x2a
 6654 1fbc 3C010000 		.4byte	.LVL86
 6655 1fc0 E82F0000 		.4byte	0x2fe8
 6656 1fc4 DF1F0000 		.4byte	0x1fdf
 6657 1fc8 2B       		.uleb128 0x2b
 6658 1fc9 01       		.uleb128 0x1
 6659 1fca 50       		.byte	0x50
 6660 1fcb 01       		.uleb128 0x1
 6661 1fcc 3A       		.byte	0x3a
 6662 1fcd 2B       		.uleb128 0x2b
 6663 1fce 01       		.uleb128 0x1
 6664 1fcf 51       		.byte	0x51
 6665 1fd0 02       		.uleb128 0x2
 6666 1fd1 08       		.byte	0x8
 6667 1fd2 50       		.byte	0x50
 6668 1fd3 2B       		.uleb128 0x2b
 6669 1fd4 01       		.uleb128 0x1
 6670 1fd5 52       		.byte	0x52
 6671 1fd6 01       		.uleb128 0x1
 6672 1fd7 4E       		.byte	0x4e
 6673 1fd8 2B       		.uleb128 0x2b
 6674 1fd9 01       		.uleb128 0x1
 6675 1fda 53       		.byte	0x53
 6676 1fdb 02       		.uleb128 0x2
 6677 1fdc 08       		.byte	0x8
 6678 1fdd 5C       		.byte	0x5c
 6679 1fde 00       		.byte	0
 6680 1fdf 2A       		.uleb128 0x2a
 6681 1fe0 4A010000 		.4byte	.LVL87
 6682 1fe4 E82F0000 		.4byte	0x2fe8
 6683 1fe8 03200000 		.4byte	0x2003
 6684 1fec 2B       		.uleb128 0x2b
 6685 1fed 01       		.uleb128 0x1
 6686 1fee 50       		.byte	0x50
 6687 1fef 01       		.uleb128 0x1
 6688 1ff0 3A       		.byte	0x3a
 6689 1ff1 2B       		.uleb128 0x2b
 6690 1ff2 01       		.uleb128 0x1
 6691 1ff3 51       		.byte	0x51
 6692 1ff4 02       		.uleb128 0x2
 6693 1ff5 08       		.byte	0x8
 6694 1ff6 68       		.byte	0x68
 6695 1ff7 2B       		.uleb128 0x2b
 6696 1ff8 01       		.uleb128 0x1
 6697 1ff9 52       		.byte	0x52
 6698 1ffa 01       		.uleb128 0x1
 6699 1ffb 4E       		.byte	0x4e
 6700 1ffc 2B       		.uleb128 0x2b
ARM GAS  C:\Users\Mathieu\AppData\Local\Temp\ccqdbTbw.s 			page 192


 6701 1ffd 01       		.uleb128 0x1
 6702 1ffe 53       		.byte	0x53
 6703 1fff 02       		.uleb128 0x2
 6704 2000 08       		.byte	0x8
 6705 2001 74       		.byte	0x74
 6706 2002 00       		.byte	0
 6707 2003 2A       		.uleb128 0x2a
 6708 2004 58010000 		.4byte	.LVL88
 6709 2008 E82F0000 		.4byte	0x2fe8
 6710 200c 27200000 		.4byte	0x2027
 6711 2010 2B       		.uleb128 0x2b
 6712 2011 01       		.uleb128 0x1
 6713 2012 50       		.byte	0x50
 6714 2013 01       		.uleb128 0x1
 6715 2014 3A       		.byte	0x3a
 6716 2015 2B       		.uleb128 0x2b
 6717 2016 01       		.uleb128 0x1
 6718 2017 51       		.byte	0x51
 6719 2018 02       		.uleb128 0x2
 6720 2019 08       		.byte	0x8
 6721 201a 80       		.byte	0x80
 6722 201b 2B       		.uleb128 0x2b
 6723 201c 01       		.uleb128 0x1
 6724 201d 52       		.byte	0x52
 6725 201e 01       		.uleb128 0x1
 6726 201f 4E       		.byte	0x4e
 6727 2020 2B       		.uleb128 0x2b
 6728 2021 01       		.uleb128 0x1
 6729 2022 53       		.byte	0x53
 6730 2023 02       		.uleb128 0x2
 6731 2024 08       		.byte	0x8
 6732 2025 8C       		.byte	0x8c
 6733 2026 00       		.byte	0
 6734 2027 2A       		.uleb128 0x2a
 6735 2028 66010000 		.4byte	.LVL89
 6736 202c E82F0000 		.4byte	0x2fe8
 6737 2030 4B200000 		.4byte	0x204b
 6738 2034 2B       		.uleb128 0x2b
 6739 2035 01       		.uleb128 0x1
 6740 2036 50       		.byte	0x50
 6741 2037 01       		.uleb128 0x1
 6742 2038 3A       		.byte	0x3a
 6743 2039 2B       		.uleb128 0x2b
 6744 203a 01       		.uleb128 0x1
 6745 203b 51       		.byte	0x51
 6746 203c 02       		.uleb128 0x2
 6747 203d 08       		.byte	0x8
 6748 203e 98       		.byte	0x98
 6749 203f 2B       		.uleb128 0x2b
 6750 2040 01       		.uleb128 0x1
 6751 2041 52       		.byte	0x52
 6752 2042 01       		.uleb128 0x1
 6753 2043 4E       		.byte	0x4e
 6754 2044 2B       		.uleb128 0x2b
 6755 2045 01       		.uleb128 0x1
 6756 2046 53       		.byte	0x53
 6757 2047 02       		.uleb128 0x2
ARM GAS  C:\Users\Mathieu\AppData\Local\Temp\ccqdbTbw.s 			page 193


 6758 2048 08       		.byte	0x8
 6759 2049 A4       		.byte	0xa4
 6760 204a 00       		.byte	0
 6761 204b 2C       		.uleb128 0x2c
 6762 204c 6E010000 		.4byte	.LVL90
 6763 2050 23160000 		.4byte	0x1623
 6764 2054 2B       		.uleb128 0x2b
 6765 2055 01       		.uleb128 0x1
 6766 2056 50       		.byte	0x50
 6767 2057 01       		.uleb128 0x1
 6768 2058 31       		.byte	0x31
 6769 2059 2B       		.uleb128 0x2b
 6770 205a 01       		.uleb128 0x1
 6771 205b 51       		.byte	0x51
 6772 205c 01       		.uleb128 0x1
 6773 205d 31       		.byte	0x31
 6774 205e 00       		.byte	0
 6775 205f 00       		.byte	0
 6776 2060 31       		.uleb128 0x31
 6777 2061 4B0B0000 		.4byte	.LASF464
 6778 2065 01       		.byte	0x1
 6779 2066 3701     		.2byte	0x137
 6780 2068 00000000 		.4byte	.LFB666
 6781 206c FC070000 		.4byte	.LFE666-.LFB666
 6782 2070 01       		.uleb128 0x1
 6783 2071 9C       		.byte	0x9c
 6784 2072 CD2C0000 		.4byte	0x2ccd
 6785 2076 32       		.uleb128 0x32
 6786 2077 79020000 		.4byte	.LASF465
 6787 207b 01       		.byte	0x1
 6788 207c 3A01     		.2byte	0x13a
 6789 207e 60040000 		.4byte	0x460
 6790 2082 1E010000 		.4byte	.LLST9
 6791 2086 32       		.uleb128 0x32
 6792 2087 770A0000 		.4byte	.LASF466
 6793 208b 01       		.byte	0x1
 6794 208c 3B01     		.2byte	0x13b
 6795 208e 60040000 		.4byte	0x460
 6796 2092 1E020000 		.4byte	.LLST10
 6797 2096 32       		.uleb128 0x32
 6798 2097 9F220000 		.4byte	.LASF467
 6799 209b 01       		.byte	0x1
 6800 209c 3C01     		.2byte	0x13c
 6801 209e 60040000 		.4byte	0x460
 6802 20a2 07030000 		.4byte	.LLST11
 6803 20a6 2E       		.uleb128 0x2e
 6804 20a7 18000000 		.4byte	.Ldebug_ranges0+0x18
 6805 20ab AF2C0000 		.4byte	0x2caf
 6806 20af 33       		.uleb128 0x33
 6807 20b0 D81D0000 		.4byte	.LASF468
 6808 20b4 01       		.byte	0x1
 6809 20b5 7C01     		.2byte	0x17c
 6810 20b7 CD2C0000 		.4byte	0x2ccd
 6811 20bb 02       		.uleb128 0x2
 6812 20bc 91       		.byte	0x91
 6813 20bd 5C       		.sleb128 -36
 6814 20be 33       		.uleb128 0x33
ARM GAS  C:\Users\Mathieu\AppData\Local\Temp\ccqdbTbw.s 			page 194


 6815 20bf 571F0000 		.4byte	.LASF469
 6816 20c3 01       		.byte	0x1
 6817 20c4 BB01     		.2byte	0x1bb
 6818 20c6 CD2C0000 		.4byte	0x2ccd
 6819 20ca 02       		.uleb128 0x2
 6820 20cb 91       		.byte	0x91
 6821 20cc 5C       		.sleb128 -36
 6822 20cd 33       		.uleb128 0x33
 6823 20ce 261B0000 		.4byte	.LASF470
 6824 20d2 01       		.byte	0x1
 6825 20d3 FA01     		.2byte	0x1fa
 6826 20d5 CD2C0000 		.4byte	0x2ccd
 6827 20d9 02       		.uleb128 0x2
 6828 20da 91       		.byte	0x91
 6829 20db 5C       		.sleb128 -36
 6830 20dc 33       		.uleb128 0x33
 6831 20dd 2A050000 		.4byte	.LASF471
 6832 20e1 01       		.byte	0x1
 6833 20e2 3502     		.2byte	0x235
 6834 20e4 DD2C0000 		.4byte	0x2cdd
 6835 20e8 02       		.uleb128 0x2
 6836 20e9 91       		.byte	0x91
 6837 20ea 5C       		.sleb128 -36
 6838 20eb 33       		.uleb128 0x33
 6839 20ec 3B050000 		.4byte	.LASF472
 6840 20f0 01       		.byte	0x1
 6841 20f1 7202     		.2byte	0x272
 6842 20f3 DD2C0000 		.4byte	0x2cdd
 6843 20f7 02       		.uleb128 0x2
 6844 20f8 91       		.byte	0x91
 6845 20f9 5C       		.sleb128 -36
 6846 20fa 2A       		.uleb128 0x2a
 6847 20fb 30000000 		.4byte	.LVL92
 6848 20ff D02F0000 		.4byte	0x2fd0
 6849 2103 1D210000 		.4byte	0x211d
 6850 2107 2B       		.uleb128 0x2b
 6851 2108 01       		.uleb128 0x1
 6852 2109 50       		.byte	0x50
 6853 210a 01       		.uleb128 0x1
 6854 210b 46       		.byte	0x46
 6855 210c 2B       		.uleb128 0x2b
 6856 210d 01       		.uleb128 0x1
 6857 210e 51       		.byte	0x51
 6858 210f 01       		.uleb128 0x1
 6859 2110 34       		.byte	0x34
 6860 2111 2B       		.uleb128 0x2b
 6861 2112 01       		.uleb128 0x1
 6862 2113 52       		.byte	0x52
 6863 2114 02       		.uleb128 0x2
 6864 2115 08       		.byte	0x8
 6865 2116 F2       		.byte	0xf2
 6866 2117 2B       		.uleb128 0x2b
 6867 2118 01       		.uleb128 0x1
 6868 2119 53       		.byte	0x53
 6869 211a 01       		.uleb128 0x1
 6870 211b 4E       		.byte	0x4e
 6871 211c 00       		.byte	0
ARM GAS  C:\Users\Mathieu\AppData\Local\Temp\ccqdbTbw.s 			page 195


 6872 211d 29       		.uleb128 0x29
 6873 211e 36000000 		.4byte	.LVL93
 6874 2122 B82F0000 		.4byte	0x2fb8
 6875 2126 2A       		.uleb128 0x2a
 6876 2127 40000000 		.4byte	.LVL94
 6877 212b DC2F0000 		.4byte	0x2fdc
 6878 212f 48210000 		.4byte	0x2148
 6879 2133 2B       		.uleb128 0x2b
 6880 2134 01       		.uleb128 0x1
 6881 2135 50       		.byte	0x50
 6882 2136 05       		.uleb128 0x5
 6883 2137 03       		.byte	0x3
 6884 2138 74000000 		.4byte	.LC9
 6885 213c 2B       		.uleb128 0x2b
 6886 213d 01       		.uleb128 0x1
 6887 213e 51       		.byte	0x51
 6888 213f 02       		.uleb128 0x2
 6889 2140 08       		.byte	0x8
 6890 2141 32       		.byte	0x32
 6891 2142 2B       		.uleb128 0x2b
 6892 2143 01       		.uleb128 0x1
 6893 2144 52       		.byte	0x52
 6894 2145 01       		.uleb128 0x1
 6895 2146 38       		.byte	0x38
 6896 2147 00       		.byte	0
 6897 2148 29       		.uleb128 0x29
 6898 2149 46000000 		.4byte	.LVL95
 6899 214d B82F0000 		.4byte	0x2fb8
 6900 2151 2A       		.uleb128 0x2a
 6901 2152 50000000 		.4byte	.LVL96
 6902 2156 DC2F0000 		.4byte	0x2fdc
 6903 215a 74210000 		.4byte	0x2174
 6904 215e 2B       		.uleb128 0x2b
 6905 215f 01       		.uleb128 0x1
 6906 2160 50       		.byte	0x50
 6907 2161 05       		.uleb128 0x5
 6908 2162 03       		.byte	0x3
 6909 2163 10010000 		.4byte	.LC15
 6910 2167 2B       		.uleb128 0x2b
 6911 2168 01       		.uleb128 0x1
 6912 2169 51       		.byte	0x51
 6913 216a 02       		.uleb128 0x2
 6914 216b 08       		.byte	0x8
 6915 216c 28       		.byte	0x28
 6916 216d 2B       		.uleb128 0x2b
 6917 216e 01       		.uleb128 0x1
 6918 216f 52       		.byte	0x52
 6919 2170 02       		.uleb128 0x2
 6920 2171 08       		.byte	0x8
 6921 2172 22       		.byte	0x22
 6922 2173 00       		.byte	0
 6923 2174 29       		.uleb128 0x29
 6924 2175 56000000 		.4byte	.LVL97
 6925 2179 B82F0000 		.4byte	0x2fb8
 6926 217d 2A       		.uleb128 0x2a
 6927 217e 60000000 		.4byte	.LVL98
 6928 2182 DC2F0000 		.4byte	0x2fdc
ARM GAS  C:\Users\Mathieu\AppData\Local\Temp\ccqdbTbw.s 			page 196


 6929 2186 A0210000 		.4byte	0x21a0
 6930 218a 2B       		.uleb128 0x2b
 6931 218b 01       		.uleb128 0x1
 6932 218c 50       		.byte	0x50
 6933 218d 05       		.uleb128 0x5
 6934 218e 03       		.byte	0x3
 6935 218f 0C000000 		.4byte	.LC1
 6936 2193 2B       		.uleb128 0x2b
 6937 2194 01       		.uleb128 0x1
 6938 2195 51       		.byte	0x51
 6939 2196 02       		.uleb128 0x2
 6940 2197 08       		.byte	0x8
 6941 2198 69       		.byte	0x69
 6942 2199 2B       		.uleb128 0x2b
 6943 219a 01       		.uleb128 0x1
 6944 219b 52       		.byte	0x52
 6945 219c 02       		.uleb128 0x2
 6946 219d 08       		.byte	0x8
 6947 219e 64       		.byte	0x64
 6948 219f 00       		.byte	0
 6949 21a0 2A       		.uleb128 0x2a
 6950 21a1 6A000000 		.4byte	.LVL99
 6951 21a5 DC2F0000 		.4byte	0x2fdc
 6952 21a9 C3210000 		.4byte	0x21c3
 6953 21ad 2B       		.uleb128 0x2b
 6954 21ae 01       		.uleb128 0x1
 6955 21af 50       		.byte	0x50
 6956 21b0 05       		.uleb128 0x5
 6957 21b1 03       		.byte	0x3
 6958 21b2 10000000 		.4byte	.LC2
 6959 21b6 2B       		.uleb128 0x2b
 6960 21b7 01       		.uleb128 0x1
 6961 21b8 51       		.byte	0x51
 6962 21b9 02       		.uleb128 0x2
 6963 21ba 08       		.byte	0x8
 6964 21bb AF       		.byte	0xaf
 6965 21bc 2B       		.uleb128 0x2b
 6966 21bd 01       		.uleb128 0x1
 6967 21be 52       		.byte	0x52
 6968 21bf 02       		.uleb128 0x2
 6969 21c0 08       		.byte	0x8
 6970 21c1 64       		.byte	0x64
 6971 21c2 00       		.byte	0
 6972 21c3 2A       		.uleb128 0x2a
 6973 21c4 7E000000 		.4byte	.LVL100
 6974 21c8 E82F0000 		.4byte	0x2fe8
 6975 21cc E9210000 		.4byte	0x21e9
 6976 21d0 2B       		.uleb128 0x2b
 6977 21d1 01       		.uleb128 0x1
 6978 21d2 50       		.byte	0x50
 6979 21d3 02       		.uleb128 0x2
 6980 21d4 08       		.byte	0x8
 6981 21d5 5C       		.byte	0x5c
 6982 21d6 2B       		.uleb128 0x2b
 6983 21d7 01       		.uleb128 0x1
 6984 21d8 51       		.byte	0x51
 6985 21d9 02       		.uleb128 0x2
ARM GAS  C:\Users\Mathieu\AppData\Local\Temp\ccqdbTbw.s 			page 197


 6986 21da 08       		.byte	0x8
 6987 21db 66       		.byte	0x66
 6988 21dc 2B       		.uleb128 0x2b
 6989 21dd 01       		.uleb128 0x1
 6990 21de 52       		.byte	0x52
 6991 21df 02       		.uleb128 0x2
 6992 21e0 08       		.byte	0x8
 6993 21e1 64       		.byte	0x64
 6994 21e2 2B       		.uleb128 0x2b
 6995 21e3 01       		.uleb128 0x1
 6996 21e4 53       		.byte	0x53
 6997 21e5 02       		.uleb128 0x2
 6998 21e6 08       		.byte	0x8
 6999 21e7 6E       		.byte	0x6e
 7000 21e8 00       		.byte	0
 7001 21e9 2A       		.uleb128 0x2a
 7002 21ea 8A000000 		.4byte	.LVL101
 7003 21ee D02F0000 		.4byte	0x2fd0
 7004 21f2 0F220000 		.4byte	0x220f
 7005 21f6 2B       		.uleb128 0x2b
 7006 21f7 01       		.uleb128 0x1
 7007 21f8 50       		.byte	0x50
 7008 21f9 02       		.uleb128 0x2
 7009 21fa 08       		.byte	0x8
 7010 21fb A2       		.byte	0xa2
 7011 21fc 2B       		.uleb128 0x2b
 7012 21fd 01       		.uleb128 0x1
 7013 21fe 51       		.byte	0x51
 7014 21ff 02       		.uleb128 0x2
 7015 2200 08       		.byte	0x8
 7016 2201 66       		.byte	0x66
 7017 2202 2B       		.uleb128 0x2b
 7018 2203 01       		.uleb128 0x1
 7019 2204 52       		.byte	0x52
 7020 2205 02       		.uleb128 0x2
 7021 2206 08       		.byte	0x8
 7022 2207 AA       		.byte	0xaa
 7023 2208 2B       		.uleb128 0x2b
 7024 2209 01       		.uleb128 0x1
 7025 220a 53       		.byte	0x53
 7026 220b 02       		.uleb128 0x2
 7027 220c 08       		.byte	0x8
 7028 220d 6E       		.byte	0x6e
 7029 220e 00       		.byte	0
 7030 220f 2A       		.uleb128 0x2a
 7031 2210 98000000 		.4byte	.LVL102
 7032 2214 D02F0000 		.4byte	0x2fd0
 7033 2218 35220000 		.4byte	0x2235
 7034 221c 2B       		.uleb128 0x2b
 7035 221d 01       		.uleb128 0x1
 7036 221e 50       		.byte	0x50
 7037 221f 02       		.uleb128 0x2
 7038 2220 08       		.byte	0x8
 7039 2221 5C       		.byte	0x5c
 7040 2222 2B       		.uleb128 0x2b
 7041 2223 01       		.uleb128 0x1
 7042 2224 51       		.byte	0x51
ARM GAS  C:\Users\Mathieu\AppData\Local\Temp\ccqdbTbw.s 			page 198


 7043 2225 02       		.uleb128 0x2
 7044 2226 08       		.byte	0x8
 7045 2227 66       		.byte	0x66
 7046 2228 2B       		.uleb128 0x2b
 7047 2229 01       		.uleb128 0x1
 7048 222a 52       		.byte	0x52
 7049 222b 02       		.uleb128 0x2
 7050 222c 08       		.byte	0x8
 7051 222d 64       		.byte	0x64
 7052 222e 2B       		.uleb128 0x2b
 7053 222f 01       		.uleb128 0x1
 7054 2230 53       		.byte	0x53
 7055 2231 02       		.uleb128 0x2
 7056 2232 08       		.byte	0x8
 7057 2233 6E       		.byte	0x6e
 7058 2234 00       		.byte	0
 7059 2235 2A       		.uleb128 0x2a
 7060 2236 A4000000 		.4byte	.LVL103
 7061 223a E82F0000 		.4byte	0x2fe8
 7062 223e 5B220000 		.4byte	0x225b
 7063 2242 2B       		.uleb128 0x2b
 7064 2243 01       		.uleb128 0x1
 7065 2244 50       		.byte	0x50
 7066 2245 02       		.uleb128 0x2
 7067 2246 08       		.byte	0x8
 7068 2247 A2       		.byte	0xa2
 7069 2248 2B       		.uleb128 0x2b
 7070 2249 01       		.uleb128 0x1
 7071 224a 51       		.byte	0x51
 7072 224b 02       		.uleb128 0x2
 7073 224c 08       		.byte	0x8
 7074 224d 66       		.byte	0x66
 7075 224e 2B       		.uleb128 0x2b
 7076 224f 01       		.uleb128 0x1
 7077 2250 52       		.byte	0x52
 7078 2251 02       		.uleb128 0x2
 7079 2252 08       		.byte	0x8
 7080 2253 AA       		.byte	0xaa
 7081 2254 2B       		.uleb128 0x2b
 7082 2255 01       		.uleb128 0x1
 7083 2256 53       		.byte	0x53
 7084 2257 02       		.uleb128 0x2
 7085 2258 08       		.byte	0x8
 7086 2259 6E       		.byte	0x6e
 7087 225a 00       		.byte	0
 7088 225b 2A       		.uleb128 0x2a
 7089 225c AC000000 		.4byte	.LVL104
 7090 2260 23160000 		.4byte	0x1623
 7091 2264 73220000 		.4byte	0x2273
 7092 2268 2B       		.uleb128 0x2b
 7093 2269 01       		.uleb128 0x1
 7094 226a 50       		.byte	0x50
 7095 226b 01       		.uleb128 0x1
 7096 226c 31       		.byte	0x31
 7097 226d 2B       		.uleb128 0x2b
 7098 226e 01       		.uleb128 0x1
 7099 226f 51       		.byte	0x51
ARM GAS  C:\Users\Mathieu\AppData\Local\Temp\ccqdbTbw.s 			page 199


 7100 2270 01       		.uleb128 0x1
 7101 2271 31       		.byte	0x31
 7102 2272 00       		.byte	0
 7103 2273 29       		.uleb128 0x29
 7104 2274 B4000000 		.4byte	.LVL106
 7105 2278 FF2F0000 		.4byte	0x2fff
 7106 227c 29       		.uleb128 0x29
 7107 227d B8000000 		.4byte	.LVL107
 7108 2281 0A300000 		.4byte	0x300a
 7109 2285 29       		.uleb128 0x29
 7110 2286 BE000000 		.4byte	.LVL108
 7111 228a 15300000 		.4byte	0x3015
 7112 228e 2A       		.uleb128 0x2a
 7113 228f C4000000 		.4byte	.LVL109
 7114 2293 20300000 		.4byte	0x3020
 7115 2297 A1220000 		.4byte	0x22a1
 7116 229b 2B       		.uleb128 0x2b
 7117 229c 01       		.uleb128 0x1
 7118 229d 50       		.byte	0x50
 7119 229e 01       		.uleb128 0x1
 7120 229f 32       		.byte	0x32
 7121 22a0 00       		.byte	0
 7122 22a1 2A       		.uleb128 0x2a
 7123 22a2 F0000000 		.4byte	.LVL112
 7124 22a6 D02F0000 		.4byte	0x2fd0
 7125 22aa C4220000 		.4byte	0x22c4
 7126 22ae 2B       		.uleb128 0x2b
 7127 22af 01       		.uleb128 0x1
 7128 22b0 50       		.byte	0x50
 7129 22b1 01       		.uleb128 0x1
 7130 22b2 46       		.byte	0x46
 7131 22b3 2B       		.uleb128 0x2b
 7132 22b4 01       		.uleb128 0x1
 7133 22b5 51       		.byte	0x51
 7134 22b6 01       		.uleb128 0x1
 7135 22b7 34       		.byte	0x34
 7136 22b8 2B       		.uleb128 0x2b
 7137 22b9 01       		.uleb128 0x1
 7138 22ba 52       		.byte	0x52
 7139 22bb 02       		.uleb128 0x2
 7140 22bc 08       		.byte	0x8
 7141 22bd F2       		.byte	0xf2
 7142 22be 2B       		.uleb128 0x2b
 7143 22bf 01       		.uleb128 0x1
 7144 22c0 53       		.byte	0x53
 7145 22c1 01       		.uleb128 0x1
 7146 22c2 4E       		.byte	0x4e
 7147 22c3 00       		.byte	0
 7148 22c4 29       		.uleb128 0x29
 7149 22c5 F6000000 		.4byte	.LVL113
 7150 22c9 B82F0000 		.4byte	0x2fb8
 7151 22cd 2A       		.uleb128 0x2a
 7152 22ce 00010000 		.4byte	.LVL114
 7153 22d2 DC2F0000 		.4byte	0x2fdc
 7154 22d6 EF220000 		.4byte	0x22ef
 7155 22da 2B       		.uleb128 0x2b
 7156 22db 01       		.uleb128 0x1
ARM GAS  C:\Users\Mathieu\AppData\Local\Temp\ccqdbTbw.s 			page 200


 7157 22dc 50       		.byte	0x50
 7158 22dd 05       		.uleb128 0x5
 7159 22de 03       		.byte	0x3
 7160 22df 90000000 		.4byte	.LC10
 7161 22e3 2B       		.uleb128 0x2b
 7162 22e4 01       		.uleb128 0x1
 7163 22e5 51       		.byte	0x51
 7164 22e6 02       		.uleb128 0x2
 7165 22e7 08       		.byte	0x8
 7166 22e8 37       		.byte	0x37
 7167 22e9 2B       		.uleb128 0x2b
 7168 22ea 01       		.uleb128 0x1
 7169 22eb 52       		.byte	0x52
 7170 22ec 01       		.uleb128 0x1
 7171 22ed 38       		.byte	0x38
 7172 22ee 00       		.byte	0
 7173 22ef 29       		.uleb128 0x29
 7174 22f0 06010000 		.4byte	.LVL115
 7175 22f4 B82F0000 		.4byte	0x2fb8
 7176 22f8 2A       		.uleb128 0x2a
 7177 22f9 10010000 		.4byte	.LVL116
 7178 22fd DC2F0000 		.4byte	0x2fdc
 7179 2301 1A230000 		.4byte	0x231a
 7180 2305 2B       		.uleb128 0x2b
 7181 2306 01       		.uleb128 0x1
 7182 2307 50       		.byte	0x50
 7183 2308 05       		.uleb128 0x5
 7184 2309 03       		.byte	0x3
 7185 230a 38010000 		.4byte	.LC16
 7186 230e 2B       		.uleb128 0x2b
 7187 230f 01       		.uleb128 0x1
 7188 2310 51       		.byte	0x51
 7189 2311 01       		.uleb128 0x1
 7190 2312 4E       		.byte	0x4e
 7191 2313 2B       		.uleb128 0x2b
 7192 2314 01       		.uleb128 0x1
 7193 2315 52       		.byte	0x52
 7194 2316 02       		.uleb128 0x2
 7195 2317 08       		.byte	0x8
 7196 2318 22       		.byte	0x22
 7197 2319 00       		.byte	0
 7198 231a 2A       		.uleb128 0x2a
 7199 231b 1A010000 		.4byte	.LVL117
 7200 231f DC2F0000 		.4byte	0x2fdc
 7201 2323 3C230000 		.4byte	0x233c
 7202 2327 2B       		.uleb128 0x2b
 7203 2328 01       		.uleb128 0x1
 7204 2329 50       		.byte	0x50
 7205 232a 05       		.uleb128 0x5
 7206 232b 03       		.byte	0x3
 7207 232c 64010000 		.4byte	.LC17
 7208 2330 2B       		.uleb128 0x2b
 7209 2331 01       		.uleb128 0x1
 7210 2332 51       		.byte	0x51
 7211 2333 01       		.uleb128 0x1
 7212 2334 44       		.byte	0x44
 7213 2335 2B       		.uleb128 0x2b
ARM GAS  C:\Users\Mathieu\AppData\Local\Temp\ccqdbTbw.s 			page 201


 7214 2336 01       		.uleb128 0x1
 7215 2337 52       		.byte	0x52
 7216 2338 02       		.uleb128 0x2
 7217 2339 08       		.byte	0x8
 7218 233a 32       		.byte	0x32
 7219 233b 00       		.byte	0
 7220 233c 29       		.uleb128 0x29
 7221 233d 20010000 		.4byte	.LVL118
 7222 2341 B82F0000 		.4byte	0x2fb8
 7223 2345 2A       		.uleb128 0x2a
 7224 2346 2C010000 		.4byte	.LVL119
 7225 234a D02F0000 		.4byte	0x2fd0
 7226 234e 6B230000 		.4byte	0x236b
 7227 2352 2B       		.uleb128 0x2b
 7228 2353 01       		.uleb128 0x1
 7229 2354 50       		.byte	0x50
 7230 2355 02       		.uleb128 0x2
 7231 2356 08       		.byte	0x8
 7232 2357 20       		.byte	0x20
 7233 2358 2B       		.uleb128 0x2b
 7234 2359 01       		.uleb128 0x1
 7235 235a 51       		.byte	0x51
 7236 235b 02       		.uleb128 0x2
 7237 235c 08       		.byte	0x8
 7238 235d 5F       		.byte	0x5f
 7239 235e 2B       		.uleb128 0x2b
 7240 235f 01       		.uleb128 0x1
 7241 2360 52       		.byte	0x52
 7242 2361 02       		.uleb128 0x2
 7243 2362 08       		.byte	0x8
 7244 2363 E8       		.byte	0xe8
 7245 2364 2B       		.uleb128 0x2b
 7246 2365 01       		.uleb128 0x1
 7247 2366 53       		.byte	0x53
 7248 2367 02       		.uleb128 0x2
 7249 2368 08       		.byte	0x8
 7250 2369 6E       		.byte	0x6e
 7251 236a 00       		.byte	0
 7252 236b 2A       		.uleb128 0x2a
 7253 236c 36010000 		.4byte	.LVL120
 7254 2370 DC2F0000 		.4byte	0x2fdc
 7255 2374 8D230000 		.4byte	0x238d
 7256 2378 2B       		.uleb128 0x2b
 7257 2379 01       		.uleb128 0x1
 7258 237a 50       		.byte	0x50
 7259 237b 05       		.uleb128 0x5
 7260 237c 03       		.byte	0x3
 7261 237d 94010000 		.4byte	.LC18
 7262 2381 2B       		.uleb128 0x2b
 7263 2382 01       		.uleb128 0x1
 7264 2383 51       		.byte	0x51
 7265 2384 01       		.uleb128 0x1
 7266 2385 4C       		.byte	0x4c
 7267 2386 2B       		.uleb128 0x2b
 7268 2387 01       		.uleb128 0x1
 7269 2388 52       		.byte	0x52
 7270 2389 02       		.uleb128 0x2
ARM GAS  C:\Users\Mathieu\AppData\Local\Temp\ccqdbTbw.s 			page 202


 7271 238a 08       		.byte	0x8
 7272 238b 50       		.byte	0x50
 7273 238c 00       		.byte	0
 7274 238d 2A       		.uleb128 0x2a
 7275 238e 40010000 		.4byte	.LVL121
 7276 2392 DC2F0000 		.4byte	0x2fdc
 7277 2396 B0230000 		.4byte	0x23b0
 7278 239a 2B       		.uleb128 0x2b
 7279 239b 01       		.uleb128 0x1
 7280 239c 50       		.byte	0x50
 7281 239d 05       		.uleb128 0x5
 7282 239e 03       		.byte	0x3
 7283 239f 9C010000 		.4byte	.LC19
 7284 23a3 2B       		.uleb128 0x2b
 7285 23a4 01       		.uleb128 0x1
 7286 23a5 51       		.byte	0x51
 7287 23a6 02       		.uleb128 0x2
 7288 23a7 08       		.byte	0x8
 7289 23a8 D2       		.byte	0xd2
 7290 23a9 2B       		.uleb128 0x2b
 7291 23aa 01       		.uleb128 0x1
 7292 23ab 52       		.byte	0x52
 7293 23ac 02       		.uleb128 0x2
 7294 23ad 08       		.byte	0x8
 7295 23ae 50       		.byte	0x50
 7296 23af 00       		.byte	0
 7297 23b0 2A       		.uleb128 0x2a
 7298 23b1 68010000 		.4byte	.LVL122
 7299 23b5 E82F0000 		.4byte	0x2fe8
 7300 23b9 D0230000 		.4byte	0x23d0
 7301 23bd 2B       		.uleb128 0x2b
 7302 23be 01       		.uleb128 0x1
 7303 23bf 50       		.byte	0x50
 7304 23c0 02       		.uleb128 0x2
 7305 23c1 08       		.byte	0x8
 7306 23c2 20       		.byte	0x20
 7307 23c3 2B       		.uleb128 0x2b
 7308 23c4 01       		.uleb128 0x1
 7309 23c5 51       		.byte	0x51
 7310 23c6 02       		.uleb128 0x2
 7311 23c7 08       		.byte	0x8
 7312 23c8 5F       		.byte	0x5f
 7313 23c9 2B       		.uleb128 0x2b
 7314 23ca 01       		.uleb128 0x1
 7315 23cb 53       		.byte	0x53
 7316 23cc 02       		.uleb128 0x2
 7317 23cd 08       		.byte	0x8
 7318 23ce 6E       		.byte	0x6e
 7319 23cf 00       		.byte	0
 7320 23d0 29       		.uleb128 0x29
 7321 23d1 6E010000 		.4byte	.LVL123
 7322 23d5 B82F0000 		.4byte	0x2fb8
 7323 23d9 2A       		.uleb128 0x2a
 7324 23da 7A010000 		.4byte	.LVL124
 7325 23de D02F0000 		.4byte	0x2fd0
 7326 23e2 FF230000 		.4byte	0x23ff
 7327 23e6 2B       		.uleb128 0x2b
ARM GAS  C:\Users\Mathieu\AppData\Local\Temp\ccqdbTbw.s 			page 203


 7328 23e7 01       		.uleb128 0x1
 7329 23e8 50       		.byte	0x50
 7330 23e9 02       		.uleb128 0x2
 7331 23ea 08       		.byte	0x8
 7332 23eb 50       		.byte	0x50
 7333 23ec 2B       		.uleb128 0x2b
 7334 23ed 01       		.uleb128 0x1
 7335 23ee 51       		.byte	0x51
 7336 23ef 02       		.uleb128 0x2
 7337 23f0 08       		.byte	0x8
 7338 23f1 82       		.byte	0x82
 7339 23f2 2B       		.uleb128 0x2b
 7340 23f3 01       		.uleb128 0x1
 7341 23f4 52       		.byte	0x52
 7342 23f5 02       		.uleb128 0x2
 7343 23f6 08       		.byte	0x8
 7344 23f7 BE       		.byte	0xbe
 7345 23f8 2B       		.uleb128 0x2b
 7346 23f9 01       		.uleb128 0x1
 7347 23fa 53       		.byte	0x53
 7348 23fb 02       		.uleb128 0x2
 7349 23fc 08       		.byte	0x8
 7350 23fd A0       		.byte	0xa0
 7351 23fe 00       		.byte	0
 7352 23ff 2A       		.uleb128 0x2a
 7353 2400 84010000 		.4byte	.LVL125
 7354 2404 F42F0000 		.4byte	0x2ff4
 7355 2408 1C240000 		.4byte	0x241c
 7356 240c 2B       		.uleb128 0x2b
 7357 240d 01       		.uleb128 0x1
 7358 240e 50       		.byte	0x50
 7359 240f 02       		.uleb128 0x2
 7360 2410 91       		.byte	0x91
 7361 2411 5C       		.sleb128 -36
 7362 2412 2B       		.uleb128 0x2b
 7363 2413 01       		.uleb128 0x1
 7364 2414 51       		.byte	0x51
 7365 2415 05       		.uleb128 0x5
 7366 2416 03       		.byte	0x3
 7367 2417 68000000 		.4byte	.LC7
 7368 241b 00       		.byte	0
 7369 241c 2A       		.uleb128 0x2a
 7370 241d 8E010000 		.4byte	.LVL126
 7371 2421 DC2F0000 		.4byte	0x2fdc
 7372 2425 3C240000 		.4byte	0x243c
 7373 2429 2B       		.uleb128 0x2b
 7374 242a 01       		.uleb128 0x1
 7375 242b 50       		.byte	0x50
 7376 242c 02       		.uleb128 0x2
 7377 242d 91       		.byte	0x91
 7378 242e 5C       		.sleb128 -36
 7379 242f 2B       		.uleb128 0x2b
 7380 2430 01       		.uleb128 0x1
 7381 2431 51       		.byte	0x51
 7382 2432 02       		.uleb128 0x2
 7383 2433 08       		.byte	0x8
 7384 2434 78       		.byte	0x78
ARM GAS  C:\Users\Mathieu\AppData\Local\Temp\ccqdbTbw.s 			page 204


 7385 2435 2B       		.uleb128 0x2b
 7386 2436 01       		.uleb128 0x1
 7387 2437 52       		.byte	0x52
 7388 2438 02       		.uleb128 0x2
 7389 2439 08       		.byte	0x8
 7390 243a 87       		.byte	0x87
 7391 243b 00       		.byte	0
 7392 243c 2A       		.uleb128 0x2a
 7393 243d 96010000 		.4byte	.LVL127
 7394 2441 23160000 		.4byte	0x1623
 7395 2445 54240000 		.4byte	0x2454
 7396 2449 2B       		.uleb128 0x2b
 7397 244a 01       		.uleb128 0x1
 7398 244b 50       		.byte	0x50
 7399 244c 01       		.uleb128 0x1
 7400 244d 31       		.byte	0x31
 7401 244e 2B       		.uleb128 0x2b
 7402 244f 01       		.uleb128 0x1
 7403 2450 51       		.byte	0x51
 7404 2451 01       		.uleb128 0x1
 7405 2452 31       		.byte	0x31
 7406 2453 00       		.byte	0
 7407 2454 29       		.uleb128 0x29
 7408 2455 A4010000 		.4byte	.LVL129
 7409 2459 FF2F0000 		.4byte	0x2fff
 7410 245d 29       		.uleb128 0x29
 7411 245e A8010000 		.4byte	.LVL130
 7412 2462 0A300000 		.4byte	0x300a
 7413 2466 29       		.uleb128 0x29
 7414 2467 AE010000 		.4byte	.LVL131
 7415 246b 15300000 		.4byte	0x3015
 7416 246f 2A       		.uleb128 0x2a
 7417 2470 B4010000 		.4byte	.LVL132
 7418 2474 20300000 		.4byte	0x3020
 7419 2478 82240000 		.4byte	0x2482
 7420 247c 2B       		.uleb128 0x2b
 7421 247d 01       		.uleb128 0x1
 7422 247e 50       		.byte	0x50
 7423 247f 01       		.uleb128 0x1
 7424 2480 32       		.byte	0x32
 7425 2481 00       		.byte	0
 7426 2482 2A       		.uleb128 0x2a
 7427 2483 BC010000 		.4byte	.LVL135
 7428 2487 20300000 		.4byte	0x3020
 7429 248b 95240000 		.4byte	0x2495
 7430 248f 2B       		.uleb128 0x2b
 7431 2490 01       		.uleb128 0x1
 7432 2491 50       		.byte	0x50
 7433 2492 01       		.uleb128 0x1
 7434 2493 31       		.byte	0x31
 7435 2494 00       		.byte	0
 7436 2495 2A       		.uleb128 0x2a
 7437 2496 C4010000 		.4byte	.LVL138
 7438 249a 2C300000 		.4byte	0x302c
 7439 249e A8240000 		.4byte	0x24a8
 7440 24a2 2B       		.uleb128 0x2b
 7441 24a3 01       		.uleb128 0x1
ARM GAS  C:\Users\Mathieu\AppData\Local\Temp\ccqdbTbw.s 			page 205


 7442 24a4 50       		.byte	0x50
 7443 24a5 01       		.uleb128 0x1
 7444 24a6 30       		.byte	0x30
 7445 24a7 00       		.byte	0
 7446 24a8 2A       		.uleb128 0x2a
 7447 24a9 3A020000 		.4byte	.LVL142
 7448 24ad D02F0000 		.4byte	0x2fd0
 7449 24b1 CB240000 		.4byte	0x24cb
 7450 24b5 2B       		.uleb128 0x2b
 7451 24b6 01       		.uleb128 0x1
 7452 24b7 50       		.byte	0x50
 7453 24b8 01       		.uleb128 0x1
 7454 24b9 46       		.byte	0x46
 7455 24ba 2B       		.uleb128 0x2b
 7456 24bb 01       		.uleb128 0x1
 7457 24bc 51       		.byte	0x51
 7458 24bd 01       		.uleb128 0x1
 7459 24be 34       		.byte	0x34
 7460 24bf 2B       		.uleb128 0x2b
 7461 24c0 01       		.uleb128 0x1
 7462 24c1 52       		.byte	0x52
 7463 24c2 02       		.uleb128 0x2
 7464 24c3 08       		.byte	0x8
 7465 24c4 F2       		.byte	0xf2
 7466 24c5 2B       		.uleb128 0x2b
 7467 24c6 01       		.uleb128 0x1
 7468 24c7 53       		.byte	0x53
 7469 24c8 01       		.uleb128 0x1
 7470 24c9 4E       		.byte	0x4e
 7471 24ca 00       		.byte	0
 7472 24cb 29       		.uleb128 0x29
 7473 24cc 40020000 		.4byte	.LVL143
 7474 24d0 B82F0000 		.4byte	0x2fb8
 7475 24d4 2A       		.uleb128 0x2a
 7476 24d5 4A020000 		.4byte	.LVL144
 7477 24d9 DC2F0000 		.4byte	0x2fdc
 7478 24dd F6240000 		.4byte	0x24f6
 7479 24e1 2B       		.uleb128 0x2b
 7480 24e2 01       		.uleb128 0x1
 7481 24e3 50       		.byte	0x50
 7482 24e4 05       		.uleb128 0x5
 7483 24e5 03       		.byte	0x3
 7484 24e6 A4000000 		.4byte	.LC11
 7485 24ea 2B       		.uleb128 0x2b
 7486 24eb 01       		.uleb128 0x1
 7487 24ec 51       		.byte	0x51
 7488 24ed 02       		.uleb128 0x2
 7489 24ee 08       		.byte	0x8
 7490 24ef 37       		.byte	0x37
 7491 24f0 2B       		.uleb128 0x2b
 7492 24f1 01       		.uleb128 0x1
 7493 24f2 52       		.byte	0x52
 7494 24f3 01       		.uleb128 0x1
 7495 24f4 38       		.byte	0x38
 7496 24f5 00       		.byte	0
 7497 24f6 29       		.uleb128 0x29
 7498 24f7 50020000 		.4byte	.LVL145
ARM GAS  C:\Users\Mathieu\AppData\Local\Temp\ccqdbTbw.s 			page 206


 7499 24fb B82F0000 		.4byte	0x2fb8
 7500 24ff 2A       		.uleb128 0x2a
 7501 2500 5A020000 		.4byte	.LVL146
 7502 2504 DC2F0000 		.4byte	0x2fdc
 7503 2508 21250000 		.4byte	0x2521
 7504 250c 2B       		.uleb128 0x2b
 7505 250d 01       		.uleb128 0x1
 7506 250e 50       		.byte	0x50
 7507 250f 05       		.uleb128 0x5
 7508 2510 03       		.byte	0x3
 7509 2511 38010000 		.4byte	.LC16
 7510 2515 2B       		.uleb128 0x2b
 7511 2516 01       		.uleb128 0x1
 7512 2517 51       		.byte	0x51
 7513 2518 01       		.uleb128 0x1
 7514 2519 4E       		.byte	0x4e
 7515 251a 2B       		.uleb128 0x2b
 7516 251b 01       		.uleb128 0x1
 7517 251c 52       		.byte	0x52
 7518 251d 02       		.uleb128 0x2
 7519 251e 08       		.byte	0x8
 7520 251f 22       		.byte	0x22
 7521 2520 00       		.byte	0
 7522 2521 2A       		.uleb128 0x2a
 7523 2522 64020000 		.4byte	.LVL147
 7524 2526 DC2F0000 		.4byte	0x2fdc
 7525 252a 43250000 		.4byte	0x2543
 7526 252e 2B       		.uleb128 0x2b
 7527 252f 01       		.uleb128 0x1
 7528 2530 50       		.byte	0x50
 7529 2531 05       		.uleb128 0x5
 7530 2532 03       		.byte	0x3
 7531 2533 64010000 		.4byte	.LC17
 7532 2537 2B       		.uleb128 0x2b
 7533 2538 01       		.uleb128 0x1
 7534 2539 51       		.byte	0x51
 7535 253a 01       		.uleb128 0x1
 7536 253b 44       		.byte	0x44
 7537 253c 2B       		.uleb128 0x2b
 7538 253d 01       		.uleb128 0x1
 7539 253e 52       		.byte	0x52
 7540 253f 02       		.uleb128 0x2
 7541 2540 08       		.byte	0x8
 7542 2541 32       		.byte	0x32
 7543 2542 00       		.byte	0
 7544 2543 29       		.uleb128 0x29
 7545 2544 6A020000 		.4byte	.LVL148
 7546 2548 B82F0000 		.4byte	0x2fb8
 7547 254c 2A       		.uleb128 0x2a
 7548 254d 76020000 		.4byte	.LVL149
 7549 2551 D02F0000 		.4byte	0x2fd0
 7550 2555 72250000 		.4byte	0x2572
 7551 2559 2B       		.uleb128 0x2b
 7552 255a 01       		.uleb128 0x1
 7553 255b 50       		.byte	0x50
 7554 255c 02       		.uleb128 0x2
 7555 255d 08       		.byte	0x8
ARM GAS  C:\Users\Mathieu\AppData\Local\Temp\ccqdbTbw.s 			page 207


 7556 255e 20       		.byte	0x20
 7557 255f 2B       		.uleb128 0x2b
 7558 2560 01       		.uleb128 0x1
 7559 2561 51       		.byte	0x51
 7560 2562 02       		.uleb128 0x2
 7561 2563 08       		.byte	0x8
 7562 2564 5F       		.byte	0x5f
 7563 2565 2B       		.uleb128 0x2b
 7564 2566 01       		.uleb128 0x1
 7565 2567 52       		.byte	0x52
 7566 2568 02       		.uleb128 0x2
 7567 2569 08       		.byte	0x8
 7568 256a E8       		.byte	0xe8
 7569 256b 2B       		.uleb128 0x2b
 7570 256c 01       		.uleb128 0x1
 7571 256d 53       		.byte	0x53
 7572 256e 02       		.uleb128 0x2
 7573 256f 08       		.byte	0x8
 7574 2570 6E       		.byte	0x6e
 7575 2571 00       		.byte	0
 7576 2572 2A       		.uleb128 0x2a
 7577 2573 80020000 		.4byte	.LVL150
 7578 2577 DC2F0000 		.4byte	0x2fdc
 7579 257b 94250000 		.4byte	0x2594
 7580 257f 2B       		.uleb128 0x2b
 7581 2580 01       		.uleb128 0x1
 7582 2581 50       		.byte	0x50
 7583 2582 05       		.uleb128 0x5
 7584 2583 03       		.byte	0x3
 7585 2584 A4010000 		.4byte	.LC20
 7586 2588 2B       		.uleb128 0x2b
 7587 2589 01       		.uleb128 0x1
 7588 258a 51       		.byte	0x51
 7589 258b 01       		.uleb128 0x1
 7590 258c 4C       		.byte	0x4c
 7591 258d 2B       		.uleb128 0x2b
 7592 258e 01       		.uleb128 0x1
 7593 258f 52       		.byte	0x52
 7594 2590 02       		.uleb128 0x2
 7595 2591 08       		.byte	0x8
 7596 2592 50       		.byte	0x50
 7597 2593 00       		.byte	0
 7598 2594 2A       		.uleb128 0x2a
 7599 2595 8A020000 		.4byte	.LVL151
 7600 2599 DC2F0000 		.4byte	0x2fdc
 7601 259d B7250000 		.4byte	0x25b7
 7602 25a1 2B       		.uleb128 0x2b
 7603 25a2 01       		.uleb128 0x1
 7604 25a3 50       		.byte	0x50
 7605 25a4 05       		.uleb128 0x5
 7606 25a5 03       		.byte	0x3
 7607 25a6 94010000 		.4byte	.LC18
 7608 25aa 2B       		.uleb128 0x2b
 7609 25ab 01       		.uleb128 0x1
 7610 25ac 51       		.byte	0x51
 7611 25ad 02       		.uleb128 0x2
 7612 25ae 08       		.byte	0x8
ARM GAS  C:\Users\Mathieu\AppData\Local\Temp\ccqdbTbw.s 			page 208


 7613 25af D2       		.byte	0xd2
 7614 25b0 2B       		.uleb128 0x2b
 7615 25b1 01       		.uleb128 0x1
 7616 25b2 52       		.byte	0x52
 7617 25b3 02       		.uleb128 0x2
 7618 25b4 08       		.byte	0x8
 7619 25b5 50       		.byte	0x50
 7620 25b6 00       		.byte	0
 7621 25b7 2A       		.uleb128 0x2a
 7622 25b8 B2020000 		.4byte	.LVL152
 7623 25bc E82F0000 		.4byte	0x2fe8
 7624 25c0 D7250000 		.4byte	0x25d7
 7625 25c4 2B       		.uleb128 0x2b
 7626 25c5 01       		.uleb128 0x1
 7627 25c6 50       		.byte	0x50
 7628 25c7 02       		.uleb128 0x2
 7629 25c8 08       		.byte	0x8
 7630 25c9 20       		.byte	0x20
 7631 25ca 2B       		.uleb128 0x2b
 7632 25cb 01       		.uleb128 0x1
 7633 25cc 51       		.byte	0x51
 7634 25cd 02       		.uleb128 0x2
 7635 25ce 08       		.byte	0x8
 7636 25cf 5F       		.byte	0x5f
 7637 25d0 2B       		.uleb128 0x2b
 7638 25d1 01       		.uleb128 0x1
 7639 25d2 53       		.byte	0x53
 7640 25d3 02       		.uleb128 0x2
 7641 25d4 08       		.byte	0x8
 7642 25d5 6E       		.byte	0x6e
 7643 25d6 00       		.byte	0
 7644 25d7 29       		.uleb128 0x29
 7645 25d8 B8020000 		.4byte	.LVL153
 7646 25dc B82F0000 		.4byte	0x2fb8
 7647 25e0 2A       		.uleb128 0x2a
 7648 25e1 C4020000 		.4byte	.LVL154
 7649 25e5 D02F0000 		.4byte	0x2fd0
 7650 25e9 06260000 		.4byte	0x2606
 7651 25ed 2B       		.uleb128 0x2b
 7652 25ee 01       		.uleb128 0x1
 7653 25ef 50       		.byte	0x50
 7654 25f0 02       		.uleb128 0x2
 7655 25f1 08       		.byte	0x8
 7656 25f2 50       		.byte	0x50
 7657 25f3 2B       		.uleb128 0x2b
 7658 25f4 01       		.uleb128 0x1
 7659 25f5 51       		.byte	0x51
 7660 25f6 02       		.uleb128 0x2
 7661 25f7 08       		.byte	0x8
 7662 25f8 82       		.byte	0x82
 7663 25f9 2B       		.uleb128 0x2b
 7664 25fa 01       		.uleb128 0x1
 7665 25fb 52       		.byte	0x52
 7666 25fc 02       		.uleb128 0x2
 7667 25fd 08       		.byte	0x8
 7668 25fe BE       		.byte	0xbe
 7669 25ff 2B       		.uleb128 0x2b
ARM GAS  C:\Users\Mathieu\AppData\Local\Temp\ccqdbTbw.s 			page 209


 7670 2600 01       		.uleb128 0x1
 7671 2601 53       		.byte	0x53
 7672 2602 02       		.uleb128 0x2
 7673 2603 08       		.byte	0x8
 7674 2604 A0       		.byte	0xa0
 7675 2605 00       		.byte	0
 7676 2606 2A       		.uleb128 0x2a
 7677 2607 CE020000 		.4byte	.LVL155
 7678 260b F42F0000 		.4byte	0x2ff4
 7679 260f 23260000 		.4byte	0x2623
 7680 2613 2B       		.uleb128 0x2b
 7681 2614 01       		.uleb128 0x1
 7682 2615 50       		.byte	0x50
 7683 2616 02       		.uleb128 0x2
 7684 2617 91       		.byte	0x91
 7685 2618 5C       		.sleb128 -36
 7686 2619 2B       		.uleb128 0x2b
 7687 261a 01       		.uleb128 0x1
 7688 261b 51       		.byte	0x51
 7689 261c 05       		.uleb128 0x5
 7690 261d 03       		.byte	0x3
 7691 261e 68000000 		.4byte	.LC7
 7692 2622 00       		.byte	0
 7693 2623 2A       		.uleb128 0x2a
 7694 2624 D8020000 		.4byte	.LVL156
 7695 2628 DC2F0000 		.4byte	0x2fdc
 7696 262c 43260000 		.4byte	0x2643
 7697 2630 2B       		.uleb128 0x2b
 7698 2631 01       		.uleb128 0x1
 7699 2632 50       		.byte	0x50
 7700 2633 02       		.uleb128 0x2
 7701 2634 91       		.byte	0x91
 7702 2635 5C       		.sleb128 -36
 7703 2636 2B       		.uleb128 0x2b
 7704 2637 01       		.uleb128 0x1
 7705 2638 51       		.byte	0x51
 7706 2639 02       		.uleb128 0x2
 7707 263a 08       		.byte	0x8
 7708 263b 78       		.byte	0x78
 7709 263c 2B       		.uleb128 0x2b
 7710 263d 01       		.uleb128 0x1
 7711 263e 52       		.byte	0x52
 7712 263f 02       		.uleb128 0x2
 7713 2640 08       		.byte	0x8
 7714 2641 87       		.byte	0x87
 7715 2642 00       		.byte	0
 7716 2643 2A       		.uleb128 0x2a
 7717 2644 E0020000 		.4byte	.LVL157
 7718 2648 23160000 		.4byte	0x1623
 7719 264c 5B260000 		.4byte	0x265b
 7720 2650 2B       		.uleb128 0x2b
 7721 2651 01       		.uleb128 0x1
 7722 2652 50       		.byte	0x50
 7723 2653 01       		.uleb128 0x1
 7724 2654 31       		.byte	0x31
 7725 2655 2B       		.uleb128 0x2b
 7726 2656 01       		.uleb128 0x1
ARM GAS  C:\Users\Mathieu\AppData\Local\Temp\ccqdbTbw.s 			page 210


 7727 2657 51       		.byte	0x51
 7728 2658 01       		.uleb128 0x1
 7729 2659 31       		.byte	0x31
 7730 265a 00       		.byte	0
 7731 265b 29       		.uleb128 0x29
 7732 265c 44030000 		.4byte	.LVL159
 7733 2660 FF2F0000 		.4byte	0x2fff
 7734 2664 29       		.uleb128 0x29
 7735 2665 48030000 		.4byte	.LVL160
 7736 2669 0A300000 		.4byte	0x300a
 7737 266d 29       		.uleb128 0x29
 7738 266e 4E030000 		.4byte	.LVL161
 7739 2672 15300000 		.4byte	0x3015
 7740 2676 2A       		.uleb128 0x2a
 7741 2677 54030000 		.4byte	.LVL162
 7742 267b 20300000 		.4byte	0x3020
 7743 267f 89260000 		.4byte	0x2689
 7744 2683 2B       		.uleb128 0x2b
 7745 2684 01       		.uleb128 0x1
 7746 2685 50       		.byte	0x50
 7747 2686 01       		.uleb128 0x1
 7748 2687 32       		.byte	0x32
 7749 2688 00       		.byte	0
 7750 2689 2A       		.uleb128 0x2a
 7751 268a 5C030000 		.4byte	.LVL165
 7752 268e 20300000 		.4byte	0x3020
 7753 2692 9C260000 		.4byte	0x269c
 7754 2696 2B       		.uleb128 0x2b
 7755 2697 01       		.uleb128 0x1
 7756 2698 50       		.byte	0x50
 7757 2699 01       		.uleb128 0x1
 7758 269a 31       		.byte	0x31
 7759 269b 00       		.byte	0
 7760 269c 2A       		.uleb128 0x2a
 7761 269d 64030000 		.4byte	.LVL168
 7762 26a1 2C300000 		.4byte	0x302c
 7763 26a5 AF260000 		.4byte	0x26af
 7764 26a9 2B       		.uleb128 0x2b
 7765 26aa 01       		.uleb128 0x1
 7766 26ab 50       		.byte	0x50
 7767 26ac 01       		.uleb128 0x1
 7768 26ad 30       		.byte	0x30
 7769 26ae 00       		.byte	0
 7770 26af 2A       		.uleb128 0x2a
 7771 26b0 DA030000 		.4byte	.LVL172
 7772 26b4 D02F0000 		.4byte	0x2fd0
 7773 26b8 D2260000 		.4byte	0x26d2
 7774 26bc 2B       		.uleb128 0x2b
 7775 26bd 01       		.uleb128 0x1
 7776 26be 50       		.byte	0x50
 7777 26bf 01       		.uleb128 0x1
 7778 26c0 46       		.byte	0x46
 7779 26c1 2B       		.uleb128 0x2b
 7780 26c2 01       		.uleb128 0x1
 7781 26c3 51       		.byte	0x51
 7782 26c4 01       		.uleb128 0x1
 7783 26c5 34       		.byte	0x34
ARM GAS  C:\Users\Mathieu\AppData\Local\Temp\ccqdbTbw.s 			page 211


 7784 26c6 2B       		.uleb128 0x2b
 7785 26c7 01       		.uleb128 0x1
 7786 26c8 52       		.byte	0x52
 7787 26c9 02       		.uleb128 0x2
 7788 26ca 08       		.byte	0x8
 7789 26cb F2       		.byte	0xf2
 7790 26cc 2B       		.uleb128 0x2b
 7791 26cd 01       		.uleb128 0x1
 7792 26ce 53       		.byte	0x53
 7793 26cf 01       		.uleb128 0x1
 7794 26d0 4E       		.byte	0x4e
 7795 26d1 00       		.byte	0
 7796 26d2 29       		.uleb128 0x29
 7797 26d3 E0030000 		.4byte	.LVL173
 7798 26d7 B82F0000 		.4byte	0x2fb8
 7799 26db 2A       		.uleb128 0x2a
 7800 26dc EA030000 		.4byte	.LVL174
 7801 26e0 DC2F0000 		.4byte	0x2fdc
 7802 26e4 FD260000 		.4byte	0x26fd
 7803 26e8 2B       		.uleb128 0x2b
 7804 26e9 01       		.uleb128 0x1
 7805 26ea 50       		.byte	0x50
 7806 26eb 05       		.uleb128 0x5
 7807 26ec 03       		.byte	0x3
 7808 26ed B8000000 		.4byte	.LC12
 7809 26f1 2B       		.uleb128 0x2b
 7810 26f2 01       		.uleb128 0x1
 7811 26f3 51       		.byte	0x51
 7812 26f4 02       		.uleb128 0x2
 7813 26f5 08       		.byte	0x8
 7814 26f6 37       		.byte	0x37
 7815 26f7 2B       		.uleb128 0x2b
 7816 26f8 01       		.uleb128 0x1
 7817 26f9 52       		.byte	0x52
 7818 26fa 01       		.uleb128 0x1
 7819 26fb 38       		.byte	0x38
 7820 26fc 00       		.byte	0
 7821 26fd 29       		.uleb128 0x29
 7822 26fe F0030000 		.4byte	.LVL175
 7823 2702 B82F0000 		.4byte	0x2fb8
 7824 2706 2A       		.uleb128 0x2a
 7825 2707 FA030000 		.4byte	.LVL176
 7826 270b DC2F0000 		.4byte	0x2fdc
 7827 270f 28270000 		.4byte	0x2728
 7828 2713 2B       		.uleb128 0x2b
 7829 2714 01       		.uleb128 0x1
 7830 2715 50       		.byte	0x50
 7831 2716 05       		.uleb128 0x5
 7832 2717 03       		.byte	0x3
 7833 2718 38010000 		.4byte	.LC16
 7834 271c 2B       		.uleb128 0x2b
 7835 271d 01       		.uleb128 0x1
 7836 271e 51       		.byte	0x51
 7837 271f 01       		.uleb128 0x1
 7838 2720 4E       		.byte	0x4e
 7839 2721 2B       		.uleb128 0x2b
 7840 2722 01       		.uleb128 0x1
ARM GAS  C:\Users\Mathieu\AppData\Local\Temp\ccqdbTbw.s 			page 212


 7841 2723 52       		.byte	0x52
 7842 2724 02       		.uleb128 0x2
 7843 2725 08       		.byte	0x8
 7844 2726 22       		.byte	0x22
 7845 2727 00       		.byte	0
 7846 2728 2A       		.uleb128 0x2a
 7847 2729 04040000 		.4byte	.LVL177
 7848 272d DC2F0000 		.4byte	0x2fdc
 7849 2731 4A270000 		.4byte	0x274a
 7850 2735 2B       		.uleb128 0x2b
 7851 2736 01       		.uleb128 0x1
 7852 2737 50       		.byte	0x50
 7853 2738 05       		.uleb128 0x5
 7854 2739 03       		.byte	0x3
 7855 273a 64010000 		.4byte	.LC17
 7856 273e 2B       		.uleb128 0x2b
 7857 273f 01       		.uleb128 0x1
 7858 2740 51       		.byte	0x51
 7859 2741 01       		.uleb128 0x1
 7860 2742 44       		.byte	0x44
 7861 2743 2B       		.uleb128 0x2b
 7862 2744 01       		.uleb128 0x1
 7863 2745 52       		.byte	0x52
 7864 2746 02       		.uleb128 0x2
 7865 2747 08       		.byte	0x8
 7866 2748 32       		.byte	0x32
 7867 2749 00       		.byte	0
 7868 274a 29       		.uleb128 0x29
 7869 274b 0A040000 		.4byte	.LVL178
 7870 274f B82F0000 		.4byte	0x2fb8
 7871 2753 2A       		.uleb128 0x2a
 7872 2754 16040000 		.4byte	.LVL179
 7873 2758 D02F0000 		.4byte	0x2fd0
 7874 275c 79270000 		.4byte	0x2779
 7875 2760 2B       		.uleb128 0x2b
 7876 2761 01       		.uleb128 0x1
 7877 2762 50       		.byte	0x50
 7878 2763 02       		.uleb128 0x2
 7879 2764 08       		.byte	0x8
 7880 2765 20       		.byte	0x20
 7881 2766 2B       		.uleb128 0x2b
 7882 2767 01       		.uleb128 0x1
 7883 2768 51       		.byte	0x51
 7884 2769 02       		.uleb128 0x2
 7885 276a 08       		.byte	0x8
 7886 276b 5F       		.byte	0x5f
 7887 276c 2B       		.uleb128 0x2b
 7888 276d 01       		.uleb128 0x1
 7889 276e 52       		.byte	0x52
 7890 276f 02       		.uleb128 0x2
 7891 2770 08       		.byte	0x8
 7892 2771 E8       		.byte	0xe8
 7893 2772 2B       		.uleb128 0x2b
 7894 2773 01       		.uleb128 0x1
 7895 2774 53       		.byte	0x53
 7896 2775 02       		.uleb128 0x2
 7897 2776 08       		.byte	0x8
ARM GAS  C:\Users\Mathieu\AppData\Local\Temp\ccqdbTbw.s 			page 213


 7898 2777 6E       		.byte	0x6e
 7899 2778 00       		.byte	0
 7900 2779 2A       		.uleb128 0x2a
 7901 277a 20040000 		.4byte	.LVL180
 7902 277e DC2F0000 		.4byte	0x2fdc
 7903 2782 9B270000 		.4byte	0x279b
 7904 2786 2B       		.uleb128 0x2b
 7905 2787 01       		.uleb128 0x1
 7906 2788 50       		.byte	0x50
 7907 2789 05       		.uleb128 0x5
 7908 278a 03       		.byte	0x3
 7909 278b AC010000 		.4byte	.LC21
 7910 278f 2B       		.uleb128 0x2b
 7911 2790 01       		.uleb128 0x1
 7912 2791 51       		.byte	0x51
 7913 2792 01       		.uleb128 0x1
 7914 2793 4C       		.byte	0x4c
 7915 2794 2B       		.uleb128 0x2b
 7916 2795 01       		.uleb128 0x1
 7917 2796 52       		.byte	0x52
 7918 2797 02       		.uleb128 0x2
 7919 2798 08       		.byte	0x8
 7920 2799 50       		.byte	0x50
 7921 279a 00       		.byte	0
 7922 279b 2A       		.uleb128 0x2a
 7923 279c 2A040000 		.4byte	.LVL181
 7924 27a0 DC2F0000 		.4byte	0x2fdc
 7925 27a4 BE270000 		.4byte	0x27be
 7926 27a8 2B       		.uleb128 0x2b
 7927 27a9 01       		.uleb128 0x1
 7928 27aa 50       		.byte	0x50
 7929 27ab 05       		.uleb128 0x5
 7930 27ac 03       		.byte	0x3
 7931 27ad B0010000 		.4byte	.LC22
 7932 27b1 2B       		.uleb128 0x2b
 7933 27b2 01       		.uleb128 0x1
 7934 27b3 51       		.byte	0x51
 7935 27b4 02       		.uleb128 0x2
 7936 27b5 08       		.byte	0x8
 7937 27b6 D2       		.byte	0xd2
 7938 27b7 2B       		.uleb128 0x2b
 7939 27b8 01       		.uleb128 0x1
 7940 27b9 52       		.byte	0x52
 7941 27ba 02       		.uleb128 0x2
 7942 27bb 08       		.byte	0x8
 7943 27bc 50       		.byte	0x50
 7944 27bd 00       		.byte	0
 7945 27be 2A       		.uleb128 0x2a
 7946 27bf 4C040000 		.4byte	.LVL182
 7947 27c3 E82F0000 		.4byte	0x2fe8
 7948 27c7 DE270000 		.4byte	0x27de
 7949 27cb 2B       		.uleb128 0x2b
 7950 27cc 01       		.uleb128 0x1
 7951 27cd 50       		.byte	0x50
 7952 27ce 02       		.uleb128 0x2
 7953 27cf 08       		.byte	0x8
 7954 27d0 20       		.byte	0x20
ARM GAS  C:\Users\Mathieu\AppData\Local\Temp\ccqdbTbw.s 			page 214


 7955 27d1 2B       		.uleb128 0x2b
 7956 27d2 01       		.uleb128 0x1
 7957 27d3 51       		.byte	0x51
 7958 27d4 02       		.uleb128 0x2
 7959 27d5 08       		.byte	0x8
 7960 27d6 5F       		.byte	0x5f
 7961 27d7 2B       		.uleb128 0x2b
 7962 27d8 01       		.uleb128 0x1
 7963 27d9 53       		.byte	0x53
 7964 27da 02       		.uleb128 0x2
 7965 27db 08       		.byte	0x8
 7966 27dc 6E       		.byte	0x6e
 7967 27dd 00       		.byte	0
 7968 27de 29       		.uleb128 0x29
 7969 27df 52040000 		.4byte	.LVL183
 7970 27e3 B82F0000 		.4byte	0x2fb8
 7971 27e7 2A       		.uleb128 0x2a
 7972 27e8 5E040000 		.4byte	.LVL184
 7973 27ec D02F0000 		.4byte	0x2fd0
 7974 27f0 0D280000 		.4byte	0x280d
 7975 27f4 2B       		.uleb128 0x2b
 7976 27f5 01       		.uleb128 0x1
 7977 27f6 50       		.byte	0x50
 7978 27f7 02       		.uleb128 0x2
 7979 27f8 08       		.byte	0x8
 7980 27f9 50       		.byte	0x50
 7981 27fa 2B       		.uleb128 0x2b
 7982 27fb 01       		.uleb128 0x1
 7983 27fc 51       		.byte	0x51
 7984 27fd 02       		.uleb128 0x2
 7985 27fe 08       		.byte	0x8
 7986 27ff 82       		.byte	0x82
 7987 2800 2B       		.uleb128 0x2b
 7988 2801 01       		.uleb128 0x1
 7989 2802 52       		.byte	0x52
 7990 2803 02       		.uleb128 0x2
 7991 2804 08       		.byte	0x8
 7992 2805 BE       		.byte	0xbe
 7993 2806 2B       		.uleb128 0x2b
 7994 2807 01       		.uleb128 0x1
 7995 2808 53       		.byte	0x53
 7996 2809 02       		.uleb128 0x2
 7997 280a 08       		.byte	0x8
 7998 280b A0       		.byte	0xa0
 7999 280c 00       		.byte	0
 8000 280d 2A       		.uleb128 0x2a
 8001 280e 68040000 		.4byte	.LVL185
 8002 2812 F42F0000 		.4byte	0x2ff4
 8003 2816 2A280000 		.4byte	0x282a
 8004 281a 2B       		.uleb128 0x2b
 8005 281b 01       		.uleb128 0x1
 8006 281c 50       		.byte	0x50
 8007 281d 02       		.uleb128 0x2
 8008 281e 91       		.byte	0x91
 8009 281f 5C       		.sleb128 -36
 8010 2820 2B       		.uleb128 0x2b
 8011 2821 01       		.uleb128 0x1
ARM GAS  C:\Users\Mathieu\AppData\Local\Temp\ccqdbTbw.s 			page 215


 8012 2822 51       		.byte	0x51
 8013 2823 05       		.uleb128 0x5
 8014 2824 03       		.byte	0x3
 8015 2825 68000000 		.4byte	.LC7
 8016 2829 00       		.byte	0
 8017 282a 2A       		.uleb128 0x2a
 8018 282b 72040000 		.4byte	.LVL186
 8019 282f DC2F0000 		.4byte	0x2fdc
 8020 2833 4A280000 		.4byte	0x284a
 8021 2837 2B       		.uleb128 0x2b
 8022 2838 01       		.uleb128 0x1
 8023 2839 50       		.byte	0x50
 8024 283a 02       		.uleb128 0x2
 8025 283b 91       		.byte	0x91
 8026 283c 5C       		.sleb128 -36
 8027 283d 2B       		.uleb128 0x2b
 8028 283e 01       		.uleb128 0x1
 8029 283f 51       		.byte	0x51
 8030 2840 02       		.uleb128 0x2
 8031 2841 08       		.byte	0x8
 8032 2842 78       		.byte	0x78
 8033 2843 2B       		.uleb128 0x2b
 8034 2844 01       		.uleb128 0x1
 8035 2845 52       		.byte	0x52
 8036 2846 02       		.uleb128 0x2
 8037 2847 08       		.byte	0x8
 8038 2848 87       		.byte	0x87
 8039 2849 00       		.byte	0
 8040 284a 2A       		.uleb128 0x2a
 8041 284b 7A040000 		.4byte	.LVL187
 8042 284f 23160000 		.4byte	0x1623
 8043 2853 62280000 		.4byte	0x2862
 8044 2857 2B       		.uleb128 0x2b
 8045 2858 01       		.uleb128 0x1
 8046 2859 50       		.byte	0x50
 8047 285a 01       		.uleb128 0x1
 8048 285b 31       		.byte	0x31
 8049 285c 2B       		.uleb128 0x2b
 8050 285d 01       		.uleb128 0x1
 8051 285e 51       		.byte	0x51
 8052 285f 01       		.uleb128 0x1
 8053 2860 31       		.byte	0x31
 8054 2861 00       		.byte	0
 8055 2862 29       		.uleb128 0x29
 8056 2863 88040000 		.4byte	.LVL189
 8057 2867 FF2F0000 		.4byte	0x2fff
 8058 286b 29       		.uleb128 0x29
 8059 286c 8C040000 		.4byte	.LVL190
 8060 2870 0A300000 		.4byte	0x300a
 8061 2874 29       		.uleb128 0x29
 8062 2875 92040000 		.4byte	.LVL191
 8063 2879 15300000 		.4byte	0x3015
 8064 287d 2A       		.uleb128 0x2a
 8065 287e 98040000 		.4byte	.LVL192
 8066 2882 20300000 		.4byte	0x3020
 8067 2886 90280000 		.4byte	0x2890
 8068 288a 2B       		.uleb128 0x2b
ARM GAS  C:\Users\Mathieu\AppData\Local\Temp\ccqdbTbw.s 			page 216


 8069 288b 01       		.uleb128 0x1
 8070 288c 50       		.byte	0x50
 8071 288d 01       		.uleb128 0x1
 8072 288e 32       		.byte	0x32
 8073 288f 00       		.byte	0
 8074 2890 2A       		.uleb128 0x2a
 8075 2891 A0040000 		.4byte	.LVL195
 8076 2895 20300000 		.4byte	0x3020
 8077 2899 A3280000 		.4byte	0x28a3
 8078 289d 2B       		.uleb128 0x2b
 8079 289e 01       		.uleb128 0x1
 8080 289f 50       		.byte	0x50
 8081 28a0 01       		.uleb128 0x1
 8082 28a1 31       		.byte	0x31
 8083 28a2 00       		.byte	0
 8084 28a3 2A       		.uleb128 0x2a
 8085 28a4 A8040000 		.4byte	.LVL198
 8086 28a8 2C300000 		.4byte	0x302c
 8087 28ac B6280000 		.4byte	0x28b6
 8088 28b0 2B       		.uleb128 0x2b
 8089 28b1 01       		.uleb128 0x1
 8090 28b2 50       		.byte	0x50
 8091 28b3 01       		.uleb128 0x1
 8092 28b4 30       		.byte	0x30
 8093 28b5 00       		.byte	0
 8094 28b6 2A       		.uleb128 0x2a
 8095 28b7 0A050000 		.4byte	.LVL201
 8096 28bb D02F0000 		.4byte	0x2fd0
 8097 28bf D9280000 		.4byte	0x28d9
 8098 28c3 2B       		.uleb128 0x2b
 8099 28c4 01       		.uleb128 0x1
 8100 28c5 50       		.byte	0x50
 8101 28c6 01       		.uleb128 0x1
 8102 28c7 46       		.byte	0x46
 8103 28c8 2B       		.uleb128 0x2b
 8104 28c9 01       		.uleb128 0x1
 8105 28ca 51       		.byte	0x51
 8106 28cb 01       		.uleb128 0x1
 8107 28cc 34       		.byte	0x34
 8108 28cd 2B       		.uleb128 0x2b
 8109 28ce 01       		.uleb128 0x1
 8110 28cf 52       		.byte	0x52
 8111 28d0 02       		.uleb128 0x2
 8112 28d1 08       		.byte	0x8
 8113 28d2 F2       		.byte	0xf2
 8114 28d3 2B       		.uleb128 0x2b
 8115 28d4 01       		.uleb128 0x1
 8116 28d5 53       		.byte	0x53
 8117 28d6 01       		.uleb128 0x1
 8118 28d7 4E       		.byte	0x4e
 8119 28d8 00       		.byte	0
 8120 28d9 29       		.uleb128 0x29
 8121 28da 10050000 		.4byte	.LVL202
 8122 28de B82F0000 		.4byte	0x2fb8
 8123 28e2 2A       		.uleb128 0x2a
 8124 28e3 1A050000 		.4byte	.LVL203
 8125 28e7 DC2F0000 		.4byte	0x2fdc
ARM GAS  C:\Users\Mathieu\AppData\Local\Temp\ccqdbTbw.s 			page 217


 8126 28eb 04290000 		.4byte	0x2904
 8127 28ef 2B       		.uleb128 0x2b
 8128 28f0 01       		.uleb128 0x1
 8129 28f1 50       		.byte	0x50
 8130 28f2 05       		.uleb128 0x5
 8131 28f3 03       		.byte	0x3
 8132 28f4 D0000000 		.4byte	.LC13
 8133 28f8 2B       		.uleb128 0x2b
 8134 28f9 01       		.uleb128 0x1
 8135 28fa 51       		.byte	0x51
 8136 28fb 02       		.uleb128 0x2
 8137 28fc 08       		.byte	0x8
 8138 28fd 28       		.byte	0x28
 8139 28fe 2B       		.uleb128 0x2b
 8140 28ff 01       		.uleb128 0x1
 8141 2900 52       		.byte	0x52
 8142 2901 01       		.uleb128 0x1
 8143 2902 38       		.byte	0x38
 8144 2903 00       		.byte	0
 8145 2904 29       		.uleb128 0x29
 8146 2905 20050000 		.4byte	.LVL204
 8147 2909 B82F0000 		.4byte	0x2fb8
 8148 290d 2A       		.uleb128 0x2a
 8149 290e 2A050000 		.4byte	.LVL205
 8150 2912 DC2F0000 		.4byte	0x2fdc
 8151 2916 2F290000 		.4byte	0x292f
 8152 291a 2B       		.uleb128 0x2b
 8153 291b 01       		.uleb128 0x1
 8154 291c 50       		.byte	0x50
 8155 291d 05       		.uleb128 0x5
 8156 291e 03       		.byte	0x3
 8157 291f 38010000 		.4byte	.LC16
 8158 2923 2B       		.uleb128 0x2b
 8159 2924 01       		.uleb128 0x1
 8160 2925 51       		.byte	0x51
 8161 2926 01       		.uleb128 0x1
 8162 2927 4E       		.byte	0x4e
 8163 2928 2B       		.uleb128 0x2b
 8164 2929 01       		.uleb128 0x1
 8165 292a 52       		.byte	0x52
 8166 292b 02       		.uleb128 0x2
 8167 292c 08       		.byte	0x8
 8168 292d 22       		.byte	0x22
 8169 292e 00       		.byte	0
 8170 292f 2A       		.uleb128 0x2a
 8171 2930 34050000 		.4byte	.LVL206
 8172 2934 DC2F0000 		.4byte	0x2fdc
 8173 2938 51290000 		.4byte	0x2951
 8174 293c 2B       		.uleb128 0x2b
 8175 293d 01       		.uleb128 0x1
 8176 293e 50       		.byte	0x50
 8177 293f 05       		.uleb128 0x5
 8178 2940 03       		.byte	0x3
 8179 2941 64010000 		.4byte	.LC17
 8180 2945 2B       		.uleb128 0x2b
 8181 2946 01       		.uleb128 0x1
 8182 2947 51       		.byte	0x51
ARM GAS  C:\Users\Mathieu\AppData\Local\Temp\ccqdbTbw.s 			page 218


 8183 2948 01       		.uleb128 0x1
 8184 2949 44       		.byte	0x44
 8185 294a 2B       		.uleb128 0x2b
 8186 294b 01       		.uleb128 0x1
 8187 294c 52       		.byte	0x52
 8188 294d 02       		.uleb128 0x2
 8189 294e 08       		.byte	0x8
 8190 294f 32       		.byte	0x32
 8191 2950 00       		.byte	0
 8192 2951 29       		.uleb128 0x29
 8193 2952 3A050000 		.4byte	.LVL207
 8194 2956 B82F0000 		.4byte	0x2fb8
 8195 295a 2A       		.uleb128 0x2a
 8196 295b 46050000 		.4byte	.LVL208
 8197 295f D02F0000 		.4byte	0x2fd0
 8198 2963 80290000 		.4byte	0x2980
 8199 2967 2B       		.uleb128 0x2b
 8200 2968 01       		.uleb128 0x1
 8201 2969 50       		.byte	0x50
 8202 296a 02       		.uleb128 0x2
 8203 296b 08       		.byte	0x8
 8204 296c 20       		.byte	0x20
 8205 296d 2B       		.uleb128 0x2b
 8206 296e 01       		.uleb128 0x1
 8207 296f 51       		.byte	0x51
 8208 2970 02       		.uleb128 0x2
 8209 2971 08       		.byte	0x8
 8210 2972 6E       		.byte	0x6e
 8211 2973 2B       		.uleb128 0x2b
 8212 2974 01       		.uleb128 0x1
 8213 2975 52       		.byte	0x52
 8214 2976 02       		.uleb128 0x2
 8215 2977 08       		.byte	0x8
 8216 2978 E8       		.byte	0xe8
 8217 2979 2B       		.uleb128 0x2b
 8218 297a 01       		.uleb128 0x1
 8219 297b 53       		.byte	0x53
 8220 297c 02       		.uleb128 0x2
 8221 297d 08       		.byte	0x8
 8222 297e 82       		.byte	0x82
 8223 297f 00       		.byte	0
 8224 2980 2A       		.uleb128 0x2a
 8225 2981 50050000 		.4byte	.LVL209
 8226 2985 DC2F0000 		.4byte	0x2fdc
 8227 2989 A2290000 		.4byte	0x29a2
 8228 298d 2B       		.uleb128 0x2b
 8229 298e 01       		.uleb128 0x1
 8230 298f 50       		.byte	0x50
 8231 2990 05       		.uleb128 0x5
 8232 2991 03       		.byte	0x3
 8233 2992 B8010000 		.4byte	.LC23
 8234 2996 2B       		.uleb128 0x2b
 8235 2997 01       		.uleb128 0x1
 8236 2998 51       		.byte	0x51
 8237 2999 01       		.uleb128 0x1
 8238 299a 4C       		.byte	0x4c
 8239 299b 2B       		.uleb128 0x2b
ARM GAS  C:\Users\Mathieu\AppData\Local\Temp\ccqdbTbw.s 			page 219


 8240 299c 01       		.uleb128 0x1
 8241 299d 52       		.byte	0x52
 8242 299e 02       		.uleb128 0x2
 8243 299f 08       		.byte	0x8
 8244 29a0 5A       		.byte	0x5a
 8245 29a1 00       		.byte	0
 8246 29a2 2A       		.uleb128 0x2a
 8247 29a3 5A050000 		.4byte	.LVL210
 8248 29a7 DC2F0000 		.4byte	0x2fdc
 8249 29ab C5290000 		.4byte	0x29c5
 8250 29af 2B       		.uleb128 0x2b
 8251 29b0 01       		.uleb128 0x1
 8252 29b1 50       		.byte	0x50
 8253 29b2 05       		.uleb128 0x5
 8254 29b3 03       		.byte	0x3
 8255 29b4 BC010000 		.4byte	.LC24
 8256 29b8 2B       		.uleb128 0x2b
 8257 29b9 01       		.uleb128 0x1
 8258 29ba 51       		.byte	0x51
 8259 29bb 02       		.uleb128 0x2
 8260 29bc 08       		.byte	0x8
 8261 29bd DE       		.byte	0xde
 8262 29be 2B       		.uleb128 0x2b
 8263 29bf 01       		.uleb128 0x1
 8264 29c0 52       		.byte	0x52
 8265 29c1 02       		.uleb128 0x2
 8266 29c2 08       		.byte	0x8
 8267 29c3 5A       		.byte	0x5a
 8268 29c4 00       		.byte	0
 8269 29c5 2A       		.uleb128 0x2a
 8270 29c6 66050000 		.4byte	.LVL211
 8271 29ca F42F0000 		.4byte	0x2ff4
 8272 29ce E2290000 		.4byte	0x29e2
 8273 29d2 2B       		.uleb128 0x2b
 8274 29d3 01       		.uleb128 0x1
 8275 29d4 50       		.byte	0x50
 8276 29d5 02       		.uleb128 0x2
 8277 29d6 91       		.byte	0x91
 8278 29d7 5C       		.sleb128 -36
 8279 29d8 2B       		.uleb128 0x2b
 8280 29d9 01       		.uleb128 0x1
 8281 29da 51       		.byte	0x51
 8282 29db 05       		.uleb128 0x5
 8283 29dc 03       		.byte	0x3
 8284 29dd C0010000 		.4byte	.LC25
 8285 29e1 00       		.byte	0
 8286 29e2 2A       		.uleb128 0x2a
 8287 29e3 70050000 		.4byte	.LVL212
 8288 29e7 DC2F0000 		.4byte	0x2fdc
 8289 29eb 022A0000 		.4byte	0x2a02
 8290 29ef 2B       		.uleb128 0x2b
 8291 29f0 01       		.uleb128 0x1
 8292 29f1 50       		.byte	0x50
 8293 29f2 02       		.uleb128 0x2
 8294 29f3 91       		.byte	0x91
 8295 29f4 5C       		.sleb128 -36
 8296 29f5 2B       		.uleb128 0x2b
ARM GAS  C:\Users\Mathieu\AppData\Local\Temp\ccqdbTbw.s 			page 220


 8297 29f6 01       		.uleb128 0x1
 8298 29f7 51       		.byte	0x51
 8299 29f8 02       		.uleb128 0x2
 8300 29f9 08       		.byte	0x8
 8301 29fa 6A       		.byte	0x6a
 8302 29fb 2B       		.uleb128 0x2b
 8303 29fc 01       		.uleb128 0x1
 8304 29fd 52       		.byte	0x52
 8305 29fe 02       		.uleb128 0x2
 8306 29ff 08       		.byte	0x8
 8307 2a00 91       		.byte	0x91
 8308 2a01 00       		.byte	0
 8309 2a02 2A       		.uleb128 0x2a
 8310 2a03 7C050000 		.4byte	.LVL213
 8311 2a07 D02F0000 		.4byte	0x2fd0
 8312 2a0b 282A0000 		.4byte	0x2a28
 8313 2a0f 2B       		.uleb128 0x2b
 8314 2a10 01       		.uleb128 0x1
 8315 2a11 50       		.byte	0x50
 8316 2a12 02       		.uleb128 0x2
 8317 2a13 08       		.byte	0x8
 8318 2a14 64       		.byte	0x64
 8319 2a15 2B       		.uleb128 0x2b
 8320 2a16 01       		.uleb128 0x1
 8321 2a17 51       		.byte	0x51
 8322 2a18 02       		.uleb128 0x2
 8323 2a19 08       		.byte	0x8
 8324 2a1a 86       		.byte	0x86
 8325 2a1b 2B       		.uleb128 0x2b
 8326 2a1c 01       		.uleb128 0x1
 8327 2a1d 52       		.byte	0x52
 8328 2a1e 02       		.uleb128 0x2
 8329 2a1f 08       		.byte	0x8
 8330 2a20 A4       		.byte	0xa4
 8331 2a21 2B       		.uleb128 0x2b
 8332 2a22 01       		.uleb128 0x1
 8333 2a23 53       		.byte	0x53
 8334 2a24 02       		.uleb128 0x2
 8335 2a25 08       		.byte	0x8
 8336 2a26 AA       		.byte	0xaa
 8337 2a27 00       		.byte	0
 8338 2a28 2A       		.uleb128 0x2a
 8339 2a29 9E050000 		.4byte	.LVL214
 8340 2a2d E82F0000 		.4byte	0x2fe8
 8341 2a31 482A0000 		.4byte	0x2a48
 8342 2a35 2B       		.uleb128 0x2b
 8343 2a36 01       		.uleb128 0x1
 8344 2a37 50       		.byte	0x50
 8345 2a38 02       		.uleb128 0x2
 8346 2a39 08       		.byte	0x8
 8347 2a3a 20       		.byte	0x20
 8348 2a3b 2B       		.uleb128 0x2b
 8349 2a3c 01       		.uleb128 0x1
 8350 2a3d 51       		.byte	0x51
 8351 2a3e 02       		.uleb128 0x2
 8352 2a3f 08       		.byte	0x8
 8353 2a40 6E       		.byte	0x6e
ARM GAS  C:\Users\Mathieu\AppData\Local\Temp\ccqdbTbw.s 			page 221


 8354 2a41 2B       		.uleb128 0x2b
 8355 2a42 01       		.uleb128 0x1
 8356 2a43 53       		.byte	0x53
 8357 2a44 02       		.uleb128 0x2
 8358 2a45 08       		.byte	0x8
 8359 2a46 82       		.byte	0x82
 8360 2a47 00       		.byte	0
 8361 2a48 2A       		.uleb128 0x2a
 8362 2a49 A6050000 		.4byte	.LVL215
 8363 2a4d 23160000 		.4byte	0x1623
 8364 2a51 602A0000 		.4byte	0x2a60
 8365 2a55 2B       		.uleb128 0x2b
 8366 2a56 01       		.uleb128 0x1
 8367 2a57 50       		.byte	0x50
 8368 2a58 01       		.uleb128 0x1
 8369 2a59 31       		.byte	0x31
 8370 2a5a 2B       		.uleb128 0x2b
 8371 2a5b 01       		.uleb128 0x1
 8372 2a5c 51       		.byte	0x51
 8373 2a5d 01       		.uleb128 0x1
 8374 2a5e 31       		.byte	0x31
 8375 2a5f 00       		.byte	0
 8376 2a60 29       		.uleb128 0x29
 8377 2a61 B4050000 		.4byte	.LVL217
 8378 2a65 FF2F0000 		.4byte	0x2fff
 8379 2a69 29       		.uleb128 0x29
 8380 2a6a B8050000 		.4byte	.LVL218
 8381 2a6e 0A300000 		.4byte	0x300a
 8382 2a72 29       		.uleb128 0x29
 8383 2a73 BE050000 		.4byte	.LVL219
 8384 2a77 15300000 		.4byte	0x3015
 8385 2a7b 2A       		.uleb128 0x2a
 8386 2a7c C4050000 		.4byte	.LVL220
 8387 2a80 20300000 		.4byte	0x3020
 8388 2a84 8E2A0000 		.4byte	0x2a8e
 8389 2a88 2B       		.uleb128 0x2b
 8390 2a89 01       		.uleb128 0x1
 8391 2a8a 50       		.byte	0x50
 8392 2a8b 01       		.uleb128 0x1
 8393 2a8c 32       		.byte	0x32
 8394 2a8d 00       		.byte	0
 8395 2a8e 2A       		.uleb128 0x2a
 8396 2a8f CC050000 		.4byte	.LVL223
 8397 2a93 20300000 		.4byte	0x3020
 8398 2a97 A12A0000 		.4byte	0x2aa1
 8399 2a9b 2B       		.uleb128 0x2b
 8400 2a9c 01       		.uleb128 0x1
 8401 2a9d 50       		.byte	0x50
 8402 2a9e 01       		.uleb128 0x1
 8403 2a9f 31       		.byte	0x31
 8404 2aa0 00       		.byte	0
 8405 2aa1 2A       		.uleb128 0x2a
 8406 2aa2 D4050000 		.4byte	.LVL226
 8407 2aa6 2C300000 		.4byte	0x302c
 8408 2aaa B42A0000 		.4byte	0x2ab4
 8409 2aae 2B       		.uleb128 0x2b
 8410 2aaf 01       		.uleb128 0x1
ARM GAS  C:\Users\Mathieu\AppData\Local\Temp\ccqdbTbw.s 			page 222


 8411 2ab0 50       		.byte	0x50
 8412 2ab1 01       		.uleb128 0x1
 8413 2ab2 30       		.byte	0x30
 8414 2ab3 00       		.byte	0
 8415 2ab4 2A       		.uleb128 0x2a
 8416 2ab5 90060000 		.4byte	.LVL230
 8417 2ab9 D02F0000 		.4byte	0x2fd0
 8418 2abd D72A0000 		.4byte	0x2ad7
 8419 2ac1 2B       		.uleb128 0x2b
 8420 2ac2 01       		.uleb128 0x1
 8421 2ac3 50       		.byte	0x50
 8422 2ac4 01       		.uleb128 0x1
 8423 2ac5 46       		.byte	0x46
 8424 2ac6 2B       		.uleb128 0x2b
 8425 2ac7 01       		.uleb128 0x1
 8426 2ac8 51       		.byte	0x51
 8427 2ac9 01       		.uleb128 0x1
 8428 2aca 34       		.byte	0x34
 8429 2acb 2B       		.uleb128 0x2b
 8430 2acc 01       		.uleb128 0x1
 8431 2acd 52       		.byte	0x52
 8432 2ace 02       		.uleb128 0x2
 8433 2acf 08       		.byte	0x8
 8434 2ad0 F2       		.byte	0xf2
 8435 2ad1 2B       		.uleb128 0x2b
 8436 2ad2 01       		.uleb128 0x1
 8437 2ad3 53       		.byte	0x53
 8438 2ad4 01       		.uleb128 0x1
 8439 2ad5 4E       		.byte	0x4e
 8440 2ad6 00       		.byte	0
 8441 2ad7 29       		.uleb128 0x29
 8442 2ad8 96060000 		.4byte	.LVL231
 8443 2adc B82F0000 		.4byte	0x2fb8
 8444 2ae0 2A       		.uleb128 0x2a
 8445 2ae1 A0060000 		.4byte	.LVL232
 8446 2ae5 DC2F0000 		.4byte	0x2fdc
 8447 2ae9 022B0000 		.4byte	0x2b02
 8448 2aed 2B       		.uleb128 0x2b
 8449 2aee 01       		.uleb128 0x1
 8450 2aef 50       		.byte	0x50
 8451 2af0 05       		.uleb128 0x5
 8452 2af1 03       		.byte	0x3
 8453 2af2 EC000000 		.4byte	.LC14
 8454 2af6 2B       		.uleb128 0x2b
 8455 2af7 01       		.uleb128 0x1
 8456 2af8 51       		.byte	0x51
 8457 2af9 02       		.uleb128 0x2
 8458 2afa 08       		.byte	0x8
 8459 2afb 20       		.byte	0x20
 8460 2afc 2B       		.uleb128 0x2b
 8461 2afd 01       		.uleb128 0x1
 8462 2afe 52       		.byte	0x52
 8463 2aff 01       		.uleb128 0x1
 8464 2b00 38       		.byte	0x38
 8465 2b01 00       		.byte	0
 8466 2b02 29       		.uleb128 0x29
 8467 2b03 A6060000 		.4byte	.LVL233
ARM GAS  C:\Users\Mathieu\AppData\Local\Temp\ccqdbTbw.s 			page 223


 8468 2b07 B82F0000 		.4byte	0x2fb8
 8469 2b0b 2A       		.uleb128 0x2a
 8470 2b0c B0060000 		.4byte	.LVL234
 8471 2b10 DC2F0000 		.4byte	0x2fdc
 8472 2b14 2D2B0000 		.4byte	0x2b2d
 8473 2b18 2B       		.uleb128 0x2b
 8474 2b19 01       		.uleb128 0x1
 8475 2b1a 50       		.byte	0x50
 8476 2b1b 05       		.uleb128 0x5
 8477 2b1c 03       		.byte	0x3
 8478 2b1d 38010000 		.4byte	.LC16
 8479 2b21 2B       		.uleb128 0x2b
 8480 2b22 01       		.uleb128 0x1
 8481 2b23 51       		.byte	0x51
 8482 2b24 01       		.uleb128 0x1
 8483 2b25 4E       		.byte	0x4e
 8484 2b26 2B       		.uleb128 0x2b
 8485 2b27 01       		.uleb128 0x1
 8486 2b28 52       		.byte	0x52
 8487 2b29 02       		.uleb128 0x2
 8488 2b2a 08       		.byte	0x8
 8489 2b2b 22       		.byte	0x22
 8490 2b2c 00       		.byte	0
 8491 2b2d 2A       		.uleb128 0x2a
 8492 2b2e BA060000 		.4byte	.LVL235
 8493 2b32 DC2F0000 		.4byte	0x2fdc
 8494 2b36 4F2B0000 		.4byte	0x2b4f
 8495 2b3a 2B       		.uleb128 0x2b
 8496 2b3b 01       		.uleb128 0x1
 8497 2b3c 50       		.byte	0x50
 8498 2b3d 05       		.uleb128 0x5
 8499 2b3e 03       		.byte	0x3
 8500 2b3f 64010000 		.4byte	.LC17
 8501 2b43 2B       		.uleb128 0x2b
 8502 2b44 01       		.uleb128 0x1
 8503 2b45 51       		.byte	0x51
 8504 2b46 01       		.uleb128 0x1
 8505 2b47 44       		.byte	0x44
 8506 2b48 2B       		.uleb128 0x2b
 8507 2b49 01       		.uleb128 0x1
 8508 2b4a 52       		.byte	0x52
 8509 2b4b 02       		.uleb128 0x2
 8510 2b4c 08       		.byte	0x8
 8511 2b4d 32       		.byte	0x32
 8512 2b4e 00       		.byte	0
 8513 2b4f 29       		.uleb128 0x29
 8514 2b50 C0060000 		.4byte	.LVL236
 8515 2b54 B82F0000 		.4byte	0x2fb8
 8516 2b58 2A       		.uleb128 0x2a
 8517 2b59 CC060000 		.4byte	.LVL237
 8518 2b5d D02F0000 		.4byte	0x2fd0
 8519 2b61 7E2B0000 		.4byte	0x2b7e
 8520 2b65 2B       		.uleb128 0x2b
 8521 2b66 01       		.uleb128 0x1
 8522 2b67 50       		.byte	0x50
 8523 2b68 02       		.uleb128 0x2
 8524 2b69 08       		.byte	0x8
ARM GAS  C:\Users\Mathieu\AppData\Local\Temp\ccqdbTbw.s 			page 224


 8525 2b6a 20       		.byte	0x20
 8526 2b6b 2B       		.uleb128 0x2b
 8527 2b6c 01       		.uleb128 0x1
 8528 2b6d 51       		.byte	0x51
 8529 2b6e 02       		.uleb128 0x2
 8530 2b6f 08       		.byte	0x8
 8531 2b70 6E       		.byte	0x6e
 8532 2b71 2B       		.uleb128 0x2b
 8533 2b72 01       		.uleb128 0x1
 8534 2b73 52       		.byte	0x52
 8535 2b74 02       		.uleb128 0x2
 8536 2b75 08       		.byte	0x8
 8537 2b76 E8       		.byte	0xe8
 8538 2b77 2B       		.uleb128 0x2b
 8539 2b78 01       		.uleb128 0x1
 8540 2b79 53       		.byte	0x53
 8541 2b7a 02       		.uleb128 0x2
 8542 2b7b 08       		.byte	0x8
 8543 2b7c 82       		.byte	0x82
 8544 2b7d 00       		.byte	0
 8545 2b7e 2A       		.uleb128 0x2a
 8546 2b7f D6060000 		.4byte	.LVL238
 8547 2b83 DC2F0000 		.4byte	0x2fdc
 8548 2b87 A02B0000 		.4byte	0x2ba0
 8549 2b8b 2B       		.uleb128 0x2b
 8550 2b8c 01       		.uleb128 0x1
 8551 2b8d 50       		.byte	0x50
 8552 2b8e 05       		.uleb128 0x5
 8553 2b8f 03       		.byte	0x3
 8554 2b90 B8010000 		.4byte	.LC23
 8555 2b94 2B       		.uleb128 0x2b
 8556 2b95 01       		.uleb128 0x1
 8557 2b96 51       		.byte	0x51
 8558 2b97 01       		.uleb128 0x1
 8559 2b98 4C       		.byte	0x4c
 8560 2b99 2B       		.uleb128 0x2b
 8561 2b9a 01       		.uleb128 0x1
 8562 2b9b 52       		.byte	0x52
 8563 2b9c 02       		.uleb128 0x2
 8564 2b9d 08       		.byte	0x8
 8565 2b9e 5A       		.byte	0x5a
 8566 2b9f 00       		.byte	0
 8567 2ba0 2A       		.uleb128 0x2a
 8568 2ba1 E0060000 		.4byte	.LVL239
 8569 2ba5 DC2F0000 		.4byte	0x2fdc
 8570 2ba9 C32B0000 		.4byte	0x2bc3
 8571 2bad 2B       		.uleb128 0x2b
 8572 2bae 01       		.uleb128 0x1
 8573 2baf 50       		.byte	0x50
 8574 2bb0 05       		.uleb128 0x5
 8575 2bb1 03       		.byte	0x3
 8576 2bb2 BC010000 		.4byte	.LC24
 8577 2bb6 2B       		.uleb128 0x2b
 8578 2bb7 01       		.uleb128 0x1
 8579 2bb8 51       		.byte	0x51
 8580 2bb9 02       		.uleb128 0x2
 8581 2bba 08       		.byte	0x8
ARM GAS  C:\Users\Mathieu\AppData\Local\Temp\ccqdbTbw.s 			page 225


 8582 2bbb DE       		.byte	0xde
 8583 2bbc 2B       		.uleb128 0x2b
 8584 2bbd 01       		.uleb128 0x1
 8585 2bbe 52       		.byte	0x52
 8586 2bbf 02       		.uleb128 0x2
 8587 2bc0 08       		.byte	0x8
 8588 2bc1 5A       		.byte	0x5a
 8589 2bc2 00       		.byte	0
 8590 2bc3 2A       		.uleb128 0x2a
 8591 2bc4 EC060000 		.4byte	.LVL240
 8592 2bc8 F42F0000 		.4byte	0x2ff4
 8593 2bcc E02B0000 		.4byte	0x2be0
 8594 2bd0 2B       		.uleb128 0x2b
 8595 2bd1 01       		.uleb128 0x1
 8596 2bd2 50       		.byte	0x50
 8597 2bd3 02       		.uleb128 0x2
 8598 2bd4 91       		.byte	0x91
 8599 2bd5 5C       		.sleb128 -36
 8600 2bd6 2B       		.uleb128 0x2b
 8601 2bd7 01       		.uleb128 0x1
 8602 2bd8 51       		.byte	0x51
 8603 2bd9 05       		.uleb128 0x5
 8604 2bda 03       		.byte	0x3
 8605 2bdb C0010000 		.4byte	.LC25
 8606 2bdf 00       		.byte	0
 8607 2be0 2A       		.uleb128 0x2a
 8608 2be1 F6060000 		.4byte	.LVL241
 8609 2be5 DC2F0000 		.4byte	0x2fdc
 8610 2be9 002C0000 		.4byte	0x2c00
 8611 2bed 2B       		.uleb128 0x2b
 8612 2bee 01       		.uleb128 0x1
 8613 2bef 50       		.byte	0x50
 8614 2bf0 02       		.uleb128 0x2
 8615 2bf1 91       		.byte	0x91
 8616 2bf2 5C       		.sleb128 -36
 8617 2bf3 2B       		.uleb128 0x2b
 8618 2bf4 01       		.uleb128 0x1
 8619 2bf5 51       		.byte	0x51
 8620 2bf6 02       		.uleb128 0x2
 8621 2bf7 08       		.byte	0x8
 8622 2bf8 6A       		.byte	0x6a
 8623 2bf9 2B       		.uleb128 0x2b
 8624 2bfa 01       		.uleb128 0x1
 8625 2bfb 52       		.byte	0x52
 8626 2bfc 02       		.uleb128 0x2
 8627 2bfd 08       		.byte	0x8
 8628 2bfe 91       		.byte	0x91
 8629 2bff 00       		.byte	0
 8630 2c00 2A       		.uleb128 0x2a
 8631 2c01 02070000 		.4byte	.LVL242
 8632 2c05 D02F0000 		.4byte	0x2fd0
 8633 2c09 262C0000 		.4byte	0x2c26
 8634 2c0d 2B       		.uleb128 0x2b
 8635 2c0e 01       		.uleb128 0x1
 8636 2c0f 50       		.byte	0x50
 8637 2c10 02       		.uleb128 0x2
 8638 2c11 08       		.byte	0x8
ARM GAS  C:\Users\Mathieu\AppData\Local\Temp\ccqdbTbw.s 			page 226


 8639 2c12 64       		.byte	0x64
 8640 2c13 2B       		.uleb128 0x2b
 8641 2c14 01       		.uleb128 0x1
 8642 2c15 51       		.byte	0x51
 8643 2c16 02       		.uleb128 0x2
 8644 2c17 08       		.byte	0x8
 8645 2c18 86       		.byte	0x86
 8646 2c19 2B       		.uleb128 0x2b
 8647 2c1a 01       		.uleb128 0x1
 8648 2c1b 52       		.byte	0x52
 8649 2c1c 02       		.uleb128 0x2
 8650 2c1d 08       		.byte	0x8
 8651 2c1e A4       		.byte	0xa4
 8652 2c1f 2B       		.uleb128 0x2b
 8653 2c20 01       		.uleb128 0x1
 8654 2c21 53       		.byte	0x53
 8655 2c22 02       		.uleb128 0x2
 8656 2c23 08       		.byte	0x8
 8657 2c24 AA       		.byte	0xaa
 8658 2c25 00       		.byte	0
 8659 2c26 2A       		.uleb128 0x2a
 8660 2c27 24070000 		.4byte	.LVL243
 8661 2c2b E82F0000 		.4byte	0x2fe8
 8662 2c2f 462C0000 		.4byte	0x2c46
 8663 2c33 2B       		.uleb128 0x2b
 8664 2c34 01       		.uleb128 0x1
 8665 2c35 50       		.byte	0x50
 8666 2c36 02       		.uleb128 0x2
 8667 2c37 08       		.byte	0x8
 8668 2c38 20       		.byte	0x20
 8669 2c39 2B       		.uleb128 0x2b
 8670 2c3a 01       		.uleb128 0x1
 8671 2c3b 51       		.byte	0x51
 8672 2c3c 02       		.uleb128 0x2
 8673 2c3d 08       		.byte	0x8
 8674 2c3e 6E       		.byte	0x6e
 8675 2c3f 2B       		.uleb128 0x2b
 8676 2c40 01       		.uleb128 0x1
 8677 2c41 53       		.byte	0x53
 8678 2c42 02       		.uleb128 0x2
 8679 2c43 08       		.byte	0x8
 8680 2c44 82       		.byte	0x82
 8681 2c45 00       		.byte	0
 8682 2c46 2A       		.uleb128 0x2a
 8683 2c47 2C070000 		.4byte	.LVL244
 8684 2c4b 23160000 		.4byte	0x1623
 8685 2c4f 5E2C0000 		.4byte	0x2c5e
 8686 2c53 2B       		.uleb128 0x2b
 8687 2c54 01       		.uleb128 0x1
 8688 2c55 50       		.byte	0x50
 8689 2c56 01       		.uleb128 0x1
 8690 2c57 31       		.byte	0x31
 8691 2c58 2B       		.uleb128 0x2b
 8692 2c59 01       		.uleb128 0x1
 8693 2c5a 51       		.byte	0x51
 8694 2c5b 01       		.uleb128 0x1
 8695 2c5c 31       		.byte	0x31
ARM GAS  C:\Users\Mathieu\AppData\Local\Temp\ccqdbTbw.s 			page 227


 8696 2c5d 00       		.byte	0
 8697 2c5e 29       		.uleb128 0x29
 8698 2c5f 3A070000 		.4byte	.LVL246
 8699 2c63 FF2F0000 		.4byte	0x2fff
 8700 2c67 29       		.uleb128 0x29
 8701 2c68 3E070000 		.4byte	.LVL247
 8702 2c6c 0A300000 		.4byte	0x300a
 8703 2c70 29       		.uleb128 0x29
 8704 2c71 44070000 		.4byte	.LVL248
 8705 2c75 15300000 		.4byte	0x3015
 8706 2c79 2A       		.uleb128 0x2a
 8707 2c7a 4A070000 		.4byte	.LVL249
 8708 2c7e 20300000 		.4byte	0x3020
 8709 2c82 8C2C0000 		.4byte	0x2c8c
 8710 2c86 2B       		.uleb128 0x2b
 8711 2c87 01       		.uleb128 0x1
 8712 2c88 50       		.byte	0x50
 8713 2c89 01       		.uleb128 0x1
 8714 2c8a 32       		.byte	0x32
 8715 2c8b 00       		.byte	0
 8716 2c8c 2A       		.uleb128 0x2a
 8717 2c8d 52070000 		.4byte	.LVL252
 8718 2c91 20300000 		.4byte	0x3020
 8719 2c95 9F2C0000 		.4byte	0x2c9f
 8720 2c99 2B       		.uleb128 0x2b
 8721 2c9a 01       		.uleb128 0x1
 8722 2c9b 50       		.byte	0x50
 8723 2c9c 01       		.uleb128 0x1
 8724 2c9d 31       		.byte	0x31
 8725 2c9e 00       		.byte	0
 8726 2c9f 2C       		.uleb128 0x2c
 8727 2ca0 5A070000 		.4byte	.LVL255
 8728 2ca4 2C300000 		.4byte	0x302c
 8729 2ca8 2B       		.uleb128 0x2b
 8730 2ca9 01       		.uleb128 0x1
 8731 2caa 50       		.byte	0x50
 8732 2cab 01       		.uleb128 0x1
 8733 2cac 30       		.byte	0x30
 8734 2cad 00       		.byte	0
 8735 2cae 00       		.byte	0
 8736 2caf 29       		.uleb128 0x29
 8737 2cb0 08000000 		.4byte	.LVL91
 8738 2cb4 A02F0000 		.4byte	0x2fa0
 8739 2cb8 2C       		.uleb128 0x2c
 8740 2cb9 C4070000 		.4byte	.LVL259
 8741 2cbd 23160000 		.4byte	0x1623
 8742 2cc1 2B       		.uleb128 0x2b
 8743 2cc2 01       		.uleb128 0x1
 8744 2cc3 50       		.byte	0x50
 8745 2cc4 01       		.uleb128 0x1
 8746 2cc5 31       		.byte	0x31
 8747 2cc6 2B       		.uleb128 0x2b
 8748 2cc7 01       		.uleb128 0x1
 8749 2cc8 51       		.byte	0x51
 8750 2cc9 01       		.uleb128 0x1
 8751 2cca 31       		.byte	0x31
 8752 2ccb 00       		.byte	0
ARM GAS  C:\Users\Mathieu\AppData\Local\Temp\ccqdbTbw.s 			page 228


 8753 2ccc 00       		.byte	0
 8754 2ccd 0C       		.uleb128 0xc
 8755 2cce D80B0000 		.4byte	0xbd8
 8756 2cd2 DD2C0000 		.4byte	0x2cdd
 8757 2cd6 0D       		.uleb128 0xd
 8758 2cd7 71050000 		.4byte	0x571
 8759 2cdb 13       		.byte	0x13
 8760 2cdc 00       		.byte	0
 8761 2cdd 0C       		.uleb128 0xc
 8762 2cde D80B0000 		.4byte	0xbd8
 8763 2ce2 ED2C0000 		.4byte	0x2ced
 8764 2ce6 0D       		.uleb128 0xd
 8765 2ce7 71050000 		.4byte	0x571
 8766 2ceb 09       		.byte	0x9
 8767 2cec 00       		.byte	0
 8768 2ced 31       		.uleb128 0x31
 8769 2cee 6D170000 		.4byte	.LASF473
 8770 2cf2 01       		.byte	0x1
 8771 2cf3 B302     		.2byte	0x2b3
 8772 2cf5 00000000 		.4byte	.LFB667
 8773 2cf9 78000000 		.4byte	.LFE667-.LFB667
 8774 2cfd 01       		.uleb128 0x1
 8775 2cfe 9C       		.byte	0x9c
 8776 2cff 9E2D0000 		.4byte	0x2d9e
 8777 2d03 34       		.uleb128 0x34
 8778 2d04 FD150000 		.4byte	0x15fd
 8779 2d08 02000000 		.4byte	.LBB20
 8780 2d0c 0A000000 		.4byte	.LBE20-.LBB20
 8781 2d10 01       		.byte	0x1
 8782 2d11 B602     		.2byte	0x2b6
 8783 2d13 2A2D0000 		.4byte	0x2d2a
 8784 2d17 35       		.uleb128 0x35
 8785 2d18 16160000 		.4byte	0x1616
 8786 2d1c 8C030000 		.4byte	.LLST12
 8787 2d20 35       		.uleb128 0x35
 8788 2d21 0A160000 		.4byte	0x160a
 8789 2d25 A0030000 		.4byte	.LLST13
 8790 2d29 00       		.byte	0
 8791 2d2a 34       		.uleb128 0x34
 8792 2d2b E3150000 		.4byte	0x15e3
 8793 2d2f 12000000 		.4byte	.LBB22
 8794 2d33 16000000 		.4byte	.LBE22-.LBB22
 8795 2d37 01       		.byte	0x1
 8796 2d38 B702     		.2byte	0x2b7
 8797 2d3a 482D0000 		.4byte	0x2d48
 8798 2d3e 35       		.uleb128 0x35
 8799 2d3f F0150000 		.4byte	0x15f0
 8800 2d43 B8030000 		.4byte	.LLST14
 8801 2d47 00       		.byte	0
 8802 2d48 34       		.uleb128 0x34
 8803 2d49 FD150000 		.4byte	0x15fd
 8804 2d4d 40000000 		.4byte	.LBB24
 8805 2d51 0A000000 		.4byte	.LBE24-.LBB24
 8806 2d55 01       		.byte	0x1
 8807 2d56 BF02     		.2byte	0x2bf
 8808 2d58 6F2D0000 		.4byte	0x2d6f
 8809 2d5c 35       		.uleb128 0x35
ARM GAS  C:\Users\Mathieu\AppData\Local\Temp\ccqdbTbw.s 			page 229


 8810 2d5d 16160000 		.4byte	0x1616
 8811 2d61 CB030000 		.4byte	.LLST15
 8812 2d65 35       		.uleb128 0x35
 8813 2d66 0A160000 		.4byte	0x160a
 8814 2d6a DF030000 		.4byte	.LLST16
 8815 2d6e 00       		.byte	0
 8816 2d6f 34       		.uleb128 0x34
 8817 2d70 E3150000 		.4byte	0x15e3
 8818 2d74 4A000000 		.4byte	.LBB26
 8819 2d78 2E000000 		.4byte	.LBE26-.LBB26
 8820 2d7c 01       		.byte	0x1
 8821 2d7d C002     		.2byte	0x2c0
 8822 2d7f 8D2D0000 		.4byte	0x2d8d
 8823 2d83 35       		.uleb128 0x35
 8824 2d84 F0150000 		.4byte	0x15f0
 8825 2d88 F7030000 		.4byte	.LLST17
 8826 2d8c 00       		.byte	0
 8827 2d8d 2C       		.uleb128 0x2c
 8828 2d8e 2E000000 		.4byte	.LVL264
 8829 2d92 38300000 		.4byte	0x3038
 8830 2d96 2B       		.uleb128 0x2b
 8831 2d97 01       		.uleb128 0x1
 8832 2d98 50       		.byte	0x50
 8833 2d99 02       		.uleb128 0x2
 8834 2d9a 08       		.byte	0x8
 8835 2d9b 64       		.byte	0x64
 8836 2d9c 00       		.byte	0
 8837 2d9d 00       		.byte	0
 8838 2d9e 36       		.uleb128 0x36
 8839 2d9f 58130000 		.4byte	.LASF474
 8840 2da3 03       		.byte	0x3
 8841 2da4 F907     		.2byte	0x7f9
 8842 2da6 AA2D0000 		.4byte	0x2daa
 8843 2daa 0E       		.uleb128 0xe
 8844 2dab 8F040000 		.4byte	0x48f
 8845 2daf 37       		.uleb128 0x37
 8846 2db0 971C0000 		.4byte	.LASF475
 8847 2db4 09       		.byte	0x9
 8848 2db5 A7       		.byte	0xa7
 8849 2db6 BA2D0000 		.4byte	0x2dba
 8850 2dba 17       		.uleb128 0x17
 8851 2dbb 04       		.byte	0x4
 8852 2dbc C02D0000 		.4byte	0x2dc0
 8853 2dc0 11       		.uleb128 0x11
 8854 2dc1 C10B0000 		.4byte	0xbc1
 8855 2dc5 37       		.uleb128 0x37
 8856 2dc6 67020000 		.4byte	.LASF476
 8857 2dca 15       		.byte	0x15
 8858 2dcb 19       		.byte	0x19
 8859 2dcc D02D0000 		.4byte	0x2dd0
 8860 2dd0 11       		.uleb128 0x11
 8861 2dd1 230C0000 		.4byte	0xc23
 8862 2dd5 37       		.uleb128 0x37
 8863 2dd6 32070000 		.4byte	.LASF477
 8864 2dda 16       		.byte	0x16
 8865 2ddb 5E       		.byte	0x5e
 8866 2ddc 610E0000 		.4byte	0xe61
ARM GAS  C:\Users\Mathieu\AppData\Local\Temp\ccqdbTbw.s 			page 230


 8867 2de0 37       		.uleb128 0x37
 8868 2de1 10220000 		.4byte	.LASF478
 8869 2de5 17       		.byte	0x17
 8870 2de6 1F       		.byte	0x1f
 8871 2de7 EB2D0000 		.4byte	0x2deb
 8872 2deb 11       		.uleb128 0x11
 8873 2dec 3A100000 		.4byte	0x103a
 8874 2df0 37       		.uleb128 0x37
 8875 2df1 0F210000 		.4byte	.LASF479
 8876 2df5 18       		.byte	0x18
 8877 2df6 87       		.byte	0x87
 8878 2df7 3D0F0000 		.4byte	0xf3d
 8879 2dfb 37       		.uleb128 0x37
 8880 2dfc 5F120000 		.4byte	.LASF480
 8881 2e00 19       		.byte	0x19
 8882 2e01 7F       		.byte	0x7f
 8883 2e02 C60D0000 		.4byte	0xdc6
 8884 2e06 37       		.uleb128 0x37
 8885 2e07 96070000 		.4byte	.LASF481
 8886 2e0b 1A       		.byte	0x1a
 8887 2e0c 7F       		.byte	0x7f
 8888 2e0d C60D0000 		.4byte	0xdc6
 8889 2e11 36       		.uleb128 0x36
 8890 2e12 F50F0000 		.4byte	.LASF482
 8891 2e16 1B       		.byte	0x1b
 8892 2e17 0308     		.2byte	0x803
 8893 2e19 B8140000 		.4byte	0x14b8
 8894 2e1d 36       		.uleb128 0x36
 8895 2e1e 8B0C0000 		.4byte	.LASF483
 8896 2e22 1B       		.byte	0x1b
 8897 2e23 0408     		.2byte	0x804
 8898 2e25 B8140000 		.4byte	0x14b8
 8899 2e29 36       		.uleb128 0x36
 8900 2e2a 50210000 		.4byte	.LASF484
 8901 2e2e 1B       		.byte	0x1b
 8902 2e2f 0808     		.2byte	0x808
 8903 2e31 B8140000 		.4byte	0x14b8
 8904 2e35 36       		.uleb128 0x36
 8905 2e36 C0180000 		.4byte	.LASF485
 8906 2e3a 1B       		.byte	0x1b
 8907 2e3b 0A08     		.2byte	0x80a
 8908 2e3d B8140000 		.4byte	0x14b8
 8909 2e41 37       		.uleb128 0x37
 8910 2e42 9F110000 		.4byte	.LASF486
 8911 2e46 1C       		.byte	0x1c
 8912 2e47 13       		.byte	0x13
 8913 2e48 4C2E0000 		.4byte	0x2e4c
 8914 2e4c 0E       		.uleb128 0xe
 8915 2e4d 60040000 		.4byte	0x460
 8916 2e51 37       		.uleb128 0x37
 8917 2e52 FA130000 		.4byte	.LASF487
 8918 2e56 1C       		.byte	0x1c
 8919 2e57 14       		.byte	0x14
 8920 2e58 4C2E0000 		.4byte	0x2e4c
 8921 2e5c 37       		.uleb128 0x37
 8922 2e5d 141E0000 		.4byte	.LASF488
 8923 2e61 1C       		.byte	0x1c
ARM GAS  C:\Users\Mathieu\AppData\Local\Temp\ccqdbTbw.s 			page 231


 8924 2e62 15       		.byte	0x15
 8925 2e63 4C2E0000 		.4byte	0x2e4c
 8926 2e67 37       		.uleb128 0x37
 8927 2e68 4C000000 		.4byte	.LASF489
 8928 2e6c 1C       		.byte	0x1c
 8929 2e6d 16       		.byte	0x16
 8930 2e6e 4C2E0000 		.4byte	0x2e4c
 8931 2e72 38       		.uleb128 0x38
 8932 2e73 401A0000 		.4byte	.LASF490
 8933 2e77 01       		.byte	0x1
 8934 2e78 10       		.byte	0x10
 8935 2e79 4C2E0000 		.4byte	0x2e4c
 8936 2e7d 05       		.uleb128 0x5
 8937 2e7e 03       		.byte	0x3
 8938 2e7f 00000000 		.4byte	SPO2
 8939 2e83 39       		.uleb128 0x39
 8940 2e84 485200   		.ascii	"HR\000"
 8941 2e87 01       		.byte	0x1
 8942 2e88 11       		.byte	0x11
 8943 2e89 4C2E0000 		.4byte	0x2e4c
 8944 2e8d 05       		.uleb128 0x5
 8945 2e8e 03       		.byte	0x3
 8946 2e8f 00000000 		.4byte	HR
 8947 2e93 38       		.uleb128 0x38
 8948 2e94 7D1C0000 		.4byte	.LASF491
 8949 2e98 01       		.byte	0x1
 8950 2e99 12       		.byte	0x12
 8951 2e9a 4C2E0000 		.4byte	0x2e4c
 8952 2e9e 05       		.uleb128 0x5
 8953 2e9f 03       		.byte	0x3
 8954 2ea0 00000000 		.4byte	Current_LED1
 8955 2ea4 38       		.uleb128 0x38
 8956 2ea5 8A1C0000 		.4byte	.LASF492
 8957 2ea9 01       		.byte	0x1
 8958 2eaa 13       		.byte	0x13
 8959 2eab 4C2E0000 		.4byte	0x2e4c
 8960 2eaf 05       		.uleb128 0x5
 8961 2eb0 03       		.byte	0x3
 8962 2eb1 00000000 		.4byte	Current_LED2
 8963 2eb5 38       		.uleb128 0x38
 8964 2eb6 670F0000 		.4byte	.LASF493
 8965 2eba 01       		.byte	0x1
 8966 2ebb 14       		.byte	0x14
 8967 2ebc 4C2E0000 		.4byte	0x2e4c
 8968 2ec0 05       		.uleb128 0x5
 8969 2ec1 03       		.byte	0x3
 8970 2ec2 00000000 		.4byte	HR_min_alarm
 8971 2ec6 38       		.uleb128 0x38
 8972 2ec7 DD1E0000 		.4byte	.LASF494
 8973 2ecb 01       		.byte	0x1
 8974 2ecc 15       		.byte	0x15
 8975 2ecd 4C2E0000 		.4byte	0x2e4c
 8976 2ed1 05       		.uleb128 0x5
 8977 2ed2 03       		.byte	0x3
 8978 2ed3 00000000 		.4byte	HR_max_alarm
 8979 2ed7 38       		.uleb128 0x38
 8980 2ed8 51180000 		.4byte	.LASF495
ARM GAS  C:\Users\Mathieu\AppData\Local\Temp\ccqdbTbw.s 			page 232


 8981 2edc 01       		.byte	0x1
 8982 2edd 16       		.byte	0x16
 8983 2ede 4C2E0000 		.4byte	0x2e4c
 8984 2ee2 05       		.uleb128 0x5
 8985 2ee3 03       		.byte	0x3
 8986 2ee4 00000000 		.4byte	SPO2_min_alarm
 8987 2ee8 38       		.uleb128 0x38
 8988 2ee9 55080000 		.4byte	.LASF496
 8989 2eed 1D       		.byte	0x1d
 8990 2eee 14       		.byte	0x14
 8991 2eef D8150000 		.4byte	0x15d8
 8992 2ef3 05       		.uleb128 0x5
 8993 2ef4 03       		.byte	0x3
 8994 2ef5 00000000 		.4byte	xSemaphoreI2C_MAX
 8995 2ef9 38       		.uleb128 0x38
 8996 2efa 440E0000 		.4byte	.LASF497
 8997 2efe 1D       		.byte	0x1d
 8998 2eff 15       		.byte	0x15
 8999 2f00 D8150000 		.4byte	0x15d8
 9000 2f04 05       		.uleb128 0x5
 9001 2f05 03       		.byte	0x3
 9002 2f06 00000000 		.4byte	xSemaphoreI2C_BMI
 9003 2f0a 0C       		.uleb128 0xc
 9004 2f0b 78050000 		.4byte	0x578
 9005 2f0f 1B2F0000 		.4byte	0x2f1b
 9006 2f13 0F       		.uleb128 0xf
 9007 2f14 71050000 		.4byte	0x571
 9008 2f18 CF07     		.2byte	0x7cf
 9009 2f1a 00       		.byte	0
 9010 2f1b 38       		.uleb128 0x38
 9011 2f1c 271D0000 		.4byte	.LASF498
 9012 2f20 1D       		.byte	0x1d
 9013 2f21 17       		.byte	0x17
 9014 2f22 2C2F0000 		.4byte	0x2f2c
 9015 2f26 05       		.uleb128 0x5
 9016 2f27 03       		.byte	0x3
 9017 2f28 00000000 		.4byte	IR_data
 9018 2f2c 0E       		.uleb128 0xe
 9019 2f2d 0A2F0000 		.4byte	0x2f0a
 9020 2f31 38       		.uleb128 0x38
 9021 2f32 BD0D0000 		.4byte	.LASF499
 9022 2f36 1D       		.byte	0x1d
 9023 2f37 18       		.byte	0x18
 9024 2f38 422F0000 		.4byte	0x2f42
 9025 2f3c 05       		.uleb128 0x5
 9026 2f3d 03       		.byte	0x3
 9027 2f3e 00000000 		.4byte	RED_data
 9028 2f42 0E       		.uleb128 0xe
 9029 2f43 0A2F0000 		.4byte	0x2f0a
 9030 2f47 0C       		.uleb128 0xc
 9031 2f48 ED0B0000 		.4byte	0xbed
 9032 2f4c 582F0000 		.4byte	0x2f58
 9033 2f50 0F       		.uleb128 0xf
 9034 2f51 71050000 		.4byte	0x571
 9035 2f55 AF16     		.2byte	0x16af
 9036 2f57 00       		.byte	0
 9037 2f58 38       		.uleb128 0x38
ARM GAS  C:\Users\Mathieu\AppData\Local\Temp\ccqdbTbw.s 			page 233


 9038 2f59 DD030000 		.4byte	.LASF500
 9039 2f5d 01       		.byte	0x1
 9040 2f5e 18       		.byte	0x18
 9041 2f5f 472F0000 		.4byte	0x2f47
 9042 2f63 05       		.uleb128 0x5
 9043 2f64 03       		.byte	0x3
 9044 2f65 00000000 		.4byte	imageBufferCache
 9045 2f69 3A       		.uleb128 0x3a
 9046 2f6a 680E0000 		.4byte	.LASF501
 9047 2f6e 680E0000 		.4byte	.LASF501
 9048 2f72 1E       		.byte	0x1e
 9049 2f73 34       		.byte	0x34
 9050 2f74 3A       		.uleb128 0x3a
 9051 2f75 541C0000 		.4byte	.LASF502
 9052 2f79 541C0000 		.4byte	.LASF502
 9053 2f7d 12       		.byte	0x12
 9054 2f7e 7E       		.byte	0x7e
 9055 2f7f 3B       		.uleb128 0x3b
 9056 2f80 FD1F0000 		.4byte	.LASF522
 9057 2f84 FD1F0000 		.4byte	.LASF522
 9058 2f88 3C       		.uleb128 0x3c
 9059 2f89 65130000 		.4byte	.LASF503
 9060 2f8d 65130000 		.4byte	.LASF503
 9061 2f91 1B       		.byte	0x1b
 9062 2f92 C101     		.2byte	0x1c1
 9063 2f94 3C       		.uleb128 0x3c
 9064 2f95 C30A0000 		.4byte	.LASF504
 9065 2f99 C30A0000 		.4byte	.LASF504
 9066 2f9d 1B       		.byte	0x1b
 9067 2f9e C001     		.2byte	0x1c0
 9068 2fa0 3C       		.uleb128 0x3c
 9069 2fa1 48150000 		.4byte	.LASF505
 9070 2fa5 48150000 		.4byte	.LASF505
 9071 2fa9 1B       		.byte	0x1b
 9072 2faa F601     		.2byte	0x1f6
 9073 2fac 3C       		.uleb128 0x3c
 9074 2fad 600A0000 		.4byte	.LASF506
 9075 2fb1 600A0000 		.4byte	.LASF506
 9076 2fb5 1B       		.byte	0x1b
 9077 2fb6 0902     		.2byte	0x209
 9078 2fb8 3C       		.uleb128 0x3c
 9079 2fb9 53200000 		.4byte	.LASF507
 9080 2fbd 53200000 		.4byte	.LASF507
 9081 2fc1 1B       		.byte	0x1b
 9082 2fc2 2B03     		.2byte	0x32b
 9083 2fc4 3C       		.uleb128 0x3c
 9084 2fc5 A7210000 		.4byte	.LASF508
 9085 2fc9 A7210000 		.4byte	.LASF508
 9086 2fcd 1B       		.byte	0x1b
 9087 2fce C501     		.2byte	0x1c5
 9088 2fd0 3C       		.uleb128 0x3c
 9089 2fd1 C7050000 		.4byte	.LASF509
 9090 2fd5 C7050000 		.4byte	.LASF509
 9091 2fd9 1B       		.byte	0x1b
 9092 2fda 1202     		.2byte	0x212
 9093 2fdc 3C       		.uleb128 0x3c
 9094 2fdd B6040000 		.4byte	.LASF510
ARM GAS  C:\Users\Mathieu\AppData\Local\Temp\ccqdbTbw.s 			page 234


 9095 2fe1 B6040000 		.4byte	.LASF510
 9096 2fe5 1B       		.byte	0x1b
 9097 2fe6 0503     		.2byte	0x305
 9098 2fe8 3C       		.uleb128 0x3c
 9099 2fe9 951B0000 		.4byte	.LASF511
 9100 2fed 951B0000 		.4byte	.LASF511
 9101 2ff1 1B       		.byte	0x1b
 9102 2ff2 1A02     		.2byte	0x21a
 9103 2ff4 3A       		.uleb128 0x3a
 9104 2ff5 C10F0000 		.4byte	.LASF512
 9105 2ff9 C10F0000 		.4byte	.LASF512
 9106 2ffd 1F       		.byte	0x1f
 9107 2ffe E7       		.byte	0xe7
 9108 2fff 3A       		.uleb128 0x3a
 9109 3000 40130000 		.4byte	.LASF513
 9110 3004 40130000 		.4byte	.LASF513
 9111 3008 20       		.byte	0x20
 9112 3009 55       		.byte	0x55
 9113 300a 3A       		.uleb128 0x3a
 9114 300b E3010000 		.4byte	.LASF514
 9115 300f E3010000 		.4byte	.LASF514
 9116 3013 20       		.byte	0x20
 9117 3014 56       		.byte	0x56
 9118 3015 3A       		.uleb128 0x3a
 9119 3016 33030000 		.4byte	.LASF515
 9120 301a 33030000 		.4byte	.LASF515
 9121 301e 21       		.byte	0x21
 9122 301f 3E       		.byte	0x3e
 9123 3020 3C       		.uleb128 0x3c
 9124 3021 881F0000 		.4byte	.LASF516
 9125 3025 881F0000 		.4byte	.LASF516
 9126 3029 22       		.byte	0x22
 9127 302a 9904     		.2byte	0x499
 9128 302c 3C       		.uleb128 0x3c
 9129 302d 90120000 		.4byte	.LASF517
 9130 3031 90120000 		.4byte	.LASF517
 9131 3035 22       		.byte	0x22
 9132 3036 A504     		.2byte	0x4a5
 9133 3038 3C       		.uleb128 0x3c
 9134 3039 FE230000 		.4byte	.LASF518
 9135 303d FE230000 		.4byte	.LASF518
 9136 3041 0A       		.byte	0xa
 9137 3042 8903     		.2byte	0x389
 9138 3044 00       		.byte	0
 9139              		.section	.debug_abbrev,"",%progbits
 9140              	.Ldebug_abbrev0:
 9141 0000 01       		.uleb128 0x1
 9142 0001 11       		.uleb128 0x11
 9143 0002 01       		.byte	0x1
 9144 0003 25       		.uleb128 0x25
 9145 0004 0E       		.uleb128 0xe
 9146 0005 13       		.uleb128 0x13
 9147 0006 0B       		.uleb128 0xb
 9148 0007 03       		.uleb128 0x3
 9149 0008 0E       		.uleb128 0xe
 9150 0009 1B       		.uleb128 0x1b
 9151 000a 0E       		.uleb128 0xe
ARM GAS  C:\Users\Mathieu\AppData\Local\Temp\ccqdbTbw.s 			page 235


 9152 000b 55       		.uleb128 0x55
 9153 000c 17       		.uleb128 0x17
 9154 000d 11       		.uleb128 0x11
 9155 000e 01       		.uleb128 0x1
 9156 000f 10       		.uleb128 0x10
 9157 0010 17       		.uleb128 0x17
 9158 0011 00       		.byte	0
 9159 0012 00       		.byte	0
 9160 0013 02       		.uleb128 0x2
 9161 0014 04       		.uleb128 0x4
 9162 0015 01       		.byte	0x1
 9163 0016 0B       		.uleb128 0xb
 9164 0017 0B       		.uleb128 0xb
 9165 0018 49       		.uleb128 0x49
 9166 0019 13       		.uleb128 0x13
 9167 001a 3A       		.uleb128 0x3a
 9168 001b 0B       		.uleb128 0xb
 9169 001c 3B       		.uleb128 0x3b
 9170 001d 0B       		.uleb128 0xb
 9171 001e 01       		.uleb128 0x1
 9172 001f 13       		.uleb128 0x13
 9173 0020 00       		.byte	0
 9174 0021 00       		.byte	0
 9175 0022 03       		.uleb128 0x3
 9176 0023 28       		.uleb128 0x28
 9177 0024 00       		.byte	0
 9178 0025 03       		.uleb128 0x3
 9179 0026 0E       		.uleb128 0xe
 9180 0027 1C       		.uleb128 0x1c
 9181 0028 0D       		.uleb128 0xd
 9182 0029 00       		.byte	0
 9183 002a 00       		.byte	0
 9184 002b 04       		.uleb128 0x4
 9185 002c 28       		.uleb128 0x28
 9186 002d 00       		.byte	0
 9187 002e 03       		.uleb128 0x3
 9188 002f 0E       		.uleb128 0xe
 9189 0030 1C       		.uleb128 0x1c
 9190 0031 0B       		.uleb128 0xb
 9191 0032 00       		.byte	0
 9192 0033 00       		.byte	0
 9193 0034 05       		.uleb128 0x5
 9194 0035 24       		.uleb128 0x24
 9195 0036 00       		.byte	0
 9196 0037 0B       		.uleb128 0xb
 9197 0038 0B       		.uleb128 0xb
 9198 0039 3E       		.uleb128 0x3e
 9199 003a 0B       		.uleb128 0xb
 9200 003b 03       		.uleb128 0x3
 9201 003c 0E       		.uleb128 0xe
 9202 003d 00       		.byte	0
 9203 003e 00       		.byte	0
 9204 003f 06       		.uleb128 0x6
 9205 0040 16       		.uleb128 0x16
 9206 0041 00       		.byte	0
 9207 0042 03       		.uleb128 0x3
 9208 0043 0E       		.uleb128 0xe
ARM GAS  C:\Users\Mathieu\AppData\Local\Temp\ccqdbTbw.s 			page 236


 9209 0044 3A       		.uleb128 0x3a
 9210 0045 0B       		.uleb128 0xb
 9211 0046 3B       		.uleb128 0x3b
 9212 0047 0B       		.uleb128 0xb
 9213 0048 49       		.uleb128 0x49
 9214 0049 13       		.uleb128 0x13
 9215 004a 00       		.byte	0
 9216 004b 00       		.byte	0
 9217 004c 07       		.uleb128 0x7
 9218 004d 24       		.uleb128 0x24
 9219 004e 00       		.byte	0
 9220 004f 0B       		.uleb128 0xb
 9221 0050 0B       		.uleb128 0xb
 9222 0051 3E       		.uleb128 0x3e
 9223 0052 0B       		.uleb128 0xb
 9224 0053 03       		.uleb128 0x3
 9225 0054 08       		.uleb128 0x8
 9226 0055 00       		.byte	0
 9227 0056 00       		.byte	0
 9228 0057 08       		.uleb128 0x8
 9229 0058 13       		.uleb128 0x13
 9230 0059 01       		.byte	0x1
 9231 005a 0B       		.uleb128 0xb
 9232 005b 05       		.uleb128 0x5
 9233 005c 3A       		.uleb128 0x3a
 9234 005d 0B       		.uleb128 0xb
 9235 005e 3B       		.uleb128 0x3b
 9236 005f 05       		.uleb128 0x5
 9237 0060 01       		.uleb128 0x1
 9238 0061 13       		.uleb128 0x13
 9239 0062 00       		.byte	0
 9240 0063 00       		.byte	0
 9241 0064 09       		.uleb128 0x9
 9242 0065 0D       		.uleb128 0xd
 9243 0066 00       		.byte	0
 9244 0067 03       		.uleb128 0x3
 9245 0068 0E       		.uleb128 0xe
 9246 0069 3A       		.uleb128 0x3a
 9247 006a 0B       		.uleb128 0xb
 9248 006b 3B       		.uleb128 0x3b
 9249 006c 05       		.uleb128 0x5
 9250 006d 49       		.uleb128 0x49
 9251 006e 13       		.uleb128 0x13
 9252 006f 38       		.uleb128 0x38
 9253 0070 0B       		.uleb128 0xb
 9254 0071 00       		.byte	0
 9255 0072 00       		.byte	0
 9256 0073 0A       		.uleb128 0xa
 9257 0074 0D       		.uleb128 0xd
 9258 0075 00       		.byte	0
 9259 0076 03       		.uleb128 0x3
 9260 0077 0E       		.uleb128 0xe
 9261 0078 3A       		.uleb128 0x3a
 9262 0079 0B       		.uleb128 0xb
 9263 007a 3B       		.uleb128 0x3b
 9264 007b 05       		.uleb128 0x5
 9265 007c 49       		.uleb128 0x49
ARM GAS  C:\Users\Mathieu\AppData\Local\Temp\ccqdbTbw.s 			page 237


 9266 007d 13       		.uleb128 0x13
 9267 007e 38       		.uleb128 0x38
 9268 007f 05       		.uleb128 0x5
 9269 0080 00       		.byte	0
 9270 0081 00       		.byte	0
 9271 0082 0B       		.uleb128 0xb
 9272 0083 0D       		.uleb128 0xd
 9273 0084 00       		.byte	0
 9274 0085 03       		.uleb128 0x3
 9275 0086 08       		.uleb128 0x8
 9276 0087 3A       		.uleb128 0x3a
 9277 0088 0B       		.uleb128 0xb
 9278 0089 3B       		.uleb128 0x3b
 9279 008a 05       		.uleb128 0x5
 9280 008b 49       		.uleb128 0x49
 9281 008c 13       		.uleb128 0x13
 9282 008d 38       		.uleb128 0x38
 9283 008e 05       		.uleb128 0x5
 9284 008f 00       		.byte	0
 9285 0090 00       		.byte	0
 9286 0091 0C       		.uleb128 0xc
 9287 0092 01       		.uleb128 0x1
 9288 0093 01       		.byte	0x1
 9289 0094 49       		.uleb128 0x49
 9290 0095 13       		.uleb128 0x13
 9291 0096 01       		.uleb128 0x1
 9292 0097 13       		.uleb128 0x13
 9293 0098 00       		.byte	0
 9294 0099 00       		.byte	0
 9295 009a 0D       		.uleb128 0xd
 9296 009b 21       		.uleb128 0x21
 9297 009c 00       		.byte	0
 9298 009d 49       		.uleb128 0x49
 9299 009e 13       		.uleb128 0x13
 9300 009f 2F       		.uleb128 0x2f
 9301 00a0 0B       		.uleb128 0xb
 9302 00a1 00       		.byte	0
 9303 00a2 00       		.byte	0
 9304 00a3 0E       		.uleb128 0xe
 9305 00a4 35       		.uleb128 0x35
 9306 00a5 00       		.byte	0
 9307 00a6 49       		.uleb128 0x49
 9308 00a7 13       		.uleb128 0x13
 9309 00a8 00       		.byte	0
 9310 00a9 00       		.byte	0
 9311 00aa 0F       		.uleb128 0xf
 9312 00ab 21       		.uleb128 0x21
 9313 00ac 00       		.byte	0
 9314 00ad 49       		.uleb128 0x49
 9315 00ae 13       		.uleb128 0x13
 9316 00af 2F       		.uleb128 0x2f
 9317 00b0 05       		.uleb128 0x5
 9318 00b1 00       		.byte	0
 9319 00b2 00       		.byte	0
 9320 00b3 10       		.uleb128 0x10
 9321 00b4 16       		.uleb128 0x16
 9322 00b5 00       		.byte	0
ARM GAS  C:\Users\Mathieu\AppData\Local\Temp\ccqdbTbw.s 			page 238


 9323 00b6 03       		.uleb128 0x3
 9324 00b7 0E       		.uleb128 0xe
 9325 00b8 3A       		.uleb128 0x3a
 9326 00b9 0B       		.uleb128 0xb
 9327 00ba 3B       		.uleb128 0x3b
 9328 00bb 05       		.uleb128 0x5
 9329 00bc 49       		.uleb128 0x49
 9330 00bd 13       		.uleb128 0x13
 9331 00be 00       		.byte	0
 9332 00bf 00       		.byte	0
 9333 00c0 11       		.uleb128 0x11
 9334 00c1 26       		.uleb128 0x26
 9335 00c2 00       		.byte	0
 9336 00c3 49       		.uleb128 0x49
 9337 00c4 13       		.uleb128 0x13
 9338 00c5 00       		.byte	0
 9339 00c6 00       		.byte	0
 9340 00c7 12       		.uleb128 0x12
 9341 00c8 13       		.uleb128 0x13
 9342 00c9 01       		.byte	0x1
 9343 00ca 0B       		.uleb128 0xb
 9344 00cb 0B       		.uleb128 0xb
 9345 00cc 3A       		.uleb128 0x3a
 9346 00cd 0B       		.uleb128 0xb
 9347 00ce 3B       		.uleb128 0x3b
 9348 00cf 0B       		.uleb128 0xb
 9349 00d0 01       		.uleb128 0x1
 9350 00d1 13       		.uleb128 0x13
 9351 00d2 00       		.byte	0
 9352 00d3 00       		.byte	0
 9353 00d4 13       		.uleb128 0x13
 9354 00d5 0D       		.uleb128 0xd
 9355 00d6 00       		.byte	0
 9356 00d7 03       		.uleb128 0x3
 9357 00d8 08       		.uleb128 0x8
 9358 00d9 3A       		.uleb128 0x3a
 9359 00da 0B       		.uleb128 0xb
 9360 00db 3B       		.uleb128 0x3b
 9361 00dc 0B       		.uleb128 0xb
 9362 00dd 49       		.uleb128 0x49
 9363 00de 13       		.uleb128 0x13
 9364 00df 38       		.uleb128 0x38
 9365 00e0 0B       		.uleb128 0xb
 9366 00e1 00       		.byte	0
 9367 00e2 00       		.byte	0
 9368 00e3 14       		.uleb128 0x14
 9369 00e4 0D       		.uleb128 0xd
 9370 00e5 00       		.byte	0
 9371 00e6 03       		.uleb128 0x3
 9372 00e7 0E       		.uleb128 0xe
 9373 00e8 3A       		.uleb128 0x3a
 9374 00e9 0B       		.uleb128 0xb
 9375 00ea 3B       		.uleb128 0x3b
 9376 00eb 0B       		.uleb128 0xb
 9377 00ec 49       		.uleb128 0x49
 9378 00ed 13       		.uleb128 0x13
 9379 00ee 38       		.uleb128 0x38
ARM GAS  C:\Users\Mathieu\AppData\Local\Temp\ccqdbTbw.s 			page 239


 9380 00ef 0B       		.uleb128 0xb
 9381 00f0 00       		.byte	0
 9382 00f1 00       		.byte	0
 9383 00f2 15       		.uleb128 0x15
 9384 00f3 13       		.uleb128 0x13
 9385 00f4 01       		.byte	0x1
 9386 00f5 0B       		.uleb128 0xb
 9387 00f6 05       		.uleb128 0x5
 9388 00f7 3A       		.uleb128 0x3a
 9389 00f8 0B       		.uleb128 0xb
 9390 00f9 3B       		.uleb128 0x3b
 9391 00fa 0B       		.uleb128 0xb
 9392 00fb 01       		.uleb128 0x1
 9393 00fc 13       		.uleb128 0x13
 9394 00fd 00       		.byte	0
 9395 00fe 00       		.byte	0
 9396 00ff 16       		.uleb128 0x16
 9397 0100 0D       		.uleb128 0xd
 9398 0101 00       		.byte	0
 9399 0102 03       		.uleb128 0x3
 9400 0103 0E       		.uleb128 0xe
 9401 0104 3A       		.uleb128 0x3a
 9402 0105 0B       		.uleb128 0xb
 9403 0106 3B       		.uleb128 0x3b
 9404 0107 0B       		.uleb128 0xb
 9405 0108 49       		.uleb128 0x49
 9406 0109 13       		.uleb128 0x13
 9407 010a 38       		.uleb128 0x38
 9408 010b 05       		.uleb128 0x5
 9409 010c 00       		.byte	0
 9410 010d 00       		.byte	0
 9411 010e 17       		.uleb128 0x17
 9412 010f 0F       		.uleb128 0xf
 9413 0110 00       		.byte	0
 9414 0111 0B       		.uleb128 0xb
 9415 0112 0B       		.uleb128 0xb
 9416 0113 49       		.uleb128 0x49
 9417 0114 13       		.uleb128 0x13
 9418 0115 00       		.byte	0
 9419 0116 00       		.byte	0
 9420 0117 18       		.uleb128 0x18
 9421 0118 13       		.uleb128 0x13
 9422 0119 01       		.byte	0x1
 9423 011a 0B       		.uleb128 0xb
 9424 011b 0B       		.uleb128 0xb
 9425 011c 3A       		.uleb128 0x3a
 9426 011d 0B       		.uleb128 0xb
 9427 011e 3B       		.uleb128 0x3b
 9428 011f 05       		.uleb128 0x5
 9429 0120 01       		.uleb128 0x1
 9430 0121 13       		.uleb128 0x13
 9431 0122 00       		.byte	0
 9432 0123 00       		.byte	0
 9433 0124 19       		.uleb128 0x19
 9434 0125 0F       		.uleb128 0xf
 9435 0126 00       		.byte	0
 9436 0127 0B       		.uleb128 0xb
ARM GAS  C:\Users\Mathieu\AppData\Local\Temp\ccqdbTbw.s 			page 240


 9437 0128 0B       		.uleb128 0xb
 9438 0129 00       		.byte	0
 9439 012a 00       		.byte	0
 9440 012b 1A       		.uleb128 0x1a
 9441 012c 04       		.uleb128 0x4
 9442 012d 01       		.byte	0x1
 9443 012e 0B       		.uleb128 0xb
 9444 012f 0B       		.uleb128 0xb
 9445 0130 49       		.uleb128 0x49
 9446 0131 13       		.uleb128 0x13
 9447 0132 3A       		.uleb128 0x3a
 9448 0133 0B       		.uleb128 0xb
 9449 0134 3B       		.uleb128 0x3b
 9450 0135 05       		.uleb128 0x5
 9451 0136 01       		.uleb128 0x1
 9452 0137 13       		.uleb128 0x13
 9453 0138 00       		.byte	0
 9454 0139 00       		.byte	0
 9455 013a 1B       		.uleb128 0x1b
 9456 013b 15       		.uleb128 0x15
 9457 013c 01       		.byte	0x1
 9458 013d 27       		.uleb128 0x27
 9459 013e 19       		.uleb128 0x19
 9460 013f 01       		.uleb128 0x1
 9461 0140 13       		.uleb128 0x13
 9462 0141 00       		.byte	0
 9463 0142 00       		.byte	0
 9464 0143 1C       		.uleb128 0x1c
 9465 0144 05       		.uleb128 0x5
 9466 0145 00       		.byte	0
 9467 0146 49       		.uleb128 0x49
 9468 0147 13       		.uleb128 0x13
 9469 0148 00       		.byte	0
 9470 0149 00       		.byte	0
 9471 014a 1D       		.uleb128 0x1d
 9472 014b 15       		.uleb128 0x15
 9473 014c 01       		.byte	0x1
 9474 014d 27       		.uleb128 0x27
 9475 014e 19       		.uleb128 0x19
 9476 014f 49       		.uleb128 0x49
 9477 0150 13       		.uleb128 0x13
 9478 0151 01       		.uleb128 0x1
 9479 0152 13       		.uleb128 0x13
 9480 0153 00       		.byte	0
 9481 0154 00       		.byte	0
 9482 0155 1E       		.uleb128 0x1e
 9483 0156 13       		.uleb128 0x13
 9484 0157 01       		.byte	0x1
 9485 0158 03       		.uleb128 0x3
 9486 0159 0E       		.uleb128 0xe
 9487 015a 0B       		.uleb128 0xb
 9488 015b 0B       		.uleb128 0xb
 9489 015c 3A       		.uleb128 0x3a
 9490 015d 0B       		.uleb128 0xb
 9491 015e 3B       		.uleb128 0x3b
 9492 015f 05       		.uleb128 0x5
 9493 0160 01       		.uleb128 0x1
ARM GAS  C:\Users\Mathieu\AppData\Local\Temp\ccqdbTbw.s 			page 241


 9494 0161 13       		.uleb128 0x13
 9495 0162 00       		.byte	0
 9496 0163 00       		.byte	0
 9497 0164 1F       		.uleb128 0x1f
 9498 0165 13       		.uleb128 0x13
 9499 0166 01       		.byte	0x1
 9500 0167 03       		.uleb128 0x3
 9501 0168 0E       		.uleb128 0xe
 9502 0169 0B       		.uleb128 0xb
 9503 016a 0B       		.uleb128 0xb
 9504 016b 3A       		.uleb128 0x3a
 9505 016c 0B       		.uleb128 0xb
 9506 016d 3B       		.uleb128 0x3b
 9507 016e 0B       		.uleb128 0xb
 9508 016f 01       		.uleb128 0x1
 9509 0170 13       		.uleb128 0x13
 9510 0171 00       		.byte	0
 9511 0172 00       		.byte	0
 9512 0173 20       		.uleb128 0x20
 9513 0174 26       		.uleb128 0x26
 9514 0175 00       		.byte	0
 9515 0176 00       		.byte	0
 9516 0177 00       		.byte	0
 9517 0178 21       		.uleb128 0x21
 9518 0179 0D       		.uleb128 0xd
 9519 017a 00       		.byte	0
 9520 017b 03       		.uleb128 0x3
 9521 017c 08       		.uleb128 0x8
 9522 017d 3A       		.uleb128 0x3a
 9523 017e 0B       		.uleb128 0xb
 9524 017f 3B       		.uleb128 0x3b
 9525 0180 05       		.uleb128 0x5
 9526 0181 49       		.uleb128 0x49
 9527 0182 13       		.uleb128 0x13
 9528 0183 38       		.uleb128 0x38
 9529 0184 0B       		.uleb128 0xb
 9530 0185 00       		.byte	0
 9531 0186 00       		.byte	0
 9532 0187 22       		.uleb128 0x22
 9533 0188 17       		.uleb128 0x17
 9534 0189 01       		.byte	0x1
 9535 018a 0B       		.uleb128 0xb
 9536 018b 0B       		.uleb128 0xb
 9537 018c 3A       		.uleb128 0x3a
 9538 018d 0B       		.uleb128 0xb
 9539 018e 3B       		.uleb128 0x3b
 9540 018f 05       		.uleb128 0x5
 9541 0190 01       		.uleb128 0x1
 9542 0191 13       		.uleb128 0x13
 9543 0192 00       		.byte	0
 9544 0193 00       		.byte	0
 9545 0194 23       		.uleb128 0x23
 9546 0195 0D       		.uleb128 0xd
 9547 0196 00       		.byte	0
 9548 0197 03       		.uleb128 0x3
 9549 0198 0E       		.uleb128 0xe
 9550 0199 3A       		.uleb128 0x3a
ARM GAS  C:\Users\Mathieu\AppData\Local\Temp\ccqdbTbw.s 			page 242


 9551 019a 0B       		.uleb128 0xb
 9552 019b 3B       		.uleb128 0x3b
 9553 019c 05       		.uleb128 0x5
 9554 019d 49       		.uleb128 0x49
 9555 019e 13       		.uleb128 0x13
 9556 019f 00       		.byte	0
 9557 01a0 00       		.byte	0
 9558 01a1 24       		.uleb128 0x24
 9559 01a2 2E       		.uleb128 0x2e
 9560 01a3 01       		.byte	0x1
 9561 01a4 03       		.uleb128 0x3
 9562 01a5 0E       		.uleb128 0xe
 9563 01a6 3A       		.uleb128 0x3a
 9564 01a7 0B       		.uleb128 0xb
 9565 01a8 3B       		.uleb128 0x3b
 9566 01a9 05       		.uleb128 0x5
 9567 01aa 27       		.uleb128 0x27
 9568 01ab 19       		.uleb128 0x19
 9569 01ac 20       		.uleb128 0x20
 9570 01ad 0B       		.uleb128 0xb
 9571 01ae 01       		.uleb128 0x1
 9572 01af 13       		.uleb128 0x13
 9573 01b0 00       		.byte	0
 9574 01b1 00       		.byte	0
 9575 01b2 25       		.uleb128 0x25
 9576 01b3 05       		.uleb128 0x5
 9577 01b4 00       		.byte	0
 9578 01b5 03       		.uleb128 0x3
 9579 01b6 0E       		.uleb128 0xe
 9580 01b7 3A       		.uleb128 0x3a
 9581 01b8 0B       		.uleb128 0xb
 9582 01b9 3B       		.uleb128 0x3b
 9583 01ba 05       		.uleb128 0x5
 9584 01bb 49       		.uleb128 0x49
 9585 01bc 13       		.uleb128 0x13
 9586 01bd 00       		.byte	0
 9587 01be 00       		.byte	0
 9588 01bf 26       		.uleb128 0x26
 9589 01c0 2E       		.uleb128 0x2e
 9590 01c1 01       		.byte	0x1
 9591 01c2 3F       		.uleb128 0x3f
 9592 01c3 19       		.uleb128 0x19
 9593 01c4 03       		.uleb128 0x3
 9594 01c5 0E       		.uleb128 0xe
 9595 01c6 3A       		.uleb128 0x3a
 9596 01c7 0B       		.uleb128 0xb
 9597 01c8 3B       		.uleb128 0x3b
 9598 01c9 0B       		.uleb128 0xb
 9599 01ca 27       		.uleb128 0x27
 9600 01cb 19       		.uleb128 0x19
 9601 01cc 11       		.uleb128 0x11
 9602 01cd 01       		.uleb128 0x1
 9603 01ce 12       		.uleb128 0x12
 9604 01cf 06       		.uleb128 0x6
 9605 01d0 40       		.uleb128 0x40
 9606 01d1 18       		.uleb128 0x18
 9607 01d2 9742     		.uleb128 0x2117
ARM GAS  C:\Users\Mathieu\AppData\Local\Temp\ccqdbTbw.s 			page 243


 9608 01d4 19       		.uleb128 0x19
 9609 01d5 01       		.uleb128 0x1
 9610 01d6 13       		.uleb128 0x13
 9611 01d7 00       		.byte	0
 9612 01d8 00       		.byte	0
 9613 01d9 27       		.uleb128 0x27
 9614 01da 05       		.uleb128 0x5
 9615 01db 00       		.byte	0
 9616 01dc 03       		.uleb128 0x3
 9617 01dd 0E       		.uleb128 0xe
 9618 01de 3A       		.uleb128 0x3a
 9619 01df 0B       		.uleb128 0xb
 9620 01e0 3B       		.uleb128 0x3b
 9621 01e1 0B       		.uleb128 0xb
 9622 01e2 49       		.uleb128 0x49
 9623 01e3 13       		.uleb128 0x13
 9624 01e4 02       		.uleb128 0x2
 9625 01e5 17       		.uleb128 0x17
 9626 01e6 00       		.byte	0
 9627 01e7 00       		.byte	0
 9628 01e8 28       		.uleb128 0x28
 9629 01e9 34       		.uleb128 0x34
 9630 01ea 00       		.byte	0
 9631 01eb 03       		.uleb128 0x3
 9632 01ec 0E       		.uleb128 0xe
 9633 01ed 3A       		.uleb128 0x3a
 9634 01ee 0B       		.uleb128 0xb
 9635 01ef 3B       		.uleb128 0x3b
 9636 01f0 0B       		.uleb128 0xb
 9637 01f1 49       		.uleb128 0x49
 9638 01f2 13       		.uleb128 0x13
 9639 01f3 02       		.uleb128 0x2
 9640 01f4 17       		.uleb128 0x17
 9641 01f5 00       		.byte	0
 9642 01f6 00       		.byte	0
 9643 01f7 29       		.uleb128 0x29
 9644 01f8 898201   		.uleb128 0x4109
 9645 01fb 00       		.byte	0
 9646 01fc 11       		.uleb128 0x11
 9647 01fd 01       		.uleb128 0x1
 9648 01fe 31       		.uleb128 0x31
 9649 01ff 13       		.uleb128 0x13
 9650 0200 00       		.byte	0
 9651 0201 00       		.byte	0
 9652 0202 2A       		.uleb128 0x2a
 9653 0203 898201   		.uleb128 0x4109
 9654 0206 01       		.byte	0x1
 9655 0207 11       		.uleb128 0x11
 9656 0208 01       		.uleb128 0x1
 9657 0209 31       		.uleb128 0x31
 9658 020a 13       		.uleb128 0x13
 9659 020b 01       		.uleb128 0x1
 9660 020c 13       		.uleb128 0x13
 9661 020d 00       		.byte	0
 9662 020e 00       		.byte	0
 9663 020f 2B       		.uleb128 0x2b
 9664 0210 8A8201   		.uleb128 0x410a
ARM GAS  C:\Users\Mathieu\AppData\Local\Temp\ccqdbTbw.s 			page 244


 9665 0213 00       		.byte	0
 9666 0214 02       		.uleb128 0x2
 9667 0215 18       		.uleb128 0x18
 9668 0216 9142     		.uleb128 0x2111
 9669 0218 18       		.uleb128 0x18
 9670 0219 00       		.byte	0
 9671 021a 00       		.byte	0
 9672 021b 2C       		.uleb128 0x2c
 9673 021c 898201   		.uleb128 0x4109
 9674 021f 01       		.byte	0x1
 9675 0220 11       		.uleb128 0x11
 9676 0221 01       		.uleb128 0x1
 9677 0222 31       		.uleb128 0x31
 9678 0223 13       		.uleb128 0x13
 9679 0224 00       		.byte	0
 9680 0225 00       		.byte	0
 9681 0226 2D       		.uleb128 0x2d
 9682 0227 34       		.uleb128 0x34
 9683 0228 00       		.byte	0
 9684 0229 03       		.uleb128 0x3
 9685 022a 08       		.uleb128 0x8
 9686 022b 3A       		.uleb128 0x3a
 9687 022c 0B       		.uleb128 0xb
 9688 022d 3B       		.uleb128 0x3b
 9689 022e 0B       		.uleb128 0xb
 9690 022f 49       		.uleb128 0x49
 9691 0230 13       		.uleb128 0x13
 9692 0231 02       		.uleb128 0x2
 9693 0232 17       		.uleb128 0x17
 9694 0233 00       		.byte	0
 9695 0234 00       		.byte	0
 9696 0235 2E       		.uleb128 0x2e
 9697 0236 0B       		.uleb128 0xb
 9698 0237 01       		.byte	0x1
 9699 0238 55       		.uleb128 0x55
 9700 0239 17       		.uleb128 0x17
 9701 023a 01       		.uleb128 0x1
 9702 023b 13       		.uleb128 0x13
 9703 023c 00       		.byte	0
 9704 023d 00       		.byte	0
 9705 023e 2F       		.uleb128 0x2f
 9706 023f 0B       		.uleb128 0xb
 9707 0240 01       		.byte	0x1
 9708 0241 11       		.uleb128 0x11
 9709 0242 01       		.uleb128 0x1
 9710 0243 12       		.uleb128 0x12
 9711 0244 06       		.uleb128 0x6
 9712 0245 00       		.byte	0
 9713 0246 00       		.byte	0
 9714 0247 30       		.uleb128 0x30
 9715 0248 34       		.uleb128 0x34
 9716 0249 00       		.byte	0
 9717 024a 03       		.uleb128 0x3
 9718 024b 0E       		.uleb128 0xe
 9719 024c 3A       		.uleb128 0x3a
 9720 024d 0B       		.uleb128 0xb
 9721 024e 3B       		.uleb128 0x3b
ARM GAS  C:\Users\Mathieu\AppData\Local\Temp\ccqdbTbw.s 			page 245


 9722 024f 0B       		.uleb128 0xb
 9723 0250 49       		.uleb128 0x49
 9724 0251 13       		.uleb128 0x13
 9725 0252 02       		.uleb128 0x2
 9726 0253 18       		.uleb128 0x18
 9727 0254 00       		.byte	0
 9728 0255 00       		.byte	0
 9729 0256 31       		.uleb128 0x31
 9730 0257 2E       		.uleb128 0x2e
 9731 0258 01       		.byte	0x1
 9732 0259 3F       		.uleb128 0x3f
 9733 025a 19       		.uleb128 0x19
 9734 025b 03       		.uleb128 0x3
 9735 025c 0E       		.uleb128 0xe
 9736 025d 3A       		.uleb128 0x3a
 9737 025e 0B       		.uleb128 0xb
 9738 025f 3B       		.uleb128 0x3b
 9739 0260 05       		.uleb128 0x5
 9740 0261 27       		.uleb128 0x27
 9741 0262 19       		.uleb128 0x19
 9742 0263 11       		.uleb128 0x11
 9743 0264 01       		.uleb128 0x1
 9744 0265 12       		.uleb128 0x12
 9745 0266 06       		.uleb128 0x6
 9746 0267 40       		.uleb128 0x40
 9747 0268 18       		.uleb128 0x18
 9748 0269 9742     		.uleb128 0x2117
 9749 026b 19       		.uleb128 0x19
 9750 026c 01       		.uleb128 0x1
 9751 026d 13       		.uleb128 0x13
 9752 026e 00       		.byte	0
 9753 026f 00       		.byte	0
 9754 0270 32       		.uleb128 0x32
 9755 0271 34       		.uleb128 0x34
 9756 0272 00       		.byte	0
 9757 0273 03       		.uleb128 0x3
 9758 0274 0E       		.uleb128 0xe
 9759 0275 3A       		.uleb128 0x3a
 9760 0276 0B       		.uleb128 0xb
 9761 0277 3B       		.uleb128 0x3b
 9762 0278 05       		.uleb128 0x5
 9763 0279 49       		.uleb128 0x49
 9764 027a 13       		.uleb128 0x13
 9765 027b 02       		.uleb128 0x2
 9766 027c 17       		.uleb128 0x17
 9767 027d 00       		.byte	0
 9768 027e 00       		.byte	0
 9769 027f 33       		.uleb128 0x33
 9770 0280 34       		.uleb128 0x34
 9771 0281 00       		.byte	0
 9772 0282 03       		.uleb128 0x3
 9773 0283 0E       		.uleb128 0xe
 9774 0284 3A       		.uleb128 0x3a
 9775 0285 0B       		.uleb128 0xb
 9776 0286 3B       		.uleb128 0x3b
 9777 0287 05       		.uleb128 0x5
 9778 0288 49       		.uleb128 0x49
ARM GAS  C:\Users\Mathieu\AppData\Local\Temp\ccqdbTbw.s 			page 246


 9779 0289 13       		.uleb128 0x13
 9780 028a 02       		.uleb128 0x2
 9781 028b 18       		.uleb128 0x18
 9782 028c 00       		.byte	0
 9783 028d 00       		.byte	0
 9784 028e 34       		.uleb128 0x34
 9785 028f 1D       		.uleb128 0x1d
 9786 0290 01       		.byte	0x1
 9787 0291 31       		.uleb128 0x31
 9788 0292 13       		.uleb128 0x13
 9789 0293 11       		.uleb128 0x11
 9790 0294 01       		.uleb128 0x1
 9791 0295 12       		.uleb128 0x12
 9792 0296 06       		.uleb128 0x6
 9793 0297 58       		.uleb128 0x58
 9794 0298 0B       		.uleb128 0xb
 9795 0299 59       		.uleb128 0x59
 9796 029a 05       		.uleb128 0x5
 9797 029b 01       		.uleb128 0x1
 9798 029c 13       		.uleb128 0x13
 9799 029d 00       		.byte	0
 9800 029e 00       		.byte	0
 9801 029f 35       		.uleb128 0x35
 9802 02a0 05       		.uleb128 0x5
 9803 02a1 00       		.byte	0
 9804 02a2 31       		.uleb128 0x31
 9805 02a3 13       		.uleb128 0x13
 9806 02a4 02       		.uleb128 0x2
 9807 02a5 17       		.uleb128 0x17
 9808 02a6 00       		.byte	0
 9809 02a7 00       		.byte	0
 9810 02a8 36       		.uleb128 0x36
 9811 02a9 34       		.uleb128 0x34
 9812 02aa 00       		.byte	0
 9813 02ab 03       		.uleb128 0x3
 9814 02ac 0E       		.uleb128 0xe
 9815 02ad 3A       		.uleb128 0x3a
 9816 02ae 0B       		.uleb128 0xb
 9817 02af 3B       		.uleb128 0x3b
 9818 02b0 05       		.uleb128 0x5
 9819 02b1 49       		.uleb128 0x49
 9820 02b2 13       		.uleb128 0x13
 9821 02b3 3F       		.uleb128 0x3f
 9822 02b4 19       		.uleb128 0x19
 9823 02b5 3C       		.uleb128 0x3c
 9824 02b6 19       		.uleb128 0x19
 9825 02b7 00       		.byte	0
 9826 02b8 00       		.byte	0
 9827 02b9 37       		.uleb128 0x37
 9828 02ba 34       		.uleb128 0x34
 9829 02bb 00       		.byte	0
 9830 02bc 03       		.uleb128 0x3
 9831 02bd 0E       		.uleb128 0xe
 9832 02be 3A       		.uleb128 0x3a
 9833 02bf 0B       		.uleb128 0xb
 9834 02c0 3B       		.uleb128 0x3b
 9835 02c1 0B       		.uleb128 0xb
ARM GAS  C:\Users\Mathieu\AppData\Local\Temp\ccqdbTbw.s 			page 247


 9836 02c2 49       		.uleb128 0x49
 9837 02c3 13       		.uleb128 0x13
 9838 02c4 3F       		.uleb128 0x3f
 9839 02c5 19       		.uleb128 0x19
 9840 02c6 3C       		.uleb128 0x3c
 9841 02c7 19       		.uleb128 0x19
 9842 02c8 00       		.byte	0
 9843 02c9 00       		.byte	0
 9844 02ca 38       		.uleb128 0x38
 9845 02cb 34       		.uleb128 0x34
 9846 02cc 00       		.byte	0
 9847 02cd 03       		.uleb128 0x3
 9848 02ce 0E       		.uleb128 0xe
 9849 02cf 3A       		.uleb128 0x3a
 9850 02d0 0B       		.uleb128 0xb
 9851 02d1 3B       		.uleb128 0x3b
 9852 02d2 0B       		.uleb128 0xb
 9853 02d3 49       		.uleb128 0x49
 9854 02d4 13       		.uleb128 0x13
 9855 02d5 3F       		.uleb128 0x3f
 9856 02d6 19       		.uleb128 0x19
 9857 02d7 02       		.uleb128 0x2
 9858 02d8 18       		.uleb128 0x18
 9859 02d9 00       		.byte	0
 9860 02da 00       		.byte	0
 9861 02db 39       		.uleb128 0x39
 9862 02dc 34       		.uleb128 0x34
 9863 02dd 00       		.byte	0
 9864 02de 03       		.uleb128 0x3
 9865 02df 08       		.uleb128 0x8
 9866 02e0 3A       		.uleb128 0x3a
 9867 02e1 0B       		.uleb128 0xb
 9868 02e2 3B       		.uleb128 0x3b
 9869 02e3 0B       		.uleb128 0xb
 9870 02e4 49       		.uleb128 0x49
 9871 02e5 13       		.uleb128 0x13
 9872 02e6 3F       		.uleb128 0x3f
 9873 02e7 19       		.uleb128 0x19
 9874 02e8 02       		.uleb128 0x2
 9875 02e9 18       		.uleb128 0x18
 9876 02ea 00       		.byte	0
 9877 02eb 00       		.byte	0
 9878 02ec 3A       		.uleb128 0x3a
 9879 02ed 2E       		.uleb128 0x2e
 9880 02ee 00       		.byte	0
 9881 02ef 3F       		.uleb128 0x3f
 9882 02f0 19       		.uleb128 0x19
 9883 02f1 3C       		.uleb128 0x3c
 9884 02f2 19       		.uleb128 0x19
 9885 02f3 6E       		.uleb128 0x6e
 9886 02f4 0E       		.uleb128 0xe
 9887 02f5 03       		.uleb128 0x3
 9888 02f6 0E       		.uleb128 0xe
 9889 02f7 3A       		.uleb128 0x3a
 9890 02f8 0B       		.uleb128 0xb
 9891 02f9 3B       		.uleb128 0x3b
 9892 02fa 0B       		.uleb128 0xb
ARM GAS  C:\Users\Mathieu\AppData\Local\Temp\ccqdbTbw.s 			page 248


 9893 02fb 00       		.byte	0
 9894 02fc 00       		.byte	0
 9895 02fd 3B       		.uleb128 0x3b
 9896 02fe 2E       		.uleb128 0x2e
 9897 02ff 00       		.byte	0
 9898 0300 3F       		.uleb128 0x3f
 9899 0301 19       		.uleb128 0x19
 9900 0302 3C       		.uleb128 0x3c
 9901 0303 19       		.uleb128 0x19
 9902 0304 6E       		.uleb128 0x6e
 9903 0305 0E       		.uleb128 0xe
 9904 0306 03       		.uleb128 0x3
 9905 0307 0E       		.uleb128 0xe
 9906 0308 00       		.byte	0
 9907 0309 00       		.byte	0
 9908 030a 3C       		.uleb128 0x3c
 9909 030b 2E       		.uleb128 0x2e
 9910 030c 00       		.byte	0
 9911 030d 3F       		.uleb128 0x3f
 9912 030e 19       		.uleb128 0x19
 9913 030f 3C       		.uleb128 0x3c
 9914 0310 19       		.uleb128 0x19
 9915 0311 6E       		.uleb128 0x6e
 9916 0312 0E       		.uleb128 0xe
 9917 0313 03       		.uleb128 0x3
 9918 0314 0E       		.uleb128 0xe
 9919 0315 3A       		.uleb128 0x3a
 9920 0316 0B       		.uleb128 0xb
 9921 0317 3B       		.uleb128 0x3b
 9922 0318 05       		.uleb128 0x5
 9923 0319 00       		.byte	0
 9924 031a 00       		.byte	0
 9925 031b 00       		.byte	0
 9926              		.section	.debug_loc,"",%progbits
 9927              	.Ldebug_loc0:
 9928              	.LLST0:
 9929 0000 00000000 		.4byte	.LVL0
 9930 0004 09000000 		.4byte	.LVL1-1
 9931 0008 0100     		.2byte	0x1
 9932 000a 50       		.byte	0x50
 9933 000b 09000000 		.4byte	.LVL1-1
 9934 000f 2C000000 		.4byte	.LFE660
 9935 0013 0400     		.2byte	0x4
 9936 0015 F3       		.byte	0xf3
 9937 0016 01       		.uleb128 0x1
 9938 0017 50       		.byte	0x50
 9939 0018 9F       		.byte	0x9f
 9940 0019 00000000 		.4byte	0
 9941 001d 00000000 		.4byte	0
 9942              	.LLST1:
 9943 0021 00000000 		.4byte	.LVL0
 9944 0025 09000000 		.4byte	.LVL1-1
 9945 0029 0100     		.2byte	0x1
 9946 002b 51       		.byte	0x51
 9947 002c 09000000 		.4byte	.LVL1-1
 9948 0030 2C000000 		.4byte	.LFE660
 9949 0034 0400     		.2byte	0x4
ARM GAS  C:\Users\Mathieu\AppData\Local\Temp\ccqdbTbw.s 			page 249


 9950 0036 F3       		.byte	0xf3
 9951 0037 01       		.uleb128 0x1
 9952 0038 51       		.byte	0x51
 9953 0039 9F       		.byte	0x9f
 9954 003a 00000000 		.4byte	0
 9955 003e 00000000 		.4byte	0
 9956              	.LLST2:
 9957 0042 0C000000 		.4byte	.LVL2
 9958 0046 16000000 		.4byte	.LVL3
 9959 004a 0100     		.2byte	0x1
 9960 004c 50       		.byte	0x50
 9961 004d 16000000 		.4byte	.LVL3
 9962 0051 19000000 		.4byte	.LVL4-1
 9963 0055 0100     		.2byte	0x1
 9964 0057 51       		.byte	0x51
 9965 0058 19000000 		.4byte	.LVL4-1
 9966 005c 28000000 		.4byte	.LVL6
 9967 0060 0100     		.2byte	0x1
 9968 0062 55       		.byte	0x55
 9969 0063 00000000 		.4byte	0
 9970 0067 00000000 		.4byte	0
 9971              	.LLST3:
 9972 006b 00000000 		.4byte	.LVL11
 9973 006f 2C000000 		.4byte	.LVL17
 9974 0073 0100     		.2byte	0x1
 9975 0075 50       		.byte	0x50
 9976 0076 2C000000 		.4byte	.LVL17
 9977 007a 72000000 		.4byte	.LVL21
 9978 007e 0100     		.2byte	0x1
 9979 0080 57       		.byte	0x57
 9980 0081 72000000 		.4byte	.LVL21
 9981 0085 78000000 		.4byte	.LFE662
 9982 0089 0400     		.2byte	0x4
 9983 008b F3       		.byte	0xf3
 9984 008c 01       		.uleb128 0x1
 9985 008d 50       		.byte	0x50
 9986 008e 9F       		.byte	0x9f
 9987 008f 00000000 		.4byte	0
 9988 0093 00000000 		.4byte	0
 9989              	.LLST4:
 9990 0097 06000000 		.4byte	.LVL12
 9991 009b 0E000000 		.4byte	.LVL13
 9992 009f 0200     		.2byte	0x2
 9993 00a1 30       		.byte	0x30
 9994 00a2 9F       		.byte	0x9f
 9995 00a3 0E000000 		.4byte	.LVL13
 9996 00a7 72000000 		.4byte	.LVL21
 9997 00ab 0100     		.2byte	0x1
 9998 00ad 58       		.byte	0x58
 9999 00ae 00000000 		.4byte	0
 10000 00b2 00000000 		.4byte	0
 10001              	.LLST5:
 10002 00b6 06000000 		.4byte	.LVL12
 10003 00ba 0E000000 		.4byte	.LVL13
 10004 00be 0600     		.2byte	0x6
 10005 00c0 0C       		.byte	0xc
 10006 00c1 E0930400 		.4byte	0x493e0
ARM GAS  C:\Users\Mathieu\AppData\Local\Temp\ccqdbTbw.s 			page 250


 10007 00c5 9F       		.byte	0x9f
 10008 00c6 0E000000 		.4byte	.LVL13
 10009 00ca 72000000 		.4byte	.LVL21
 10010 00ce 0100     		.2byte	0x1
 10011 00d0 55       		.byte	0x55
 10012 00d1 00000000 		.4byte	0
 10013 00d5 00000000 		.4byte	0
 10014              	.LLST6:
 10015 00d9 2C000000 		.4byte	.LVL17
 10016 00dd 72000000 		.4byte	.LVL21
 10017 00e1 0100     		.2byte	0x1
 10018 00e3 56       		.byte	0x56
 10019 00e4 00000000 		.4byte	0
 10020 00e8 00000000 		.4byte	0
 10021              	.LLST7:
 10022 00ec 06000000 		.4byte	.LVL12
 10023 00f0 0E000000 		.4byte	.LVL13
 10024 00f4 0200     		.2byte	0x2
 10025 00f6 30       		.byte	0x30
 10026 00f7 9F       		.byte	0x9f
 10027 00f8 0E000000 		.4byte	.LVL13
 10028 00fc 2C000000 		.4byte	.LVL17
 10029 0100 0100     		.2byte	0x1
 10030 0102 53       		.byte	0x53
 10031 0103 00000000 		.4byte	0
 10032 0107 00000000 		.4byte	0
 10033              	.LLST8:
 10034 010b 2C000000 		.4byte	.LVL17
 10035 010f 72000000 		.4byte	.LVL21
 10036 0113 0100     		.2byte	0x1
 10037 0115 54       		.byte	0x54
 10038 0116 00000000 		.4byte	0
 10039 011a 00000000 		.4byte	0
 10040              	.LLST9:
 10041 011e 08000000 		.4byte	.LVL91
 10042 0122 B0000000 		.4byte	.LVL105
 10043 0126 0200     		.2byte	0x2
 10044 0128 30       		.byte	0x30
 10045 0129 9F       		.byte	0x9f
 10046 012a B0000000 		.4byte	.LVL105
 10047 012e E4000000 		.4byte	.LVL111
 10048 0132 0100     		.2byte	0x1
 10049 0134 54       		.byte	0x54
 10050 0135 E4000000 		.4byte	.LVL111
 10051 0139 A0010000 		.4byte	.LVL128
 10052 013d 0200     		.2byte	0x2
 10053 013f 30       		.byte	0x30
 10054 0140 9F       		.byte	0x9f
 10055 0141 A0010000 		.4byte	.LVL128
 10056 0145 B6010000 		.4byte	.LVL133
 10057 0149 0100     		.2byte	0x1
 10058 014b 56       		.byte	0x56
 10059 014c B6010000 		.4byte	.LVL133
 10060 0150 B8010000 		.4byte	.LVL134
 10061 0154 0100     		.2byte	0x1
 10062 0156 50       		.byte	0x50
 10063 0157 B8010000 		.4byte	.LVL134
ARM GAS  C:\Users\Mathieu\AppData\Local\Temp\ccqdbTbw.s 			page 251


 10064 015b 2E020000 		.4byte	.LVL141
 10065 015f 0100     		.2byte	0x1
 10066 0161 56       		.byte	0x56
 10067 0162 2E020000 		.4byte	.LVL141
 10068 0166 40030000 		.4byte	.LVL158
 10069 016a 0200     		.2byte	0x2
 10070 016c 30       		.byte	0x30
 10071 016d 9F       		.byte	0x9f
 10072 016e 40030000 		.4byte	.LVL158
 10073 0172 56030000 		.4byte	.LVL163
 10074 0176 0100     		.2byte	0x1
 10075 0178 56       		.byte	0x56
 10076 0179 56030000 		.4byte	.LVL163
 10077 017d 58030000 		.4byte	.LVL164
 10078 0181 0100     		.2byte	0x1
 10079 0183 50       		.byte	0x50
 10080 0184 58030000 		.4byte	.LVL164
 10081 0188 CE030000 		.4byte	.LVL171
 10082 018c 0100     		.2byte	0x1
 10083 018e 56       		.byte	0x56
 10084 018f CE030000 		.4byte	.LVL171
 10085 0193 84040000 		.4byte	.LVL188
 10086 0197 0200     		.2byte	0x2
 10087 0199 30       		.byte	0x30
 10088 019a 9F       		.byte	0x9f
 10089 019b 84040000 		.4byte	.LVL188
 10090 019f 9A040000 		.4byte	.LVL193
 10091 01a3 0100     		.2byte	0x1
 10092 01a5 56       		.byte	0x56
 10093 01a6 9A040000 		.4byte	.LVL193
 10094 01aa 9C040000 		.4byte	.LVL194
 10095 01ae 0100     		.2byte	0x1
 10096 01b0 50       		.byte	0x50
 10097 01b1 9C040000 		.4byte	.LVL194
 10098 01b5 FE040000 		.4byte	.LVL200
 10099 01b9 0100     		.2byte	0x1
 10100 01bb 56       		.byte	0x56
 10101 01bc FE040000 		.4byte	.LVL200
 10102 01c0 B0050000 		.4byte	.LVL216
 10103 01c4 0200     		.2byte	0x2
 10104 01c6 30       		.byte	0x30
 10105 01c7 9F       		.byte	0x9f
 10106 01c8 B0050000 		.4byte	.LVL216
 10107 01cc C6050000 		.4byte	.LVL221
 10108 01d0 0100     		.2byte	0x1
 10109 01d2 56       		.byte	0x56
 10110 01d3 C6050000 		.4byte	.LVL221
 10111 01d7 C8050000 		.4byte	.LVL222
 10112 01db 0100     		.2byte	0x1
 10113 01dd 50       		.byte	0x50
 10114 01de C8050000 		.4byte	.LVL222
 10115 01e2 84060000 		.4byte	.LVL229
 10116 01e6 0100     		.2byte	0x1
 10117 01e8 56       		.byte	0x56
 10118 01e9 84060000 		.4byte	.LVL229
 10119 01ed 36070000 		.4byte	.LVL245
 10120 01f1 0200     		.2byte	0x2
ARM GAS  C:\Users\Mathieu\AppData\Local\Temp\ccqdbTbw.s 			page 252


 10121 01f3 30       		.byte	0x30
 10122 01f4 9F       		.byte	0x9f
 10123 01f5 36070000 		.4byte	.LVL245
 10124 01f9 4C070000 		.4byte	.LVL250
 10125 01fd 0100     		.2byte	0x1
 10126 01ff 56       		.byte	0x56
 10127 0200 4C070000 		.4byte	.LVL250
 10128 0204 4E070000 		.4byte	.LVL251
 10129 0208 0100     		.2byte	0x1
 10130 020a 50       		.byte	0x50
 10131 020b 4E070000 		.4byte	.LVL251
 10132 020f BC070000 		.4byte	.LVL258
 10133 0213 0100     		.2byte	0x1
 10134 0215 56       		.byte	0x56
 10135 0216 00000000 		.4byte	0
 10136 021a 00000000 		.4byte	0
 10137              	.LLST10:
 10138 021e 08000000 		.4byte	.LVL91
 10139 0222 A0010000 		.4byte	.LVL128
 10140 0226 0200     		.2byte	0x2
 10141 0228 30       		.byte	0x30
 10142 0229 9F       		.byte	0x9f
 10143 022a A0010000 		.4byte	.LVL128
 10144 022e BE010000 		.4byte	.LVL136
 10145 0232 0100     		.2byte	0x1
 10146 0234 55       		.byte	0x55
 10147 0235 BE010000 		.4byte	.LVL136
 10148 0239 C0010000 		.4byte	.LVL137
 10149 023d 0100     		.2byte	0x1
 10150 023f 50       		.byte	0x50
 10151 0240 C0010000 		.4byte	.LVL137
 10152 0244 2E020000 		.4byte	.LVL141
 10153 0248 0100     		.2byte	0x1
 10154 024a 55       		.byte	0x55
 10155 024b 2E020000 		.4byte	.LVL141
 10156 024f 40030000 		.4byte	.LVL158
 10157 0253 0200     		.2byte	0x2
 10158 0255 30       		.byte	0x30
 10159 0256 9F       		.byte	0x9f
 10160 0257 40030000 		.4byte	.LVL158
 10161 025b 5E030000 		.4byte	.LVL166
 10162 025f 0100     		.2byte	0x1
 10163 0261 55       		.byte	0x55
 10164 0262 5E030000 		.4byte	.LVL166
 10165 0266 60030000 		.4byte	.LVL167
 10166 026a 0100     		.2byte	0x1
 10167 026c 50       		.byte	0x50
 10168 026d 60030000 		.4byte	.LVL167
 10169 0271 CE030000 		.4byte	.LVL171
 10170 0275 0100     		.2byte	0x1
 10171 0277 55       		.byte	0x55
 10172 0278 CE030000 		.4byte	.LVL171
 10173 027c 84040000 		.4byte	.LVL188
 10174 0280 0200     		.2byte	0x2
 10175 0282 30       		.byte	0x30
 10176 0283 9F       		.byte	0x9f
 10177 0284 84040000 		.4byte	.LVL188
ARM GAS  C:\Users\Mathieu\AppData\Local\Temp\ccqdbTbw.s 			page 253


 10178 0288 A2040000 		.4byte	.LVL196
 10179 028c 0100     		.2byte	0x1
 10180 028e 55       		.byte	0x55
 10181 028f A2040000 		.4byte	.LVL196
 10182 0293 A4040000 		.4byte	.LVL197
 10183 0297 0100     		.2byte	0x1
 10184 0299 50       		.byte	0x50
 10185 029a A4040000 		.4byte	.LVL197
 10186 029e FE040000 		.4byte	.LVL200
 10187 02a2 0100     		.2byte	0x1
 10188 02a4 55       		.byte	0x55
 10189 02a5 FE040000 		.4byte	.LVL200
 10190 02a9 B0050000 		.4byte	.LVL216
 10191 02ad 0200     		.2byte	0x2
 10192 02af 30       		.byte	0x30
 10193 02b0 9F       		.byte	0x9f
 10194 02b1 B0050000 		.4byte	.LVL216
 10195 02b5 CE050000 		.4byte	.LVL224
 10196 02b9 0100     		.2byte	0x1
 10197 02bb 55       		.byte	0x55
 10198 02bc CE050000 		.4byte	.LVL224
 10199 02c0 D0050000 		.4byte	.LVL225
 10200 02c4 0100     		.2byte	0x1
 10201 02c6 50       		.byte	0x50
 10202 02c7 D0050000 		.4byte	.LVL225
 10203 02cb 84060000 		.4byte	.LVL229
 10204 02cf 0100     		.2byte	0x1
 10205 02d1 55       		.byte	0x55
 10206 02d2 84060000 		.4byte	.LVL229
 10207 02d6 36070000 		.4byte	.LVL245
 10208 02da 0200     		.2byte	0x2
 10209 02dc 30       		.byte	0x30
 10210 02dd 9F       		.byte	0x9f
 10211 02de 36070000 		.4byte	.LVL245
 10212 02e2 54070000 		.4byte	.LVL253
 10213 02e6 0100     		.2byte	0x1
 10214 02e8 55       		.byte	0x55
 10215 02e9 54070000 		.4byte	.LVL253
 10216 02ed 56070000 		.4byte	.LVL254
 10217 02f1 0100     		.2byte	0x1
 10218 02f3 50       		.byte	0x50
 10219 02f4 56070000 		.4byte	.LVL254
 10220 02f8 BC070000 		.4byte	.LVL258
 10221 02fc 0100     		.2byte	0x1
 10222 02fe 55       		.byte	0x55
 10223 02ff 00000000 		.4byte	0
 10224 0303 00000000 		.4byte	0
 10225              	.LLST11:
 10226 0307 08000000 		.4byte	.LVL91
 10227 030b A0010000 		.4byte	.LVL128
 10228 030f 0400     		.2byte	0x4
 10229 0311 0A       		.byte	0xa
 10230 0312 FFFF     		.2byte	0xffff
 10231 0314 9F       		.byte	0x9f
 10232 0315 A0010000 		.4byte	.LVL128
 10233 0319 FA010000 		.4byte	.LVL140
 10234 031d 0100     		.2byte	0x1
ARM GAS  C:\Users\Mathieu\AppData\Local\Temp\ccqdbTbw.s 			page 254


 10235 031f 54       		.byte	0x54
 10236 0320 2E020000 		.4byte	.LVL141
 10237 0324 40030000 		.4byte	.LVL158
 10238 0328 0400     		.2byte	0x4
 10239 032a 0A       		.byte	0xa
 10240 032b FFFF     		.2byte	0xffff
 10241 032d 9F       		.byte	0x9f
 10242 032e 40030000 		.4byte	.LVL158
 10243 0332 9A030000 		.4byte	.LVL170
 10244 0336 0100     		.2byte	0x1
 10245 0338 54       		.byte	0x54
 10246 0339 CE030000 		.4byte	.LVL171
 10247 033d 84040000 		.4byte	.LVL188
 10248 0341 0400     		.2byte	0x4
 10249 0343 0A       		.byte	0xa
 10250 0344 FFFF     		.2byte	0xffff
 10251 0346 9F       		.byte	0x9f
 10252 0347 84040000 		.4byte	.LVL188
 10253 034b FE040000 		.4byte	.LVL200
 10254 034f 0100     		.2byte	0x1
 10255 0351 54       		.byte	0x54
 10256 0352 FE040000 		.4byte	.LVL200
 10257 0356 B0050000 		.4byte	.LVL216
 10258 035a 0400     		.2byte	0x4
 10259 035c 0A       		.byte	0xa
 10260 035d FFFF     		.2byte	0xffff
 10261 035f 9F       		.byte	0x9f
 10262 0360 B0050000 		.4byte	.LVL216
 10263 0364 0A060000 		.4byte	.LVL228
 10264 0368 0100     		.2byte	0x1
 10265 036a 54       		.byte	0x54
 10266 036b 84060000 		.4byte	.LVL229
 10267 036f 36070000 		.4byte	.LVL245
 10268 0373 0400     		.2byte	0x4
 10269 0375 0A       		.byte	0xa
 10270 0376 FFFF     		.2byte	0xffff
 10271 0378 9F       		.byte	0x9f
 10272 0379 36070000 		.4byte	.LVL245
 10273 037d 90070000 		.4byte	.LVL257
 10274 0381 0100     		.2byte	0x1
 10275 0383 54       		.byte	0x54
 10276 0384 00000000 		.4byte	0
 10277 0388 00000000 		.4byte	0
 10278              	.LLST12:
 10279 038c 02000000 		.4byte	.LVL260
 10280 0390 0C000000 		.4byte	.LVL261
 10281 0394 0200     		.2byte	0x2
 10282 0396 34       		.byte	0x34
 10283 0397 9F       		.byte	0x9f
 10284 0398 00000000 		.4byte	0
 10285 039c 00000000 		.4byte	0
 10286              	.LLST13:
 10287 03a0 02000000 		.4byte	.LVL260
 10288 03a4 0C000000 		.4byte	.LVL261
 10289 03a8 0600     		.2byte	0x6
 10290 03aa 0C       		.byte	0xc
 10291 03ab 00003240 		.4byte	0x40320000
ARM GAS  C:\Users\Mathieu\AppData\Local\Temp\ccqdbTbw.s 			page 255


 10292 03af 9F       		.byte	0x9f
 10293 03b0 00000000 		.4byte	0
 10294 03b4 00000000 		.4byte	0
 10295              	.LLST14:
 10296 03b8 12000000 		.4byte	.LVL262
 10297 03bc 28000000 		.4byte	.LVL263
 10298 03c0 0100     		.2byte	0x1
 10299 03c2 54       		.byte	0x54
 10300 03c3 00000000 		.4byte	0
 10301 03c7 00000000 		.4byte	0
 10302              	.LLST15:
 10303 03cb 40000000 		.4byte	.LVL265
 10304 03cf 4A000000 		.4byte	.LVL266
 10305 03d3 0200     		.2byte	0x2
 10306 03d5 34       		.byte	0x34
 10307 03d6 9F       		.byte	0x9f
 10308 03d7 00000000 		.4byte	0
 10309 03db 00000000 		.4byte	0
 10310              	.LLST16:
 10311 03df 40000000 		.4byte	.LVL265
 10312 03e3 4A000000 		.4byte	.LVL266
 10313 03e7 0600     		.2byte	0x6
 10314 03e9 0C       		.byte	0xc
 10315 03ea 00003240 		.4byte	0x40320000
 10316 03ee 9F       		.byte	0x9f
 10317 03ef 00000000 		.4byte	0
 10318 03f3 00000000 		.4byte	0
 10319              	.LLST17:
 10320 03f7 4A000000 		.4byte	.LVL266
 10321 03fb 54000000 		.4byte	.LVL267
 10322 03ff 0100     		.2byte	0x1
 10323 0401 54       		.byte	0x54
 10324 0402 00000000 		.4byte	0
 10325 0406 00000000 		.4byte	0
 10326              		.section	.debug_aranges,"",%progbits
 10327 0000 54000000 		.4byte	0x54
 10328 0004 0200     		.2byte	0x2
 10329 0006 00000000 		.4byte	.Ldebug_info0
 10330 000a 04       		.byte	0x4
 10331 000b 00       		.byte	0
 10332 000c 0000     		.2byte	0
 10333 000e 0000     		.2byte	0
 10334 0010 00000000 		.4byte	.LFB660
 10335 0014 2C000000 		.4byte	.LFE660-.LFB660
 10336 0018 00000000 		.4byte	.LFB661
 10337 001c 1E000000 		.4byte	.LFE661-.LFB661
 10338 0020 00000000 		.4byte	.LFB662
 10339 0024 78000000 		.4byte	.LFE662-.LFB662
 10340 0028 00000000 		.4byte	.LFB663
 10341 002c B8000000 		.4byte	.LFE663-.LFB663
 10342 0030 00000000 		.4byte	.LFB664
 10343 0034 34010000 		.4byte	.LFE664-.LFB664
 10344 0038 00000000 		.4byte	.LFB665
 10345 003c 94010000 		.4byte	.LFE665-.LFB665
 10346 0040 00000000 		.4byte	.LFB666
 10347 0044 FC070000 		.4byte	.LFE666-.LFB666
 10348 0048 00000000 		.4byte	.LFB667
ARM GAS  C:\Users\Mathieu\AppData\Local\Temp\ccqdbTbw.s 			page 256


 10349 004c 78000000 		.4byte	.LFE667-.LFB667
 10350 0050 00000000 		.4byte	0
 10351 0054 00000000 		.4byte	0
 10352              		.section	.debug_ranges,"",%progbits
 10353              	.Ldebug_ranges0:
 10354 0000 06000000 		.4byte	.LBB10
 10355 0004 08000000 		.4byte	.LBE10
 10356 0008 0C000000 		.4byte	.LBB11
 10357 000c 2C000000 		.4byte	.LBE11
 10358 0010 00000000 		.4byte	0
 10359 0014 00000000 		.4byte	0
 10360 0018 24000000 		.4byte	.LBB13
 10361 001c AC000000 		.4byte	.LBE13
 10362 0020 AE000000 		.4byte	.LBB14
 10363 0024 96010000 		.4byte	.LBE14
 10364 0028 9E010000 		.4byte	.LBB15
 10365 002c E0020000 		.4byte	.LBE15
 10366 0030 E8020000 		.4byte	.LBB16
 10367 0034 7A040000 		.4byte	.LBE16
 10368 0038 82040000 		.4byte	.LBB17
 10369 003c A6050000 		.4byte	.LBE17
 10370 0040 AE050000 		.4byte	.LBB18
 10371 0044 2C070000 		.4byte	.LBE18
 10372 0048 34070000 		.4byte	.LBB19
 10373 004c BC070000 		.4byte	.LBE19
 10374 0050 00000000 		.4byte	0
 10375 0054 00000000 		.4byte	0
 10376 0058 00000000 		.4byte	.LFB660
 10377 005c 2C000000 		.4byte	.LFE660
 10378 0060 00000000 		.4byte	.LFB661
 10379 0064 1E000000 		.4byte	.LFE661
 10380 0068 00000000 		.4byte	.LFB662
 10381 006c 78000000 		.4byte	.LFE662
 10382 0070 00000000 		.4byte	.LFB663
 10383 0074 B8000000 		.4byte	.LFE663
 10384 0078 00000000 		.4byte	.LFB664
 10385 007c 34010000 		.4byte	.LFE664
 10386 0080 00000000 		.4byte	.LFB665
 10387 0084 94010000 		.4byte	.LFE665
 10388 0088 00000000 		.4byte	.LFB666
 10389 008c FC070000 		.4byte	.LFE666
 10390 0090 00000000 		.4byte	.LFB667
 10391 0094 78000000 		.4byte	.LFE667
 10392 0098 00000000 		.4byte	0
 10393 009c 00000000 		.4byte	0
 10394              		.section	.debug_line,"",%progbits
 10395              	.Ldebug_line0:
 10396 0000 A2080000 		.section	.debug_str,"MS",%progbits,1
 10396      0200FC05 
 10396      00000201 
 10396      FB0E0D00 
 10396      01010101 
 10397              	.LASF181:
 10398 0000 52534552 		.ascii	"RSERVED1\000"
 10398      56454431 
 10398      00
 10399              	.LASF376:
ARM GAS  C:\Users\Mathieu\AppData\Local\Temp\ccqdbTbw.s 			page 257


 10400 0009 63617074 		.ascii	"captureInput\000"
 10400      75726549 
 10400      6E707574 
 10400      00
 10401              	.LASF135:
 10402 0016 7564625F 		.ascii	"udb_interrupts_3_IRQn\000"
 10402      696E7465 
 10402      72727570 
 10402      74735F33 
 10402      5F495251 
 10403              	.LASF229:
 10404 002c 63727970 		.ascii	"cryptoBase\000"
 10404      746F4261 
 10404      736500
 10405              	.LASF293:
 10406 0037 63707573 		.ascii	"cpussCm0StatusOffset\000"
 10406      73436D30 
 10406      53746174 
 10406      75734F66 
 10406      66736574 
 10407              	.LASF489:
 10408 004c 464C4147 		.ascii	"FLAG_modif\000"
 10408      5F6D6F64 
 10408      696600
 10409              	.LASF190:
 10410 0057 73697A65 		.ascii	"sizetype\000"
 10410      74797065 
 10410      00
 10411              	.LASF427:
 10412 0060 70616645 		.ascii	"pafEncode\000"
 10412      6E636F64 
 10412      6500
 10413              	.LASF405:
 10414 006a 4755495F 		.ascii	"GUI_FONT_PROP_EXT\000"
 10414      464F4E54 
 10414      5F50524F 
 10414      505F4558 
 10414      5400
 10415              	.LASF356:
 10416 007c 63795F73 		.ascii	"cy_stc_scb_uart_context\000"
 10416      74635F73 
 10416      63625F75 
 10416      6172745F 
 10416      636F6E74 
 10417              	.LASF23:
 10418 0094 696F7373 		.ascii	"ioss_interrupts_gpio_13_IRQn\000"
 10418      5F696E74 
 10418      65727275 
 10418      7074735F 
 10418      6770696F 
 10419              	.LASF456:
 10420 00b1 436C6561 		.ascii	"ClearScreen\000"
 10420      72536372 
 10420      65656E00 
 10421              	.LASF29:
 10422 00bd 73727373 		.ascii	"srss_interrupt_mcwdt_0_IRQn\000"
 10422      5F696E74 
ARM GAS  C:\Users\Mathieu\AppData\Local\Temp\ccqdbTbw.s 			page 258


 10422      65727275 
 10422      70745F6D 
 10422      63776474 
 10423              	.LASF375:
 10424 00d9 63617074 		.ascii	"captureInputMode\000"
 10424      75726549 
 10424      6E707574 
 10424      4D6F6465 
 10424      00
 10425              	.LASF347:
 10426 00ea 72784275 		.ascii	"rxBuf\000"
 10426      6600
 10427              	.LASF256:
 10428 00f0 63727970 		.ascii	"cryptoMemSize\000"
 10428      746F4D65 
 10428      6D53697A 
 10428      6500
 10429              	.LASF270:
 10430 00fe 64774368 		.ascii	"dwChCtlPreemptablePos\000"
 10430      43746C50 
 10430      7265656D 
 10430      70746162 
 10430      6C65506F 
 10431              	.LASF244:
 10432 0114 63707573 		.ascii	"cpussFmIrq\000"
 10432      73466D49 
 10432      727100
 10433              	.LASF225:
 10434 011f 6873696F 		.ascii	"hsiomBase\000"
 10434      6D426173 
 10434      6500
 10435              	.LASF101:
 10436 0129 74637077 		.ascii	"tcpwm_0_interrupts_1_IRQn\000"
 10436      6D5F305F 
 10436      696E7465 
 10436      72727570 
 10436      74735F31 
 10437              	.LASF39:
 10438 0143 63707573 		.ascii	"cpuss_interrupts_ipc_4_IRQn\000"
 10438      735F696E 
 10438      74657272 
 10438      75707473 
 10438      5F697063 
 10439              	.LASF107:
 10440 015f 74637077 		.ascii	"tcpwm_0_interrupts_7_IRQn\000"
 10440      6D5F305F 
 10440      696E7465 
 10440      72727570 
 10440      74735F37 
 10441              	.LASF15:
 10442 0179 696F7373 		.ascii	"ioss_interrupts_gpio_5_IRQn\000"
 10442      5F696E74 
 10442      65727275 
 10442      7074735F 
 10442      6770696F 
 10443              	.LASF56:
 10444 0195 7363625F 		.ascii	"scb_5_interrupt_IRQn\000"
ARM GAS  C:\Users\Mathieu\AppData\Local\Temp\ccqdbTbw.s 			page 259


 10444      355F696E 
 10444      74657272 
 10444      7570745F 
 10444      4952516E 
 10445              	.LASF455:
 10446 01aa 55706461 		.ascii	"UpdateDisplay\000"
 10446      74654469 
 10446      73706C61 
 10446      7900
 10447              	.LASF32:
 10448 01b8 73727373 		.ascii	"srss_interrupt_IRQn\000"
 10448      5F696E74 
 10448      65727275 
 10448      70745F49 
 10448      52516E00 
 10449              	.LASF357:
 10450 01cc 74785374 		.ascii	"txStatus\000"
 10450      61747573 
 10450      00
 10451              	.LASF424:
 10452 01d5 70664765 		.ascii	"pfGetFontInfo\000"
 10452      74466F6E 
 10452      74496E66 
 10452      6F00
 10453              	.LASF514:
 10454 01e3 43617053 		.ascii	"CapSense_IsBusy\000"
 10454      656E7365 
 10454      5F497342 
 10454      75737900 
 10455              	.LASF145:
 10456 01f3 7564625F 		.ascii	"udb_interrupts_13_IRQn\000"
 10456      696E7465 
 10456      72727570 
 10456      74735F31 
 10456      335F4952 
 10457              	.LASF114:
 10458 020a 74637077 		.ascii	"tcpwm_1_interrupts_6_IRQn\000"
 10458      6D5F315F 
 10458      696E7465 
 10458      72727570 
 10458      74735F36 
 10459              	.LASF155:
 10460 0224 7573625F 		.ascii	"usb_interrupt_lo_IRQn\000"
 10460      696E7465 
 10460      72727570 
 10460      745F6C6F 
 10460      5F495251 
 10461              	.LASF284:
 10462 023a 70657269 		.ascii	"periDiv24_5CtlOffset\000"
 10462      44697632 
 10462      345F3543 
 10462      746C4F66 
 10462      66736574 
 10463              	.LASF95:
 10464 024f 63707573 		.ascii	"cpuss_interrupt_fm_IRQn\000"
 10464      735F696E 
 10464      74657272 
ARM GAS  C:\Users\Mathieu\AppData\Local\Temp\ccqdbTbw.s 			page 260


 10464      7570745F 
 10464      666D5F49 
 10465              	.LASF476:
 10466 0267 5357325F 		.ascii	"SW2_isr_cfg\000"
 10466      6973725F 
 10466      63666700 
 10467              	.LASF323:
 10468 0273 73746174 		.ascii	"state\000"
 10468      6500
 10469              	.LASF465:
 10470 0279 62757474 		.ascii	"button0_pressed\000"
 10470      6F6E305F 
 10470      70726573 
 10470      73656400 
 10471              	.LASF391:
 10472 0289 5853697A 		.ascii	"XSize\000"
 10472      6500
 10473              	.LASF193:
 10474 028f 4F55545F 		.ascii	"OUT_SET\000"
 10474      53455400 
 10475              	.LASF286:
 10476 0297 6770696F 		.ascii	"gpioPrtCfgOffset\000"
 10476      50727443 
 10476      66674F66 
 10476      66736574 
 10476      00
 10477              	.LASF192:
 10478 02a8 4F55545F 		.ascii	"OUT_CLR\000"
 10478      434C5200 
 10479              	.LASF371:
 10480 02b0 636F6D70 		.ascii	"compare0\000"
 10480      61726530 
 10480      00
 10481              	.LASF372:
 10482 02b9 636F6D70 		.ascii	"compare1\000"
 10482      61726531 
 10482      00
 10483              	.LASF248:
 10484 02c2 73727373 		.ascii	"srssNumHfroot\000"
 10484      4E756D48 
 10484      66726F6F 
 10484      7400
 10485              	.LASF151:
 10486 02d0 70726F66 		.ascii	"profile_interrupt_IRQn\000"
 10486      696C655F 
 10486      696E7465 
 10486      72727570 
 10486      745F4952 
 10487              	.LASF22:
 10488 02e7 696F7373 		.ascii	"ioss_interrupts_gpio_12_IRQn\000"
 10488      5F696E74 
 10488      65727275 
 10488      7074735F 
 10488      6770696F 
 10489              	.LASF258:
 10490 0304 666C6173 		.ascii	"flashPipeRequired\000"
 10490      68506970 
ARM GAS  C:\Users\Mathieu\AppData\Local\Temp\ccqdbTbw.s 			page 261


 10490      65526571 
 10490      75697265 
 10490      6400
 10491              	.LASF71:
 10492 0316 63707573 		.ascii	"cpuss_interrupts_dw0_11_IRQn\000"
 10492      735F696E 
 10492      74657272 
 10492      75707473 
 10492      5F647730 
 10493              	.LASF515:
 10494 0333 43617053 		.ascii	"CapSense_ProcessAllWidgets\000"
 10494      656E7365 
 10494      5F50726F 
 10494      63657373 
 10494      416C6C57 
 10495              	.LASF152:
 10496 034e 736D6966 		.ascii	"smif_interrupt_IRQn\000"
 10496      5F696E74 
 10496      65727275 
 10496      70745F49 
 10496      52516E00 
 10497              	.LASF122:
 10498 0362 74637077 		.ascii	"tcpwm_1_interrupts_14_IRQn\000"
 10498      6D5F315F 
 10498      696E7465 
 10498      72727570 
 10498      74735F31 
 10499              	.LASF196:
 10500 037d 494E5452 		.ascii	"INTR_MASK\000"
 10500      5F4D4153 
 10500      4B00
 10501              	.LASF443:
 10502 0387 43595F45 		.ascii	"CY_EINK_FULL_4STAGE\000"
 10502      494E4B5F 
 10502      46554C4C 
 10502      5F345354 
 10502      41474500 
 10503              	.LASF91:
 10504 039b 63707573 		.ascii	"cpuss_interrupts_dw1_15_IRQn\000"
 10504      735F696E 
 10504      74657272 
 10504      75707473 
 10504      5F647731 
 10505              	.LASF383:
 10506 03b8 636F756E 		.ascii	"countInputMode\000"
 10506      74496E70 
 10506      75744D6F 
 10506      646500
 10507              	.LASF184:
 10508 03c7 49435052 		.ascii	"ICPR\000"
 10508      00
 10509              	.LASF271:
 10510 03cc 64775374 		.ascii	"dwStatusChIdxPos\000"
 10510      61747573 
 10510      43684964 
 10510      78506F73 
 10510      00
ARM GAS  C:\Users\Mathieu\AppData\Local\Temp\ccqdbTbw.s 			page 262


 10511              	.LASF500:
 10512 03dd 696D6167 		.ascii	"imageBufferCache\000"
 10512      65427566 
 10512      66657243 
 10512      61636865 
 10512      00
 10513              	.LASF64:
 10514 03ee 63707573 		.ascii	"cpuss_interrupts_dw0_4_IRQn\000"
 10514      735F696E 
 10514      74657272 
 10514      75707473 
 10514      5F647730 
 10515              	.LASF448:
 10516 040a 5F5F4E56 		.ascii	"__NVIC_ClearPendingIRQ\000"
 10516      49435F43 
 10516      6C656172 
 10516      50656E64 
 10516      696E6749 
 10517              	.LASF37:
 10518 0421 63707573 		.ascii	"cpuss_interrupts_ipc_2_IRQn\000"
 10518      735F696E 
 10518      74657272 
 10518      75707473 
 10518      5F697063 
 10519              	.LASF461:
 10520 043d 64726177 		.ascii	"drawAffichageCourbe\000"
 10520      41666669 
 10520      63686167 
 10520      65436F75 
 10520      72626500 
 10521              	.LASF106:
 10522 0451 74637077 		.ascii	"tcpwm_0_interrupts_6_IRQn\000"
 10522      6D5F305F 
 10522      696E7465 
 10522      72727570 
 10522      74735F36 
 10523              	.LASF139:
 10524 046b 7564625F 		.ascii	"udb_interrupts_7_IRQn\000"
 10524      696E7465 
 10524      72727570 
 10524      74735F37 
 10524      5F495251 
 10525              	.LASF14:
 10526 0481 696F7373 		.ascii	"ioss_interrupts_gpio_4_IRQn\000"
 10526      5F696E74 
 10526      65727275 
 10526      7074735F 
 10526      6770696F 
 10527              	.LASF287:
 10528 049d 6770696F 		.ascii	"gpioPrtCfgInOffset\000"
 10528      50727443 
 10528      6667496E 
 10528      4F666673 
 10528      657400
 10529              	.LASF428:
 10530 04b0 59446973 		.ascii	"YDist\000"
 10530      7400
ARM GAS  C:\Users\Mathieu\AppData\Local\Temp\ccqdbTbw.s 			page 263


 10531              	.LASF510:
 10532 04b6 4755495F 		.ascii	"GUI_DispStringAt\000"
 10532      44697370 
 10532      53747269 
 10532      6E674174 
 10532      00
 10533              	.LASF233:
 10534 04c7 666C6173 		.ascii	"flashcVersion\000"
 10534      68635665 
 10534      7273696F 
 10534      6E00
 10535              	.LASF161:
 10536 04d5 5F5F7569 		.ascii	"__uint8_t\000"
 10536      6E74385F 
 10536      7400
 10537              	.LASF462:
 10538 04df 7374725F 		.ascii	"str_param\000"
 10538      70617261 
 10538      6D00
 10539              	.LASF352:
 10540 04e9 74784275 		.ascii	"txBufIdx\000"
 10540      66496478 
 10540      00
 10541              	.LASF79:
 10542 04f2 63707573 		.ascii	"cpuss_interrupts_dw1_3_IRQn\000"
 10542      735F696E 
 10542      74657272 
 10542      75707473 
 10542      5F647731 
 10543              	.LASF312:
 10544 050e 696E7472 		.ascii	"intrSrc\000"
 10544      53726300 
 10545              	.LASF321:
 10546 0516 75736552 		.ascii	"useRxFifo\000"
 10546      78466966 
 10546      6F00
 10547              	.LASF351:
 10548 0520 74784275 		.ascii	"txBufSize\000"
 10548      6653697A 
 10548      6500
 10549              	.LASF471:
 10550 052a 7374725F 		.ascii	"str_Current_LED1\000"
 10550      43757272 
 10550      656E745F 
 10550      4C454431 
 10550      00
 10551              	.LASF472:
 10552 053b 7374725F 		.ascii	"str_Current_LED2\000"
 10552      43757272 
 10552      656E745F 
 10552      4C454432 
 10552      00
 10553              	.LASF437:
 10554 054c 704D6F6E 		.ascii	"pMono\000"
 10554      6F00
 10555              	.LASF167:
 10556 0552 6C6F6E67 		.ascii	"long int\000"
ARM GAS  C:\Users\Mathieu\AppData\Local\Temp\ccqdbTbw.s 			page 264


 10556      20696E74 
 10556      00
 10557              	.LASF207:
 10558 055b 494E5452 		.ascii	"INTR_CAUSE0\000"
 10558      5F434155 
 10558      53453000 
 10559              	.LASF208:
 10560 0567 494E5452 		.ascii	"INTR_CAUSE1\000"
 10560      5F434155 
 10560      53453100 
 10561              	.LASF209:
 10562 0573 494E5452 		.ascii	"INTR_CAUSE2\000"
 10562      5F434155 
 10562      53453200 
 10563              	.LASF210:
 10564 057f 494E5452 		.ascii	"INTR_CAUSE3\000"
 10564      5F434155 
 10564      53453300 
 10565              	.LASF132:
 10566 058b 7564625F 		.ascii	"udb_interrupts_0_IRQn\000"
 10566      696E7465 
 10566      72727570 
 10566      74735F30 
 10566      5F495251 
 10567              	.LASF121:
 10568 05a1 74637077 		.ascii	"tcpwm_1_interrupts_13_IRQn\000"
 10568      6D5F315F 
 10568      696E7465 
 10568      72727570 
 10568      74735F31 
 10569              	.LASF253:
 10570 05bc 75646250 		.ascii	"udbPresent\000"
 10570      72657365 
 10570      6E7400
 10571              	.LASF509:
 10572 05c7 4755495F 		.ascii	"GUI_DrawRect\000"
 10572      44726177 
 10572      52656374 
 10572      00
 10573              	.LASF274:
 10574 05d4 70657269 		.ascii	"periTrCmdGrSelMsk\000"
 10574      5472436D 
 10574      64477253 
 10574      656C4D73 
 10574      6B00
 10575              	.LASF377:
 10576 05e6 72656C6F 		.ascii	"reloadInputMode\000"
 10576      6164496E 
 10576      7075744D 
 10576      6F646500 
 10577              	.LASF281:
 10578 05f6 70657269 		.ascii	"periDiv8CtlOffset\000"
 10578      44697638 
 10578      43746C4F 
 10578      66667365 
 10578      7400
 10579              	.LASF450:
ARM GAS  C:\Users\Mathieu\AppData\Local\Temp\ccqdbTbw.s 			page 265


 10580 0608 4952516E 		.ascii	"IRQn\000"
 10580      00
 10581              	.LASF276:
 10582 060d 70657269 		.ascii	"periTrGrSize\000"
 10582      54724772 
 10582      53697A65 
 10582      00
 10583              	.LASF138:
 10584 061a 7564625F 		.ascii	"udb_interrupts_6_IRQn\000"
 10584      696E7465 
 10584      72727570 
 10584      74735F36 
 10584      5F495251 
 10585              	.LASF89:
 10586 0630 63707573 		.ascii	"cpuss_interrupts_dw1_13_IRQn\000"
 10586      735F696E 
 10586      74657272 
 10586      75707473 
 10586      5F647731 
 10587              	.LASF195:
 10588 064d 494E5452 		.ascii	"INTR\000"
 10588      00
 10589              	.LASF46:
 10590 0652 63707573 		.ascii	"cpuss_interrupts_ipc_11_IRQn\000"
 10590      735F696E 
 10590      74657272 
 10590      75707473 
 10590      5F697063 
 10591              	.LASF417:
 10592 066f 70664765 		.ascii	"pfGetLineDistX\000"
 10592      744C696E 
 10592      65446973 
 10592      745800
 10593              	.LASF403:
 10594 067e 70614368 		.ascii	"paCharInfo\000"
 10594      6172496E 
 10594      666F00
 10595              	.LASF425:
 10596 0689 70664973 		.ascii	"pfIsInFont\000"
 10596      496E466F 
 10596      6E7400
 10597              	.LASF78:
 10598 0694 63707573 		.ascii	"cpuss_interrupts_dw1_2_IRQn\000"
 10598      735F696E 
 10598      74657272 
 10598      75707473 
 10598      5F647731 
 10599              	.LASF204:
 10600 06b0 4346475F 		.ascii	"CFG_IN_GPIO5V\000"
 10600      494E5F47 
 10600      50494F35 
 10600      5600
 10601              	.LASF9:
 10602 06be 53797354 		.ascii	"SysTick_IRQn\000"
 10602      69636B5F 
 10602      4952516E 
 10602      00
ARM GAS  C:\Users\Mathieu\AppData\Local\Temp\ccqdbTbw.s 			page 266


 10603              	.LASF59:
 10604 06cb 6373645F 		.ascii	"csd_interrupt_IRQn\000"
 10604      696E7465 
 10604      72727570 
 10604      745F4952 
 10604      516E00
 10605              	.LASF364:
 10606 06de 63795F73 		.ascii	"cy_stc_scb_uart_context_t\000"
 10606      74635F73 
 10606      63625F75 
 10606      6172745F 
 10606      636F6E74 
 10607              	.LASF520:
 10608 06f8 696E7465 		.ascii	"interface.c\000"
 10608      72666163 
 10608      652E6300 
 10609              	.LASF249:
 10610 0704 70657269 		.ascii	"periClockNr\000"
 10610      436C6F63 
 10610      6B4E7200 
 10611              	.LASF446:
 10612 0710 51756575 		.ascii	"QueueHandle_t\000"
 10612      6548616E 
 10612      646C655F 
 10612      7400
 10613              	.LASF159:
 10614 071e 7369676E 		.ascii	"signed char\000"
 10614      65642063 
 10614      68617200 
 10615              	.LASF173:
 10616 072a 75696E74 		.ascii	"uint8_t\000"
 10616      385F7400 
 10617              	.LASF477:
 10618 0732 43595F45 		.ascii	"CY_EINK_SPIM_context\000"
 10618      494E4B5F 
 10618      5350494D 
 10618      5F636F6E 
 10618      74657874 
 10619              	.LASF279:
 10620 0747 70657269 		.ascii	"periDivCmdPaDivSelPos\000"
 10620      44697643 
 10620      6D645061 
 10620      44697653 
 10620      656C506F 
 10621              	.LASF300:
 10622 075d 63707573 		.ascii	"cpussRomCtl\000"
 10622      73526F6D 
 10622      43746C00 
 10623              	.LASF42:
 10624 0769 63707573 		.ascii	"cpuss_interrupts_ipc_7_IRQn\000"
 10624      735F696E 
 10624      74657272 
 10624      75707473 
 10624      5F697063 
 10625              	.LASF335:
 10626 0785 736C6176 		.ascii	"slaveTxBufferIdx\000"
 10626      65547842 
ARM GAS  C:\Users\Mathieu\AppData\Local\Temp\ccqdbTbw.s 			page 267


 10626      75666665 
 10626      72496478 
 10626      00
 10627              	.LASF481:
 10628 0796 424D495F 		.ascii	"BMI_I2C_context\000"
 10628      4932435F 
 10628      636F6E74 
 10628      65787400 
 10629              	.LASF58:
 10630 07a6 7363625F 		.ascii	"scb_7_interrupt_IRQn\000"
 10630      375F696E 
 10630      74657272 
 10630      7570745F 
 10630      4952516E 
 10631              	.LASF221:
 10632 07bb 666C6173 		.ascii	"flashcBase\000"
 10632      68634261 
 10632      736500
 10633              	.LASF337:
 10634 07c6 736C6176 		.ascii	"slaveRxBuffer\000"
 10634      65527842 
 10634      75666665 
 10634      7200
 10635              	.LASF179:
 10636 07d4 52455345 		.ascii	"RESERVED0\000"
 10636      52564544 
 10636      3000
 10637              	.LASF205:
 10638 07de 52455345 		.ascii	"RESERVED1\000"
 10638      52564544 
 10638      3100
 10639              	.LASF162:
 10640 07e8 756E7369 		.ascii	"unsigned char\000"
 10640      676E6564 
 10640      20636861 
 10640      7200
 10641              	.LASF185:
 10642 07f6 52455345 		.ascii	"RESERVED3\000"
 10642      52564544 
 10642      3300
 10643              	.LASF187:
 10644 0800 52455345 		.ascii	"RESERVED4\000"
 10644      52564544 
 10644      3400
 10645              	.LASF188:
 10646 080a 52455345 		.ascii	"RESERVED5\000"
 10646      52564544 
 10646      3500
 10647              	.LASF388:
 10648 0814 4C617374 		.ascii	"LastChar\000"
 10648      43686172 
 10648      00
 10649              	.LASF342:
 10650 081d 63795F73 		.ascii	"cy_stc_scb_i2c_context_t\000"
 10650      74635F73 
 10650      63625F69 
 10650      32635F63 
ARM GAS  C:\Users\Mathieu\AppData\Local\Temp\ccqdbTbw.s 			page 268


 10650      6F6E7465 
 10651              	.LASF186:
 10652 0836 49414252 		.ascii	"IABR\000"
 10652      00
 10653              	.LASF117:
 10654 083b 74637077 		.ascii	"tcpwm_1_interrupts_9_IRQn\000"
 10654      6D5F315F 
 10654      696E7465 
 10654      72727570 
 10654      74735F39 
 10655              	.LASF496:
 10656 0855 7853656D 		.ascii	"xSemaphoreI2C_MAX\000"
 10656      6170686F 
 10656      72654932 
 10656      435F4D41 
 10656      5800
 10657              	.LASF411:
 10658 0867 4C486569 		.ascii	"LHeight\000"
 10658      67687400 
 10659              	.LASF295:
 10660 086f 63707573 		.ascii	"cpussTrimRamCtlOffset\000"
 10660      73547269 
 10660      6D52616D 
 10660      43746C4F 
 10660      66667365 
 10661              	.LASF157:
 10662 0885 756E636F 		.ascii	"unconnected_IRQn\000"
 10662      6E6E6563 
 10662      7465645F 
 10662      4952516E 
 10662      00
 10663              	.LASF315:
 10664 0896 5F426F6F 		.ascii	"_Bool\000"
 10664      6C00
 10665              	.LASF227:
 10666 089c 70617373 		.ascii	"passBase\000"
 10666      42617365 
 10666      00
 10667              	.LASF296:
 10668 08a5 63707573 		.ascii	"cpussTrimRomCtlOffset\000"
 10668      73547269 
 10668      6D526F6D 
 10668      43746C4F 
 10668      66667365 
 10669              	.LASF74:
 10670 08bb 63707573 		.ascii	"cpuss_interrupts_dw0_14_IRQn\000"
 10670      735F696E 
 10670      74657272 
 10670      75707473 
 10670      5F647730 
 10671              	.LASF434:
 10672 08d8 4755495F 		.ascii	"GUI_ISINFONT\000"
 10672      4953494E 
 10672      464F4E54 
 10672      00
 10673              	.LASF429:
 10674 08e5 584D6167 		.ascii	"XMag\000"
ARM GAS  C:\Users\Mathieu\AppData\Local\Temp\ccqdbTbw.s 			page 269


 10674      00
 10675              	.LASF5:
 10676 08ea 55736167 		.ascii	"UsageFault_IRQn\000"
 10676      65466175 
 10676      6C745F49 
 10676      52516E00 
 10677              	.LASF409:
 10678 08fa 466C6167 		.ascii	"Flags\000"
 10678      7300
 10679              	.LASF125:
 10680 0900 74637077 		.ascii	"tcpwm_1_interrupts_17_IRQn\000"
 10680      6D5F315F 
 10680      696E7465 
 10680      72727570 
 10680      74735F31 
 10681              	.LASF308:
 10682 091b 63686172 		.ascii	"char\000"
 10682      00
 10683              	.LASF154:
 10684 0920 7573625F 		.ascii	"usb_interrupt_med_IRQn\000"
 10684      696E7465 
 10684      72727570 
 10684      745F6D65 
 10684      645F4952 
 10685              	.LASF10:
 10686 0937 696F7373 		.ascii	"ioss_interrupts_gpio_0_IRQn\000"
 10686      5F696E74 
 10686      65727275 
 10686      7074735F 
 10686      6770696F 
 10687              	.LASF288:
 10688 0953 6770696F 		.ascii	"gpioPrtCfgOutOffset\000"
 10688      50727443 
 10688      66674F75 
 10688      744F6666 
 10688      73657400 
 10689              	.LASF345:
 10690 0967 63795F73 		.ascii	"cy_stc_scb_spi_context\000"
 10690      74635F73 
 10690      63625F73 
 10690      70695F63 
 10690      6F6E7465 
 10691              	.LASF392:
 10692 097e 58446973 		.ascii	"XDist\000"
 10692      7400
 10693              	.LASF67:
 10694 0984 63707573 		.ascii	"cpuss_interrupts_dw0_7_IRQn\000"
 10694      735F696E 
 10694      74657272 
 10694      75707473 
 10694      5F647730 
 10695              	.LASF398:
 10696 09a0 59506F73 		.ascii	"YPos\000"
 10696      00
 10697              	.LASF368:
 10698 09a5 72756E4D 		.ascii	"runMode\000"
 10698      6F646500 
ARM GAS  C:\Users\Mathieu\AppData\Local\Temp\ccqdbTbw.s 			page 270


 10699              	.LASF110:
 10700 09ad 74637077 		.ascii	"tcpwm_1_interrupts_2_IRQn\000"
 10700      6D5F315F 
 10700      696E7465 
 10700      72727570 
 10700      74735F32 
 10701              	.LASF216:
 10702 09c7 4750494F 		.ascii	"GPIO_V1_Type\000"
 10702      5F56315F 
 10702      54797065 
 10702      00
 10703              	.LASF41:
 10704 09d4 63707573 		.ascii	"cpuss_interrupts_ipc_6_IRQn\000"
 10704      735F696E 
 10704      74657272 
 10704      75707473 
 10704      5F697063 
 10705              	.LASF404:
 10706 09f0 704E6578 		.ascii	"pNext\000"
 10706      7400
 10707              	.LASF348:
 10708 09f6 72784275 		.ascii	"rxBufSize\000"
 10708      6653697A 
 10708      6500
 10709              	.LASF17:
 10710 0a00 696F7373 		.ascii	"ioss_interrupts_gpio_7_IRQn\000"
 10710      5F696E74 
 10710      65727275 
 10710      7074735F 
 10710      6770696F 
 10711              	.LASF399:
 10712 0a1c 4755495F 		.ascii	"GUI_CHARINFO_EXT\000"
 10712      43484152 
 10712      494E464F 
 10712      5F455854 
 10712      00
 10713              	.LASF447:
 10714 0a2d 53656D61 		.ascii	"SemaphoreHandle_t\000"
 10714      70686F72 
 10714      6548616E 
 10714      646C655F 
 10714      7400
 10715              	.LASF164:
 10716 0a3f 5F5F7569 		.ascii	"__uint16_t\000"
 10716      6E743136 
 10716      5F7400
 10717              	.LASF458:
 10718 0a4a 7369676E 		.ascii	"signal\000"
 10718      616C00
 10719              	.LASF367:
 10720 0a51 636C6F63 		.ascii	"clockPrescaler\000"
 10720      6B507265 
 10720      7363616C 
 10720      657200
 10721              	.LASF506:
 10722 0a60 4755495F 		.ascii	"GUI_DrawLine\000"
 10722      44726177 
ARM GAS  C:\Users\Mathieu\AppData\Local\Temp\ccqdbTbw.s 			page 271


 10722      4C696E65 
 10722      00
 10723              	.LASF183:
 10724 0a6d 52455345 		.ascii	"RESERVED2\000"
 10724      52564544 
 10724      3200
 10725              	.LASF466:
 10726 0a77 62757474 		.ascii	"button1_pressed\000"
 10726      6F6E315F 
 10726      70726573 
 10726      73656400 
 10727              	.LASF82:
 10728 0a87 63707573 		.ascii	"cpuss_interrupts_dw1_6_IRQn\000"
 10728      735F696E 
 10728      74657272 
 10728      75707473 
 10728      5F647731 
 10729              	.LASF438:
 10730 0aa3 7050726F 		.ascii	"pProp\000"
 10730      7000
 10731              	.LASF453:
 10732 0aa9 75706461 		.ascii	"updateMethod\000"
 10732      74654D65 
 10732      74686F64 
 10732      00
 10733              	.LASF243:
 10734 0ab6 63707573 		.ascii	"cpussIpc0Irq\000"
 10734      73497063 
 10734      30497271 
 10734      00
 10735              	.LASF504:
 10736 0ac3 4755495F 		.ascii	"GUI_SetBkColor\000"
 10736      53657442 
 10736      6B436F6C 
 10736      6F7200
 10737              	.LASF118:
 10738 0ad2 74637077 		.ascii	"tcpwm_1_interrupts_10_IRQn\000"
 10738      6D5F315F 
 10738      696E7465 
 10738      72727570 
 10738      74735F31 
 10739              	.LASF87:
 10740 0aed 63707573 		.ascii	"cpuss_interrupts_dw1_11_IRQn\000"
 10740      735F696E 
 10740      74657272 
 10740      75707473 
 10740      5F647731 
 10741              	.LASF200:
 10742 0b0a 4346475F 		.ascii	"CFG_IN\000"
 10742      494E00
 10743              	.LASF292:
 10744 0b11 63707573 		.ascii	"cpussCm4StatusOffset\000"
 10744      73436D34 
 10744      53746174 
 10744      75734F66 
 10744      66736574 
 10745              	.LASF422:
ARM GAS  C:\Users\Mathieu\AppData\Local\Temp\ccqdbTbw.s 			page 272


 10746 0b26 70664469 		.ascii	"pfDispChar\000"
 10746      73704368 
 10746      617200
 10747              	.LASF332:
 10748 0b31 736C6176 		.ascii	"slaveRdBufEmpty\000"
 10748      65526442 
 10748      7566456D 
 10748      70747900 
 10749              	.LASF387:
 10750 0b41 46697273 		.ascii	"FirstChar\000"
 10750      74436861 
 10750      7200
 10751              	.LASF464:
 10752 0b4b 64726177 		.ascii	"draw_SousMenu\000"
 10752      5F536F75 
 10752      734D656E 
 10752      7500
 10753              	.LASF223:
 10754 0b59 75646242 		.ascii	"udbBase\000"
 10754      61736500 
 10755              	.LASF60:
 10756 0b61 63707573 		.ascii	"cpuss_interrupts_dw0_0_IRQn\000"
 10756      735F696E 
 10756      74657272 
 10756      75707473 
 10756      5F647730 
 10757              	.LASF213:
 10758 0b7d 5644445F 		.ascii	"VDD_INTR_MASK\000"
 10758      494E5452 
 10758      5F4D4153 
 10758      4B00
 10759              	.LASF102:
 10760 0b8b 74637077 		.ascii	"tcpwm_0_interrupts_2_IRQn\000"
 10760      6D5F305F 
 10760      696E7465 
 10760      72727570 
 10760      74735F32 
 10761              	.LASF182:
 10762 0ba5 49535052 		.ascii	"ISPR\000"
 10762      00
 10763              	.LASF433:
 10764 0baa 4755495F 		.ascii	"GUI_GETFONTINFO\000"
 10764      47455446 
 10764      4F4E5449 
 10764      4E464F00 
 10765              	.LASF124:
 10766 0bba 74637077 		.ascii	"tcpwm_1_interrupts_16_IRQn\000"
 10766      6D5F315F 
 10766      696E7465 
 10766      72727570 
 10766      74735F31 
 10767              	.LASF290:
 10768 0bd5 63707573 		.ascii	"cpussCm0ClockCtlOffset\000"
 10768      73436D30 
 10768      436C6F63 
 10768      6B43746C 
 10768      4F666673 
ARM GAS  C:\Users\Mathieu\AppData\Local\Temp\ccqdbTbw.s 			page 273


 10769              	.LASF457:
 10770 0bec 44726177 		.ascii	"DrawSignal\000"
 10770      5369676E 
 10770      616C00
 10771              	.LASF275:
 10772 0bf7 70657269 		.ascii	"periTrGrOffset\000"
 10772      54724772 
 10772      4F666673 
 10772      657400
 10773              	.LASF397:
 10774 0c06 58506F73 		.ascii	"XPos\000"
 10774      00
 10775              	.LASF386:
 10776 0c0b 4755495F 		.ascii	"GUI_FONT_TRANSLIST\000"
 10776      464F4E54 
 10776      5F545241 
 10776      4E534C49 
 10776      535400
 10777              	.LASF336:
 10778 0c1e 736C6176 		.ascii	"slaveTxBufferCnt\000"
 10778      65547842 
 10778      75666665 
 10778      72436E74 
 10778      00
 10779              	.LASF305:
 10780 0c2f 6970634C 		.ascii	"ipcLockStatusOffset\000"
 10780      6F636B53 
 10780      74617475 
 10780      734F6666 
 10780      73657400 
 10781              	.LASF141:
 10782 0c43 7564625F 		.ascii	"udb_interrupts_9_IRQn\000"
 10782      696E7465 
 10782      72727570 
 10782      74735F39 
 10782      5F495251 
 10783              	.LASF49:
 10784 0c59 63707573 		.ascii	"cpuss_interrupts_ipc_14_IRQn\000"
 10784      735F696E 
 10784      74657272 
 10784      75707473 
 10784      5F697063 
 10785              	.LASF189:
 10786 0c76 53544952 		.ascii	"STIR\000"
 10786      00
 10787              	.LASF314:
 10788 0c7b 63795F73 		.ascii	"cy_stc_sysint_t\000"
 10788      74635F73 
 10788      7973696E 
 10788      745F7400 
 10789              	.LASF483:
 10790 0c8b 4755495F 		.ascii	"GUI_Font13B_1\000"
 10790      466F6E74 
 10790      3133425F 
 10790      3100
 10791              	.LASF291:
 10792 0c99 63707573 		.ascii	"cpussCm4ClockCtlOffset\000"
ARM GAS  C:\Users\Mathieu\AppData\Local\Temp\ccqdbTbw.s 			page 274


 10792      73436D34 
 10792      436C6F63 
 10792      6B43746C 
 10792      4F666673 
 10793              	.LASF128:
 10794 0cb0 74637077 		.ascii	"tcpwm_1_interrupts_20_IRQn\000"
 10794      6D5F315F 
 10794      696E7465 
 10794      72727570 
 10794      74735F32 
 10795              	.LASF156:
 10796 0ccb 70617373 		.ascii	"pass_interrupt_dacs_IRQn\000"
 10796      5F696E74 
 10796      65727275 
 10796      70745F64 
 10796      6163735F 
 10797              	.LASF203:
 10798 0ce4 52455345 		.ascii	"RESERVED\000"
 10798      52564544 
 10798      00
 10799              	.LASF294:
 10800 0ced 63707573 		.ascii	"cpussCm4PwrCtlOffset\000"
 10800      73436D34 
 10800      50777243 
 10800      746C4F66 
 10800      66736574 
 10801              	.LASF93:
 10802 0d02 63707573 		.ascii	"cpuss_interrupts_fault_1_IRQn\000"
 10802      735F696E 
 10802      74657272 
 10802      75707473 
 10802      5F666175 
 10803              	.LASF316:
 10804 0d20 43595F53 		.ascii	"CY_SCB_I2C_ACK\000"
 10804      43425F49 
 10804      32435F41 
 10804      434B00
 10805              	.LASF266:
 10806 0d2f 666C6173 		.ascii	"flashCtlMainWs4Freq\000"
 10806      6843746C 
 10806      4D61696E 
 10806      57733446 
 10806      72657100 
 10807              	.LASF463:
 10808 0d43 64726177 		.ascii	"draw_MenuPrincipal\000"
 10808      5F4D656E 
 10808      75507269 
 10808      6E636970 
 10808      616C00
 10809              	.LASF246:
 10810 0d56 73727373 		.ascii	"srssNumClkpath\000"
 10810      4E756D43 
 10810      6C6B7061 
 10810      746800
 10811              	.LASF214:
 10812 0d65 5644445F 		.ascii	"VDD_INTR_MASKED\000"
 10812      494E5452 
ARM GAS  C:\Users\Mathieu\AppData\Local\Temp\ccqdbTbw.s 			page 275


 10812      5F4D4153 
 10812      4B454400 
 10813              	.LASF245:
 10814 0d75 63707573 		.ascii	"cpussNotConnectedIrq\000"
 10814      734E6F74 
 10814      436F6E6E 
 10814      65637465 
 10814      64497271 
 10815              	.LASF444:
 10816 0d8a 43595F45 		.ascii	"CY_EINK_FULL_2STAGE\000"
 10816      494E4B5F 
 10816      46554C4C 
 10816      5F325354 
 10816      41474500 
 10817              	.LASF134:
 10818 0d9e 7564625F 		.ascii	"udb_interrupts_2_IRQn\000"
 10818      696E7465 
 10818      72727570 
 10818      74735F32 
 10818      5F495251 
 10819              	.LASF222:
 10820 0db4 70657269 		.ascii	"periBase\000"
 10820      42617365 
 10820      00
 10821              	.LASF499:
 10822 0dbd 5245445F 		.ascii	"RED_data\000"
 10822      64617461 
 10822      00
 10823              	.LASF432:
 10824 0dc6 4755495F 		.ascii	"GUI_GETCHARDISTX\000"
 10824      47455443 
 10824      48415244 
 10824      49535458 
 10824      00
 10825              	.LASF390:
 10826 0dd7 4755495F 		.ascii	"GUI_FONT_TRANSINFO\000"
 10826      464F4E54 
 10826      5F545241 
 10826      4E53494E 
 10826      464F00
 10827              	.LASF328:
 10828 0dea 6D617374 		.ascii	"masterBufferSize\000"
 10828      65724275 
 10828      66666572 
 10828      53697A65 
 10828      00
 10829              	.LASF1:
 10830 0dfb 4E6F6E4D 		.ascii	"NonMaskableInt_IRQn\000"
 10830      61736B61 
 10830      626C6549 
 10830      6E745F49 
 10830      52516E00 
 10831              	.LASF119:
 10832 0e0f 74637077 		.ascii	"tcpwm_1_interrupts_11_IRQn\000"
 10832      6D5F315F 
 10832      696E7465 
 10832      72727570 
ARM GAS  C:\Users\Mathieu\AppData\Local\Temp\ccqdbTbw.s 			page 276


 10832      74735F31 
 10833              	.LASF242:
 10834 0e2a 63707573 		.ascii	"cpussFlashPaSize\000"
 10834      73466C61 
 10834      73685061 
 10834      53697A65 
 10834      00
 10835              	.LASF340:
 10836 0e3b 63624576 		.ascii	"cbEvents\000"
 10836      656E7473 
 10836      00
 10837              	.LASF497:
 10838 0e44 7853656D 		.ascii	"xSemaphoreI2C_BMI\000"
 10838      6170686F 
 10838      72654932 
 10838      435F424D 
 10838      4900
 10839              	.LASF169:
 10840 0e56 6C6F6E67 		.ascii	"long unsigned int\000"
 10840      20756E73 
 10840      69676E65 
 10840      6420696E 
 10840      7400
 10841              	.LASF501:
 10842 0e68 4C43445F 		.ascii	"LCD_GetDisplayBuffer\000"
 10842      47657444 
 10842      6973706C 
 10842      61794275 
 10842      66666572 
 10843              	.LASF3:
 10844 0e7d 4D656D6F 		.ascii	"MemoryManagement_IRQn\000"
 10844      72794D61 
 10844      6E616765 
 10844      6D656E74 
 10844      5F495251 
 10845              	.LASF346:
 10846 0e93 73746174 		.ascii	"status\000"
 10846      757300
 10847              	.LASF395:
 10848 0e9a 4755495F 		.ascii	"GUI_CHARINFO\000"
 10848      43484152 
 10848      494E464F 
 10848      00
 10849              	.LASF252:
 10850 0ea7 65704D6F 		.ascii	"epMonitorNr\000"
 10850      6E69746F 
 10850      724E7200 
 10851              	.LASF318:
 10852 0eb3 63795F65 		.ascii	"cy_en_scb_i2c_command_t\000"
 10852      6E5F7363 
 10852      625F6932 
 10852      635F636F 
 10852      6D6D616E 
 10853              	.LASF303:
 10854 0ecb 63707573 		.ascii	"cpussRam2Ctl0\000"
 10854      7352616D 
 10854      3243746C 
ARM GAS  C:\Users\Mathieu\AppData\Local\Temp\ccqdbTbw.s 			page 277


 10854      3000
 10855              	.LASF160:
 10856 0ed9 4952516E 		.ascii	"IRQn_Type\000"
 10856      5F547970 
 10856      6500
 10857              	.LASF247:
 10858 0ee3 73727373 		.ascii	"srssNumPll\000"
 10858      4E756D50 
 10858      6C6C00
 10859              	.LASF230:
 10860 0eee 63707573 		.ascii	"cpussVersion\000"
 10860      73566572 
 10860      73696F6E 
 10860      00
 10861              	.LASF97:
 10862 0efb 63707573 		.ascii	"cpuss_interrupts_cm0_cti_1_IRQn\000"
 10862      735F696E 
 10862      74657272 
 10862      75707473 
 10862      5F636D30 
 10863              	.LASF449:
 10864 0f1b 43795F47 		.ascii	"Cy_GPIO_ClearInterrupt\000"
 10864      50494F5F 
 10864      436C6561 
 10864      72496E74 
 10864      65727275 
 10865              	.LASF331:
 10866 0f32 736C6176 		.ascii	"slaveStatus\000"
 10866      65537461 
 10866      74757300 
 10867              	.LASF255:
 10868 0f3e 70726F74 		.ascii	"protBusMasterMask\000"
 10868      4275734D 
 10868      61737465 
 10868      724D6173 
 10868      6B00
 10869              	.LASF361:
 10870 0f50 72785269 		.ascii	"rxRingBufHead\000"
 10870      6E674275 
 10870      66486561 
 10870      6400
 10871              	.LASF268:
 10872 0f5e 64774368 		.ascii	"dwChSize\000"
 10872      53697A65 
 10872      00
 10873              	.LASF493:
 10874 0f67 48525F6D 		.ascii	"HR_min_alarm\000"
 10874      696E5F61 
 10874      6C61726D 
 10874      00
 10875              	.LASF144:
 10876 0f74 7564625F 		.ascii	"udb_interrupts_12_IRQn\000"
 10876      696E7465 
 10876      72727570 
 10876      74735F31 
 10876      325F4952 
 10877              	.LASF113:
ARM GAS  C:\Users\Mathieu\AppData\Local\Temp\ccqdbTbw.s 			page 278


 10878 0f8b 74637077 		.ascii	"tcpwm_1_interrupts_5_IRQn\000"
 10878      6D5F315F 
 10878      696E7465 
 10878      72727570 
 10878      74735F35 
 10879              	.LASF44:
 10880 0fa5 63707573 		.ascii	"cpuss_interrupts_ipc_9_IRQn\000"
 10880      735F696E 
 10880      74657272 
 10880      75707473 
 10880      5F697063 
 10881              	.LASF512:
 10882 0fc1 73707269 		.ascii	"sprintf\000"
 10882      6E746600 
 10883              	.LASF415:
 10884 0fc9 74475549 		.ascii	"tGUI_GetLineLen\000"
 10884      5F476574 
 10884      4C696E65 
 10884      4C656E00 
 10885              	.LASF365:
 10886 0fd9 63795F73 		.ascii	"cy_stc_tcpwm_counter_config\000"
 10886      74635F74 
 10886      6370776D 
 10886      5F636F75 
 10886      6E746572 
 10887              	.LASF482:
 10888 0ff5 4755495F 		.ascii	"GUI_Font13_1\000"
 10888      466F6E74 
 10888      31335F31 
 10888      00
 10889              	.LASF250:
 10890 1002 736D6966 		.ascii	"smifDeviceNr\000"
 10890      44657669 
 10890      63654E72 
 10890      00
 10891              	.LASF53:
 10892 100f 7363625F 		.ascii	"scb_2_interrupt_IRQn\000"
 10892      325F696E 
 10892      74657272 
 10892      7570745F 
 10892      4952516E 
 10893              	.LASF38:
 10894 1024 63707573 		.ascii	"cpuss_interrupts_ipc_3_IRQn\000"
 10894      735F696E 
 10894      74657272 
 10894      75707473 
 10894      5F697063 
 10895              	.LASF85:
 10896 1040 63707573 		.ascii	"cpuss_interrupts_dw1_9_IRQn\000"
 10896      735F696E 
 10896      74657272 
 10896      75707473 
 10896      5F647731 
 10897              	.LASF21:
 10898 105c 696F7373 		.ascii	"ioss_interrupts_gpio_11_IRQn\000"
 10898      5F696E74 
 10898      65727275 
ARM GAS  C:\Users\Mathieu\AppData\Local\Temp\ccqdbTbw.s 			page 279


 10898      7074735F 
 10898      6770696F 
 10899              	.LASF282:
 10900 1079 70657269 		.ascii	"periDiv16CtlOffset\000"
 10900      44697631 
 10900      3643746C 
 10900      4F666673 
 10900      657400
 10901              	.LASF70:
 10902 108c 63707573 		.ascii	"cpuss_interrupts_dw0_10_IRQn\000"
 10902      735F696E 
 10902      74657272 
 10902      75707473 
 10902      5F647730 
 10903              	.LASF297:
 10904 10a9 63707573 		.ascii	"cpussSysTickCtlOffset\000"
 10904      73537973 
 10904      5469636B 
 10904      43746C4F 
 10904      66667365 
 10905              	.LASF374:
 10906 10bf 696E7465 		.ascii	"interruptSources\000"
 10906      72727570 
 10906      74536F75 
 10906      72636573 
 10906      00
 10907              	.LASF4:
 10908 10d0 42757346 		.ascii	"BusFault_IRQn\000"
 10908      61756C74 
 10908      5F495251 
 10908      6E00
 10909              	.LASF334:
 10910 10de 736C6176 		.ascii	"slaveTxBufferSize\000"
 10910      65547842 
 10910      75666665 
 10910      7253697A 
 10910      6500
 10911              	.LASF278:
 10912 10f0 70657269 		.ascii	"periDivCmdTypeSelPos\000"
 10912      44697643 
 10912      6D645479 
 10912      70655365 
 10912      6C506F73 
 10913              	.LASF90:
 10914 1105 63707573 		.ascii	"cpuss_interrupts_dw1_14_IRQn\000"
 10914      735F696E 
 10914      74657272 
 10914      75707473 
 10914      5F647731 
 10915              	.LASF220:
 10916 1122 63707573 		.ascii	"cpussBase\000"
 10916      73426173 
 10916      6500
 10917              	.LASF224:
 10918 112c 70726F74 		.ascii	"protBase\000"
 10918      42617365 
 10918      00
ARM GAS  C:\Users\Mathieu\AppData\Local\Temp\ccqdbTbw.s 			page 280


 10919              	.LASF236:
 10920 1135 69706356 		.ascii	"ipcVersion\000"
 10920      65727369 
 10920      6F6E00
 10921              	.LASF63:
 10922 1140 63707573 		.ascii	"cpuss_interrupts_dw0_3_IRQn\000"
 10922      735F696E 
 10922      74657272 
 10922      75707473 
 10922      5F647730 
 10923              	.LASF168:
 10924 115c 5F5F7569 		.ascii	"__uint32_t\000"
 10924      6E743332 
 10924      5F7400
 10925              	.LASF426:
 10926 1167 70664765 		.ascii	"pfGetCharInfo\000"
 10926      74436861 
 10926      72496E66 
 10926      6F00
 10927              	.LASF251:
 10928 1175 70617373 		.ascii	"passSarChannels\000"
 10928      53617243 
 10928      68616E6E 
 10928      656C7300 
 10929              	.LASF105:
 10930 1185 74637077 		.ascii	"tcpwm_0_interrupts_5_IRQn\000"
 10930      6D5F305F 
 10930      696E7465 
 10930      72727570 
 10930      74735F35 
 10931              	.LASF486:
 10932 119f 464C4147 		.ascii	"FLAG_RED\000"
 10932      5F524544 
 10932      00
 10933              	.LASF13:
 10934 11a8 696F7373 		.ascii	"ioss_interrupts_gpio_3_IRQn\000"
 10934      5F696E74 
 10934      65727275 
 10934      7074735F 
 10934      6770696F 
 10935              	.LASF127:
 10936 11c4 74637077 		.ascii	"tcpwm_1_interrupts_19_IRQn\000"
 10936      6D5F315F 
 10936      696E7465 
 10936      72727570 
 10936      74735F31 
 10937              	.LASF201:
 10938 11df 4346475F 		.ascii	"CFG_OUT\000"
 10938      4F555400 
 10939              	.LASF330:
 10940 11e7 6D617374 		.ascii	"masterNumBytes\000"
 10940      65724E75 
 10940      6D427974 
 10940      657300
 10941              	.LASF306:
 10942 11f6 63795F73 		.ascii	"cy_stc_device_t\000"
 10942      74635F64 
ARM GAS  C:\Users\Mathieu\AppData\Local\Temp\ccqdbTbw.s 			page 281


 10942      65766963 
 10942      655F7400 
 10943              	.LASF8:
 10944 1206 50656E64 		.ascii	"PendSV_IRQn\000"
 10944      53565F49 
 10944      52516E00 
 10945              	.LASF69:
 10946 1212 63707573 		.ascii	"cpuss_interrupts_dw0_9_IRQn\000"
 10946      735F696E 
 10946      74657272 
 10946      75707473 
 10946      5F647730 
 10947              	.LASF143:
 10948 122e 7564625F 		.ascii	"udb_interrupts_11_IRQn\000"
 10948      696E7465 
 10948      72727570 
 10948      74735F31 
 10948      315F4952 
 10949              	.LASF112:
 10950 1245 74637077 		.ascii	"tcpwm_1_interrupts_4_IRQn\000"
 10950      6D5F315F 
 10950      696E7465 
 10950      72727570 
 10950      74735F34 
 10951              	.LASF480:
 10952 125f 4D41585F 		.ascii	"MAX_I2C_context\000"
 10952      4932435F 
 10952      636F6E74 
 10952      65787400 
 10953              	.LASF310:
 10954 126f 646F7562 		.ascii	"double\000"
 10954      6C6500
 10955              	.LASF6:
 10956 1276 53564361 		.ascii	"SVCall_IRQn\000"
 10956      6C6C5F49 
 10956      52516E00 
 10957              	.LASF231:
 10958 1282 63727970 		.ascii	"cryptoVersion\000"
 10958      746F5665 
 10958      7273696F 
 10958      6E00
 10959              	.LASF517:
 10960 1290 43617053 		.ascii	"CapSense_GetCentroidPos\000"
 10960      656E7365 
 10960      5F476574 
 10960      43656E74 
 10960      726F6964 
 10961              	.LASF381:
 10962 12a8 73746F70 		.ascii	"stopInputMode\000"
 10962      496E7075 
 10962      744D6F64 
 10962      6500
 10963              	.LASF442:
 10964 12b6 43595F45 		.ascii	"CY_EINK_PARTIAL\000"
 10964      494E4B5F 
 10964      50415254 
 10964      49414C00 
ARM GAS  C:\Users\Mathieu\AppData\Local\Temp\ccqdbTbw.s 			page 282


 10965              	.LASF257:
 10966 12c6 666C6173 		.ascii	"flashRwwRequired\000"
 10966      68527777 
 10966      52657175 
 10966      69726564 
 10966      00
 10967              	.LASF265:
 10968 12d7 666C6173 		.ascii	"flashCtlMainWs3Freq\000"
 10968      6843746C 
 10968      4D61696E 
 10968      57733346 
 10968      72657100 
 10969              	.LASF131:
 10970 12eb 74637077 		.ascii	"tcpwm_1_interrupts_23_IRQn\000"
 10970      6D5F315F 
 10970      696E7465 
 10970      72727570 
 10970      74735F32 
 10971              	.LASF84:
 10972 1306 63707573 		.ascii	"cpuss_interrupts_dw1_8_IRQn\000"
 10972      735F696E 
 10972      74657272 
 10972      75707473 
 10972      5F647731 
 10973              	.LASF349:
 10974 1322 72784275 		.ascii	"rxBufIdx\000"
 10974      66496478 
 10974      00
 10975              	.LASF283:
 10976 132b 70657269 		.ascii	"periDiv16_5CtlOffset\000"
 10976      44697631 
 10976      365F3543 
 10976      746C4F66 
 10976      66736574 
 10977              	.LASF513:
 10978 1340 43617053 		.ascii	"CapSense_ScanAllWidgets\000"
 10978      656E7365 
 10978      5F536361 
 10978      6E416C6C 
 10978      57696467 
 10979              	.LASF474:
 10980 1358 49544D5F 		.ascii	"ITM_RxBuffer\000"
 10980      52784275 
 10980      66666572 
 10980      00
 10981              	.LASF503:
 10982 1365 4755495F 		.ascii	"GUI_SetColor\000"
 10982      53657443 
 10982      6F6C6F72 
 10982      00
 10983              	.LASF120:
 10984 1372 74637077 		.ascii	"tcpwm_1_interrupts_12_IRQn\000"
 10984      6D5F315F 
 10984      696E7465 
 10984      72727570 
 10984      74735F31 
 10985              	.LASF309:
ARM GAS  C:\Users\Mathieu\AppData\Local\Temp\ccqdbTbw.s 			page 283


 10986 138d 666C6F61 		.ascii	"float\000"
 10986      7400
 10987              	.LASF239:
 10988 1393 63707573 		.ascii	"cpussIpcNr\000"
 10988      73497063 
 10988      4E7200
 10989              	.LASF62:
 10990 139e 63707573 		.ascii	"cpuss_interrupts_dw0_2_IRQn\000"
 10990      735F696E 
 10990      74657272 
 10990      75707473 
 10990      5F647730 
 10991              	.LASF137:
 10992 13ba 7564625F 		.ascii	"udb_interrupts_5_IRQn\000"
 10992      696E7465 
 10992      72727570 
 10992      74735F35 
 10992      5F495251 
 10993              	.LASF172:
 10994 13d0 756E7369 		.ascii	"unsigned int\000"
 10994      676E6564 
 10994      20696E74 
 10994      00
 10995              	.LASF45:
 10996 13dd 63707573 		.ascii	"cpuss_interrupts_ipc_10_IRQn\000"
 10996      735F696E 
 10996      74657272 
 10996      75707473 
 10996      5F697063 
 10997              	.LASF487:
 10998 13fa 464C4147 		.ascii	"FLAG_option\000"
 10998      5F6F7074 
 10998      696F6E00 
 10999              	.LASF519:
 11000 1406 474E5520 		.ascii	"GNU C11 5.4.1 20160609 (release) [ARM/embedded-5-br"
 11000      43313120 
 11000      352E342E 
 11000      31203230 
 11000      31363036 
 11001 1439 616E6368 		.ascii	"anch revision 237715] -mcpu=cortex-m4 -mfloat-abi=s"
 11001      20726576 
 11001      6973696F 
 11001      6E203233 
 11001      37373135 
 11002 146c 6F667466 		.ascii	"oftfp -mfpu=fpv4-sp-d16 -mthumb -g -Og -ffunction-s"
 11002      70202D6D 
 11002      6670753D 
 11002      66707634 
 11002      2D73702D 
 11003 149f 65637469 		.ascii	"ections -ffat-lto-objects\000"
 11003      6F6E7320 
 11003      2D666661 
 11003      742D6C74 
 11003      6F2D6F62 
 11004              	.LASF401:
 11005 14b9 46697273 		.ascii	"First\000"
 11005      7400
ARM GAS  C:\Users\Mathieu\AppData\Local\Temp\ccqdbTbw.s 			page 284


 11006              	.LASF77:
 11007 14bf 63707573 		.ascii	"cpuss_interrupts_dw1_1_IRQn\000"
 11007      735F696E 
 11007      74657272 
 11007      75707473 
 11007      5F647731 
 11008              	.LASF373:
 11009 14db 656E6162 		.ascii	"enableCompareSwap\000"
 11009      6C65436F 
 11009      6D706172 
 11009      65537761 
 11009      7000
 11010              	.LASF414:
 11011 14ed 74475549 		.ascii	"tGUI_GetLineDistX\000"
 11011      5F476574 
 11011      4C696E65 
 11011      44697374 
 11011      5800
 11012              	.LASF285:
 11013 14ff 6770696F 		.ascii	"gpioPrtIntrCfgOffset\000"
 11013      50727449 
 11013      6E747243 
 11013      66674F66 
 11013      66736574 
 11014              	.LASF302:
 11015 1514 63707573 		.ascii	"cpussRam1Ctl0\000"
 11015      7352616D 
 11015      3143746C 
 11015      3000
 11016              	.LASF384:
 11017 1522 636F756E 		.ascii	"countInput\000"
 11017      74496E70 
 11017      757400
 11018              	.LASF130:
 11019 152d 74637077 		.ascii	"tcpwm_1_interrupts_22_IRQn\000"
 11019      6D5F315F 
 11019      696E7465 
 11019      72727570 
 11019      74735F32 
 11020              	.LASF505:
 11021 1548 4755495F 		.ascii	"GUI_Clear\000"
 11021      436C6561 
 11021      7200
 11022              	.LASF408:
 11023 1552 4755495F 		.ascii	"GUI_FONT_MONO\000"
 11023      464F4E54 
 11023      5F4D4F4E 
 11023      4F00
 11024              	.LASF389:
 11025 1560 704C6973 		.ascii	"pList\000"
 11025      7400
 11026              	.LASF148:
 11027 1566 70617373 		.ascii	"pass_interrupt_sar_IRQn\000"
 11027      5F696E74 
 11027      65727275 
 11027      70745F73 
 11027      61725F49 
ARM GAS  C:\Users\Mathieu\AppData\Local\Temp\ccqdbTbw.s 			page 285


 11028              	.LASF18:
 11029 157e 696F7373 		.ascii	"ioss_interrupts_gpio_8_IRQn\000"
 11029      5F696E74 
 11029      65727275 
 11029      7074735F 
 11029      6770696F 
 11030              	.LASF416:
 11031 159a 74474C5F 		.ascii	"tGL_DispLine\000"
 11031      44697370 
 11031      4C696E65 
 11031      00
 11032              	.LASF25:
 11033 15a7 696F7373 		.ascii	"ioss_interrupt_gpio_IRQn\000"
 11033      5F696E74 
 11033      65727275 
 11033      70745F67 
 11033      70696F5F 
 11034              	.LASF369:
 11035 15c0 636F756E 		.ascii	"countDirection\000"
 11035      74446972 
 11035      65637469 
 11035      6F6E00
 11036              	.LASF338:
 11037 15cf 736C6176 		.ascii	"slaveRxBufferSize\000"
 11037      65527842 
 11037      75666665 
 11037      7253697A 
 11037      6500
 11038              	.LASF445:
 11039 15e1 63795F65 		.ascii	"cy_eink_update_t\000"
 11039      696E6B5F 
 11039      75706461 
 11039      74655F74 
 11039      00
 11040              	.LASF147:
 11041 15f2 7564625F 		.ascii	"udb_interrupts_15_IRQn\000"
 11041      696E7465 
 11041      72727570 
 11041      74735F31 
 11041      355F4952 
 11042              	.LASF319:
 11043 1609 63795F63 		.ascii	"cy_cb_scb_i2c_handle_events_t\000"
 11043      625F7363 
 11043      625F6932 
 11043      635F6861 
 11043      6E646C65 
 11044              	.LASF194:
 11045 1627 4F55545F 		.ascii	"OUT_INV\000"
 11045      494E5600 
 11046              	.LASF116:
 11047 162f 74637077 		.ascii	"tcpwm_1_interrupts_8_IRQn\000"
 11047      6D5F315F 
 11047      696E7465 
 11047      72727570 
 11047      74735F38 
 11048              	.LASF272:
 11049 1649 64775374 		.ascii	"dwStatusChIdxMsk\000"
ARM GAS  C:\Users\Mathieu\AppData\Local\Temp\ccqdbTbw.s 			page 286


 11049      61747573 
 11049      43684964 
 11049      784D736B 
 11049      00
 11050              	.LASF360:
 11051 165a 72785269 		.ascii	"rxRingBufSize\000"
 11051      6E674275 
 11051      6653697A 
 11051      6500
 11052              	.LASF261:
 11053 1668 666C6173 		.ascii	"flashEraseDelay\000"
 11053      68457261 
 11053      73654465 
 11053      6C617900 
 11054              	.LASF55:
 11055 1678 7363625F 		.ascii	"scb_4_interrupt_IRQn\000"
 11055      345F696E 
 11055      74657272 
 11055      7570745F 
 11055      4952516E 
 11056              	.LASF212:
 11057 168d 5644445F 		.ascii	"VDD_INTR\000"
 11057      494E5452 
 11057      00
 11058              	.LASF521:
 11059 1696 433A5C55 		.ascii	"C:\\Users\\Mathieu\\OneDrive\\Documents\\Repos_Proj"
 11059      73657273 
 11059      5C4D6174 
 11059      68696575 
 11059      5C4F6E65 
 11060 16c4 6574325C 		.ascii	"et2\\WorkspaceProjet2Eq1\\Projet2Eq1.cydsn\000"
 11060      576F726B 
 11060      73706163 
 11060      6550726F 
 11060      6A657432 
 11061              	.LASF24:
 11062 16ed 696F7373 		.ascii	"ioss_interrupts_gpio_14_IRQn\000"
 11062      5F696E74 
 11062      65727275 
 11062      7074735F 
 11062      6770696F 
 11063              	.LASF73:
 11064 170a 63707573 		.ascii	"cpuss_interrupts_dw0_13_IRQn\000"
 11064      735F696E 
 11064      74657272 
 11064      75707473 
 11064      5F647730 
 11065              	.LASF219:
 11066 1727 6C6F6E67 		.ascii	"long double\000"
 11066      20646F75 
 11066      626C6500 
 11067              	.LASF440:
 11068 1733 70765F65 		.ascii	"pv_eink_frame_data_t\000"
 11068      696E6B5F 
 11068      6672616D 
 11068      655F6461 
 11068      74615F74 
ARM GAS  C:\Users\Mathieu\AppData\Local\Temp\ccqdbTbw.s 			page 287


 11069              	.LASF30:
 11070 1748 73727373 		.ascii	"srss_interrupt_mcwdt_1_IRQn\000"
 11070      5F696E74 
 11070      65727275 
 11070      70745F6D 
 11070      63776474 
 11071              	.LASF198:
 11072 1764 494E5452 		.ascii	"INTR_SET\000"
 11072      5F534554 
 11072      00
 11073              	.LASF473:
 11074 176d 6973725F 		.ascii	"isr_SW2\000"
 11074      53573200 
 11075              	.LASF355:
 11076 1775 63795F63 		.ascii	"cy_cb_scb_uart_handle_events_t\000"
 11076      625F7363 
 11076      625F7561 
 11076      72745F68 
 11076      616E646C 
 11077              	.LASF66:
 11078 1794 63707573 		.ascii	"cpuss_interrupts_dw0_6_IRQn\000"
 11078      735F696E 
 11078      74657272 
 11078      75707473 
 11078      5F647730 
 11079              	.LASF363:
 11080 17b0 74784C65 		.ascii	"txLeftToTransmit\000"
 11080      6674546F 
 11080      5472616E 
 11080      736D6974 
 11080      00
 11081              	.LASF197:
 11082 17c1 494E5452 		.ascii	"INTR_MASKED\000"
 11082      5F4D4153 
 11082      4B454400 
 11083              	.LASF109:
 11084 17cd 74637077 		.ascii	"tcpwm_1_interrupts_1_IRQn\000"
 11084      6D5F315F 
 11084      696E7465 
 11084      72727570 
 11084      74735F31 
 11085              	.LASF40:
 11086 17e7 63707573 		.ascii	"cpuss_interrupts_ipc_5_IRQn\000"
 11086      735F696E 
 11086      74657272 
 11086      75707473 
 11086      5F697063 
 11087              	.LASF16:
 11088 1803 696F7373 		.ascii	"ioss_interrupts_gpio_6_IRQn\000"
 11088      5F696E74 
 11088      65727275 
 11088      7074735F 
 11088      6770696F 
 11089              	.LASF150:
 11090 181f 61756469 		.ascii	"audioss_interrupt_pdm_IRQn\000"
 11090      6F73735F 
 11090      696E7465 
ARM GAS  C:\Users\Mathieu\AppData\Local\Temp\ccqdbTbw.s 			page 288


 11090      72727570 
 11090      745F7064 
 11091              	.LASF280:
 11092 183a 70657269 		.ascii	"periDivCmdPaTypeSelPos\000"
 11092      44697643 
 11092      6D645061 
 11092      54797065 
 11092      53656C50 
 11093              	.LASF495:
 11094 1851 53504F32 		.ascii	"SPO2_min_alarm\000"
 11094      5F6D696E 
 11094      5F616C61 
 11094      726D00
 11095              	.LASF218:
 11096 1860 4750494F 		.ascii	"GPIO_Type\000"
 11096      5F547970 
 11096      6500
 11097              	.LASF413:
 11098 186a 4755495F 		.ascii	"GUI_FONTINFO\000"
 11098      464F4E54 
 11098      494E464F 
 11098      00
 11099              	.LASF299:
 11100 1877 63707573 		.ascii	"cpussCm4NmiCtlOffset\000"
 11100      73436D34 
 11100      4E6D6943 
 11100      746C4F66 
 11100      66736574 
 11101              	.LASF34:
 11102 188c 626C6573 		.ascii	"bless_interrupt_IRQn\000"
 11102      735F696E 
 11102      74657272 
 11102      7570745F 
 11102      4952516E 
 11103              	.LASF298:
 11104 18a1 63707573 		.ascii	"cpussCm0NmiCtlOffset\000"
 11104      73436D30 
 11104      4E6D6943 
 11104      746C4F66 
 11104      66736574 
 11105              	.LASF191:
 11106 18b6 4E564943 		.ascii	"NVIC_Type\000"
 11106      5F547970 
 11106      6500
 11107              	.LASF485:
 11108 18c0 4755495F 		.ascii	"GUI_Font20B_1\000"
 11108      466F6E74 
 11108      3230425F 
 11108      3100
 11109              	.LASF264:
 11110 18ce 666C6173 		.ascii	"flashCtlMainWs2Freq\000"
 11110      6843746C 
 11110      4D61696E 
 11110      57733246 
 11110      72657100 
 11111              	.LASF146:
 11112 18e2 7564625F 		.ascii	"udb_interrupts_14_IRQn\000"
ARM GAS  C:\Users\Mathieu\AppData\Local\Temp\ccqdbTbw.s 			page 289


 11112      696E7465 
 11112      72727570 
 11112      74735F31 
 11112      345F4952 
 11113              	.LASF115:
 11114 18f9 74637077 		.ascii	"tcpwm_1_interrupts_7_IRQn\000"
 11114      6D5F315F 
 11114      696E7465 
 11114      72727570 
 11114      74735F37 
 11115              	.LASF322:
 11116 1913 75736554 		.ascii	"useTxFifo\000"
 11116      78466966 
 11116      6F00
 11117              	.LASF307:
 11118 191d 63686172 		.ascii	"char_t\000"
 11118      5F7400
 11119              	.LASF171:
 11120 1924 6C6F6E67 		.ascii	"long long unsigned int\000"
 11120      206C6F6E 
 11120      6720756E 
 11120      7369676E 
 11120      65642069 
 11121              	.LASF199:
 11122 193b 494E5452 		.ascii	"INTR_CFG\000"
 11122      5F434647 
 11122      00
 11123              	.LASF86:
 11124 1944 63707573 		.ascii	"cpuss_interrupts_dw1_10_IRQn\000"
 11124      735F696E 
 11124      74657272 
 11124      75707473 
 11124      5F647731 
 11125              	.LASF460:
 11126 1961 64726177 		.ascii	"drawWaiting\000"
 11126      57616974 
 11126      696E6700 
 11127              	.LASF175:
 11128 196d 75696E74 		.ascii	"uint16_t\000"
 11128      31365F74 
 11128      00
 11129              	.LASF153:
 11130 1976 7573625F 		.ascii	"usb_interrupt_hi_IRQn\000"
 11130      696E7465 
 11130      72727570 
 11130      745F6869 
 11130      5F495251 
 11131              	.LASF206:
 11132 198c 4750494F 		.ascii	"GPIO_PRT_V1_Type\000"
 11132      5F505254 
 11132      5F56315F 
 11132      54797065 
 11132      00
 11133              	.LASF72:
 11134 199d 63707573 		.ascii	"cpuss_interrupts_dw0_12_IRQn\000"
 11134      735F696E 
 11134      74657272 
ARM GAS  C:\Users\Mathieu\AppData\Local\Temp\ccqdbTbw.s 			page 290


 11134      75707473 
 11134      5F647730 
 11135              	.LASF0:
 11136 19ba 52657365 		.ascii	"Reset_IRQn\000"
 11136      745F4952 
 11136      516E00
 11137              	.LASF123:
 11138 19c5 74637077 		.ascii	"tcpwm_1_interrupts_15_IRQn\000"
 11138      6D5F315F 
 11138      696E7465 
 11138      72727570 
 11138      74735F31 
 11139              	.LASF81:
 11140 19e0 63707573 		.ascii	"cpuss_interrupts_dw1_5_IRQn\000"
 11140      735F696E 
 11140      74657272 
 11140      75707473 
 11140      5F647731 
 11141              	.LASF431:
 11142 19fc 4755495F 		.ascii	"GUI_DISPCHAR\000"
 11142      44495350 
 11142      43484152 
 11142      00
 11143              	.LASF52:
 11144 1a09 7363625F 		.ascii	"scb_1_interrupt_IRQn\000"
 11144      315F696E 
 11144      74657272 
 11144      7570745F 
 11144      4952516E 
 11145              	.LASF65:
 11146 1a1e 63707573 		.ascii	"cpuss_interrupts_dw0_5_IRQn\000"
 11146      735F696E 
 11146      74657272 
 11146      75707473 
 11146      5F647730 
 11147              	.LASF350:
 11148 1a3a 74784275 		.ascii	"txBuf\000"
 11148      6600
 11149              	.LASF490:
 11150 1a40 53504F32 		.ascii	"SPO2\000"
 11150      00
 11151              	.LASF108:
 11152 1a45 74637077 		.ascii	"tcpwm_1_interrupts_0_IRQn\000"
 11152      6D5F315F 
 11152      696E7465 
 11152      72727570 
 11152      74735F30 
 11153              	.LASF140:
 11154 1a5f 7564625F 		.ascii	"udb_interrupts_8_IRQn\000"
 11154      696E7465 
 11154      72727570 
 11154      74735F38 
 11154      5F495251 
 11155              	.LASF48:
 11156 1a75 63707573 		.ascii	"cpuss_interrupts_ipc_13_IRQn\000"
 11156      735F696E 
 11156      74657272 
ARM GAS  C:\Users\Mathieu\AppData\Local\Temp\ccqdbTbw.s 			page 291


 11156      75707473 
 11156      5F697063 
 11157              	.LASF176:
 11158 1a92 696E7433 		.ascii	"int32_t\000"
 11158      325F7400 
 11159              	.LASF215:
 11160 1a9a 5644445F 		.ascii	"VDD_INTR_SET\000"
 11160      494E5452 
 11160      5F534554 
 11160      00
 11161              	.LASF241:
 11162 1aa7 63707573 		.ascii	"cpussDwChNr\000"
 11162      73447743 
 11162      684E7200 
 11163              	.LASF407:
 11164 1ab3 70547261 		.ascii	"pTrans\000"
 11164      6E7300
 11165              	.LASF180:
 11166 1aba 49434552 		.ascii	"ICER\000"
 11166      00
 11167              	.LASF301:
 11168 1abf 63707573 		.ascii	"cpussRam0Ctl0\000"
 11168      7352616D 
 11168      3043746C 
 11168      3000
 11169              	.LASF366:
 11170 1acd 70657269 		.ascii	"period\000"
 11170      6F6400
 11171              	.LASF80:
 11172 1ad4 63707573 		.ascii	"cpuss_interrupts_dw1_4_IRQn\000"
 11172      735F696E 
 11172      74657272 
 11172      75707473 
 11172      5F647731 
 11173              	.LASF92:
 11174 1af0 63707573 		.ascii	"cpuss_interrupts_fault_0_IRQn\000"
 11174      735F696E 
 11174      74657272 
 11174      75707473 
 11174      5F666175 
 11175              	.LASF400:
 11176 1b0e 4755495F 		.ascii	"GUI_FONT_PROP\000"
 11176      464F4E54 
 11176      5F50524F 
 11176      5000
 11177              	.LASF163:
 11178 1b1c 5F5F696E 		.ascii	"__int16_t\000"
 11178      7431365F 
 11178      7400
 11179              	.LASF470:
 11180 1b26 53504F32 		.ascii	"SPO2_min_alarm_str\000"
 11180      5F6D696E 
 11180      5F616C61 
 11180      726D5F73 
 11180      747200
 11181              	.LASF454:
 11182 1b39 706F7765 		.ascii	"powerCycle\000"
ARM GAS  C:\Users\Mathieu\AppData\Local\Temp\ccqdbTbw.s 			page 292


 11182      72437963 
 11182      6C6500
 11183              	.LASF103:
 11184 1b44 74637077 		.ascii	"tcpwm_0_interrupts_3_IRQn\000"
 11184      6D5F305F 
 11184      696E7465 
 11184      72727570 
 11184      74735F33 
 11185              	.LASF419:
 11186 1b5e 70664469 		.ascii	"pfDispLine\000"
 11186      73704C69 
 11186      6E6500
 11187              	.LASF94:
 11188 1b69 63707573 		.ascii	"cpuss_interrupt_crypto_IRQn\000"
 11188      735F696E 
 11188      74657272 
 11188      7570745F 
 11188      63727970 
 11189              	.LASF435:
 11190 1b85 4755495F 		.ascii	"GUI_GETCHARINFO\000"
 11190      47455443 
 11190      48415249 
 11190      4E464F00 
 11191              	.LASF511:
 11192 1b95 4755495F 		.ascii	"GUI_FillRect\000"
 11192      46696C6C 
 11192      52656374 
 11192      00
 11193              	.LASF277:
 11194 1ba2 70657269 		.ascii	"periDivCmdDivSelMsk\000"
 11194      44697643 
 11194      6D644469 
 11194      7653656C 
 11194      4D736B00 
 11195              	.LASF51:
 11196 1bb6 7363625F 		.ascii	"scb_0_interrupt_IRQn\000"
 11196      305F696E 
 11196      74657272 
 11196      7570745F 
 11196      4952516E 
 11197              	.LASF232:
 11198 1bcb 64775665 		.ascii	"dwVersion\000"
 11198      7273696F 
 11198      6E00
 11199              	.LASF202:
 11200 1bd5 4346475F 		.ascii	"CFG_SIO\000"
 11200      53494F00 
 11201              	.LASF430:
 11202 1bdd 594D6167 		.ascii	"YMag\000"
 11202      00
 11203              	.LASF149:
 11204 1be2 61756469 		.ascii	"audioss_interrupt_i2s_IRQn\000"
 11204      6F73735F 
 11204      696E7465 
 11204      72727570 
 11204      745F6932 
 11205              	.LASF226:
ARM GAS  C:\Users\Mathieu\AppData\Local\Temp\ccqdbTbw.s 			page 293


 11206 1bfd 6770696F 		.ascii	"gpioBase\000"
 11206      42617365 
 11206      00
 11207              	.LASF100:
 11208 1c06 74637077 		.ascii	"tcpwm_0_interrupts_0_IRQn\000"
 11208      6D5F305F 
 11208      696E7465 
 11208      72727570 
 11208      74735F30 
 11209              	.LASF133:
 11210 1c20 7564625F 		.ascii	"udb_interrupts_1_IRQn\000"
 11210      696E7465 
 11210      72727570 
 11210      74735F31 
 11210      5F495251 
 11211              	.LASF313:
 11212 1c36 696E7472 		.ascii	"intrPriority\000"
 11212      5072696F 
 11212      72697479 
 11212      00
 11213              	.LASF254:
 11214 1c43 73797350 		.ascii	"sysPmSimoPresent\000"
 11214      6D53696D 
 11214      6F507265 
 11214      73656E74 
 11214      00
 11215              	.LASF502:
 11216 1c54 43795F45 		.ascii	"Cy_EINK_ShowFrame\000"
 11216      494E4B5F 
 11216      53686F77 
 11216      4672616D 
 11216      6500
 11217              	.LASF166:
 11218 1c66 5F5F696E 		.ascii	"__int32_t\000"
 11218      7433325F 
 11218      7400
 11219              	.LASF418:
 11220 1c70 70664765 		.ascii	"pfGetLineLen\000"
 11220      744C696E 
 11220      654C656E 
 11220      00
 11221              	.LASF491:
 11222 1c7d 43757272 		.ascii	"Current_LED1\000"
 11222      656E745F 
 11222      4C454431 
 11222      00
 11223              	.LASF492:
 11224 1c8a 43757272 		.ascii	"Current_LED2\000"
 11224      656E745F 
 11224      4C454432 
 11224      00
 11225              	.LASF475:
 11226 1c97 63795F64 		.ascii	"cy_device\000"
 11226      65766963 
 11226      6500
 11227              	.LASF217:
 11228 1ca1 4750494F 		.ascii	"GPIO_PRT_Type\000"
ARM GAS  C:\Users\Mathieu\AppData\Local\Temp\ccqdbTbw.s 			page 294


 11228      5F505254 
 11228      5F547970 
 11228      6500
 11229              	.LASF7:
 11230 1caf 44656275 		.ascii	"DebugMonitor_IRQn\000"
 11230      674D6F6E 
 11230      69746F72 
 11230      5F495251 
 11230      6E00
 11231              	.LASF379:
 11232 1cc1 73746172 		.ascii	"startInputMode\000"
 11232      74496E70 
 11232      75744D6F 
 11232      646500
 11233              	.LASF358:
 11234 1cd0 72785374 		.ascii	"rxStatus\000"
 11234      61747573 
 11234      00
 11235              	.LASF412:
 11236 1cd9 43486569 		.ascii	"CHeight\000"
 11236      67687400 
 11237              	.LASF327:
 11238 1ce1 6D617374 		.ascii	"masterBuffer\000"
 11238      65724275 
 11238      66666572 
 11238      00
 11239              	.LASF341:
 11240 1cee 63624164 		.ascii	"cbAddr\000"
 11240      647200
 11241              	.LASF47:
 11242 1cf5 63707573 		.ascii	"cpuss_interrupts_ipc_12_IRQn\000"
 11242      735F696E 
 11242      74657272 
 11242      75707473 
 11242      5F697063 
 11243              	.LASF57:
 11244 1d12 7363625F 		.ascii	"scb_6_interrupt_IRQn\000"
 11244      365F696E 
 11244      74657272 
 11244      7570745F 
 11244      4952516E 
 11245              	.LASF498:
 11246 1d27 49525F64 		.ascii	"IR_data\000"
 11246      61746100 
 11247              	.LASF311:
 11248 1d2f 75696E74 		.ascii	"uint8\000"
 11248      3800
 11249              	.LASF238:
 11250 1d35 70726F74 		.ascii	"protVersion\000"
 11250      56657273 
 11250      696F6E00 
 11251              	.LASF353:
 11252 1d41 696E6974 		.ascii	"initKey\000"
 11252      4B657900 
 11253              	.LASF237:
 11254 1d49 70657269 		.ascii	"periVersion\000"
 11254      56657273 
ARM GAS  C:\Users\Mathieu\AppData\Local\Temp\ccqdbTbw.s 			page 295


 11254      696F6E00 
 11255              	.LASF354:
 11256 1d55 63795F73 		.ascii	"cy_stc_scb_spi_context_t\000"
 11256      74635F73 
 11256      63625F73 
 11256      70695F63 
 11256      6F6E7465 
 11257              	.LASF158:
 11258 1d6e 73686F72 		.ascii	"short int\000"
 11258      7420696E 
 11258      7400
 11259              	.LASF420:
 11260 1d78 74475549 		.ascii	"tGUI_ENC_APIList\000"
 11260      5F454E43 
 11260      5F415049 
 11260      4C697374 
 11260      00
 11261              	.LASF96:
 11262 1d89 63707573 		.ascii	"cpuss_interrupts_cm0_cti_0_IRQn\000"
 11262      735F696E 
 11262      74657272 
 11262      75707473 
 11262      5F636D30 
 11263              	.LASF27:
 11264 1da9 6C70636F 		.ascii	"lpcomp_interrupt_IRQn\000"
 11264      6D705F69 
 11264      6E746572 
 11264      72757074 
 11264      5F495251 
 11265              	.LASF33:
 11266 1dbf 70617373 		.ascii	"pass_interrupt_ctbs_IRQn\000"
 11266      5F696E74 
 11266      65727275 
 11266      70745F63 
 11266      7462735F 
 11267              	.LASF468:
 11268 1dd8 48525F6D 		.ascii	"HR_max_alarm_str\000"
 11268      61785F61 
 11268      6C61726D 
 11268      5F737472 
 11268      00
 11269              	.LASF421:
 11270 1de9 4755495F 		.ascii	"GUI_FONT\000"
 11270      464F4E54 
 11270      00
 11271              	.LASF402:
 11272 1df2 4C617374 		.ascii	"Last\000"
 11272      00
 11273              	.LASF174:
 11274 1df7 696E7431 		.ascii	"int16_t\000"
 11274      365F7400 
 11275              	.LASF28:
 11276 1dff 7363625F 		.ascii	"scb_8_interrupt_IRQn\000"
 11276      385F696E 
 11276      74657272 
 11276      7570745F 
 11276      4952516E 
ARM GAS  C:\Users\Mathieu\AppData\Local\Temp\ccqdbTbw.s 			page 296


 11277              	.LASF488:
 11278 1e14 464C4147 		.ascii	"FLAG_menu\000"
 11278      5F6D656E 
 11278      7500
 11279              	.LASF43:
 11280 1e1e 63707573 		.ascii	"cpuss_interrupts_ipc_8_IRQn\000"
 11280      735F696E 
 11280      74657272 
 11280      75707473 
 11280      5F697063 
 11281              	.LASF263:
 11282 1e3a 666C6173 		.ascii	"flashCtlMainWs1Freq\000"
 11282      6843746C 
 11282      4D61696E 
 11282      57733146 
 11282      72657100 
 11283              	.LASF19:
 11284 1e4e 696F7373 		.ascii	"ioss_interrupts_gpio_9_IRQn\000"
 11284      5F696E74 
 11284      65727275 
 11284      7074735F 
 11284      6770696F 
 11285              	.LASF459:
 11286 1e6a 70456D77 		.ascii	"pEmwinBuffer\000"
 11286      696E4275 
 11286      66666572 
 11286      00
 11287              	.LASF99:
 11288 1e77 63707573 		.ascii	"cpuss_interrupts_cm4_cti_1_IRQn\000"
 11288      735F696E 
 11288      74657272 
 11288      75707473 
 11288      5F636D34 
 11289              	.LASF441:
 11290 1e97 63795F65 		.ascii	"cy_eink_frame_t\000"
 11290      696E6B5F 
 11290      6672616D 
 11290      655F7400 
 11291              	.LASF329:
 11292 1ea7 6D617374 		.ascii	"masterBufferIdx\000"
 11292      65724275 
 11292      66666572 
 11292      49647800 
 11293              	.LASF439:
 11294 1eb7 7050726F 		.ascii	"pPropExt\000"
 11294      70457874 
 11294      00
 11295              	.LASF20:
 11296 1ec0 696F7373 		.ascii	"ioss_interrupts_gpio_10_IRQn\000"
 11296      5F696E74 
 11296      65727275 
 11296      7074735F 
 11296      6770696F 
 11297              	.LASF494:
 11298 1edd 48525F6D 		.ascii	"HR_max_alarm\000"
 11298      61785F61 
 11298      6C61726D 
ARM GAS  C:\Users\Mathieu\AppData\Local\Temp\ccqdbTbw.s 			page 297


 11298      00
 11299              	.LASF324:
 11300 1eea 6D617374 		.ascii	"masterStatus\000"
 11300      65725374 
 11300      61747573 
 11300      00
 11301              	.LASF260:
 11302 1ef7 666C6173 		.ascii	"flashProgramDelay\000"
 11302      6850726F 
 11302      6772616D 
 11302      44656C61 
 11302      7900
 11303              	.LASF452:
 11304 1f09 70696E4E 		.ascii	"pinNum\000"
 11304      756D00
 11305              	.LASF211:
 11306 1f10 5644445F 		.ascii	"VDD_ACTIVE\000"
 11306      41435449 
 11306      564500
 11307              	.LASF385:
 11308 1f1b 63795F73 		.ascii	"cy_stc_tcpwm_counter_config_t\000"
 11308      74635F74 
 11308      6370776D 
 11308      5F636F75 
 11308      6E746572 
 11309              	.LASF343:
 11310 1f39 63795F63 		.ascii	"cy_cb_scb_spi_handle_events_t\000"
 11310      625F7363 
 11310      625F7370 
 11310      695F6861 
 11310      6E646C65 
 11311              	.LASF469:
 11312 1f57 48525F6D 		.ascii	"HR_min_alarm_str\000"
 11312      696E5F61 
 11312      6C61726D 
 11312      5F737472 
 11312      00
 11313              	.LASF234:
 11314 1f68 6770696F 		.ascii	"gpioVersion\000"
 11314      56657273 
 11314      696F6E00 
 11315              	.LASF289:
 11316 1f74 6770696F 		.ascii	"gpioPrtCfgSioOffset\000"
 11316      50727443 
 11316      66675369 
 11316      6F4F6666 
 11316      73657400 
 11317              	.LASF516:
 11318 1f88 43617053 		.ascii	"CapSense_IsWidgetActive\000"
 11318      656E7365 
 11318      5F497357 
 11318      69646765 
 11318      74416374 
 11319              	.LASF436:
 11320 1fa0 70466F6E 		.ascii	"pFontData\000"
 11320      74446174 
 11320      6100
ARM GAS  C:\Users\Mathieu\AppData\Local\Temp\ccqdbTbw.s 			page 298


 11321              	.LASF75:
 11322 1faa 63707573 		.ascii	"cpuss_interrupts_dw0_15_IRQn\000"
 11322      735F696E 
 11322      74657272 
 11322      75707473 
 11322      5F647730 
 11323              	.LASF36:
 11324 1fc7 63707573 		.ascii	"cpuss_interrupts_ipc_1_IRQn\000"
 11324      735F696E 
 11324      74657272 
 11324      75707473 
 11324      5F697063 
 11325              	.LASF104:
 11326 1fe3 74637077 		.ascii	"tcpwm_0_interrupts_4_IRQn\000"
 11326      6D5F305F 
 11326      696E7465 
 11326      72727570 
 11326      74735F34 
 11327              	.LASF522:
 11328 1ffd 6D656D63 		.ascii	"memcpy\000"
 11328      707900
 11329              	.LASF12:
 11330 2004 696F7373 		.ascii	"ioss_interrupts_gpio_2_IRQn\000"
 11330      5F696E74 
 11330      65727275 
 11330      7074735F 
 11330      6770696F 
 11331              	.LASF423:
 11332 2020 70664765 		.ascii	"pfGetCharDistX\000"
 11332      74436861 
 11332      72446973 
 11332      745800
 11333              	.LASF410:
 11334 202f 42617365 		.ascii	"Baseline\000"
 11334      6C696E65 
 11334      00
 11335              	.LASF126:
 11336 2038 74637077 		.ascii	"tcpwm_1_interrupts_18_IRQn\000"
 11336      6D5F315F 
 11336      696E7465 
 11336      72727570 
 11336      74735F31 
 11337              	.LASF507:
 11338 2053 4755495F 		.ascii	"GUI_SetFont\000"
 11338      53657446 
 11338      6F6E7400 
 11339              	.LASF54:
 11340 205f 7363625F 		.ascii	"scb_3_interrupt_IRQn\000"
 11340      335F696E 
 11340      74657272 
 11340      7570745F 
 11340      4952516E 
 11341              	.LASF68:
 11342 2074 63707573 		.ascii	"cpuss_interrupts_dw0_8_IRQn\000"
 11342      735F696E 
 11342      74657272 
 11342      75707473 
ARM GAS  C:\Users\Mathieu\AppData\Local\Temp\ccqdbTbw.s 			page 299


 11342      5F647730 
 11343              	.LASF142:
 11344 2090 7564625F 		.ascii	"udb_interrupts_10_IRQn\000"
 11344      696E7465 
 11344      72727570 
 11344      74735F31 
 11344      305F4952 
 11345              	.LASF26:
 11346 20a7 696F7373 		.ascii	"ioss_interrupt_vdd_IRQn\000"
 11346      5F696E74 
 11346      65727275 
 11346      70745F76 
 11346      64645F49 
 11347              	.LASF111:
 11348 20bf 74637077 		.ascii	"tcpwm_1_interrupts_3_IRQn\000"
 11348      6D5F315F 
 11348      696E7465 
 11348      72727570 
 11348      74735F33 
 11349              	.LASF370:
 11350 20d9 636F6D70 		.ascii	"compareOrCapture\000"
 11350      6172654F 
 11350      72436170 
 11350      74757265 
 11350      00
 11351              	.LASF333:
 11352 20ea 736C6176 		.ascii	"slaveTxBuffer\000"
 11352      65547842 
 11352      75666665 
 11352      7200
 11353              	.LASF170:
 11354 20f8 6C6F6E67 		.ascii	"long long int\000"
 11354      206C6F6E 
 11354      6720696E 
 11354      7400
 11355              	.LASF177:
 11356 2106 75696E74 		.ascii	"uint32_t\000"
 11356      33325F74 
 11356      00
 11357              	.LASF479:
 11358 210f 55415254 		.ascii	"UART_context\000"
 11358      5F636F6E 
 11358      74657874 
 11358      00
 11359              	.LASF325:
 11360 211c 6D617374 		.ascii	"masterPause\000"
 11360      65725061 
 11360      75736500 
 11361              	.LASF83:
 11362 2128 63707573 		.ascii	"cpuss_interrupts_dw1_7_IRQn\000"
 11362      735F696E 
 11362      74657272 
 11362      75707473 
 11362      5F647731 
 11363              	.LASF326:
 11364 2144 6D617374 		.ascii	"masterRdDir\000"
 11364      65725264 
ARM GAS  C:\Users\Mathieu\AppData\Local\Temp\ccqdbTbw.s 			page 300


 11364      44697200 
 11365              	.LASF484:
 11366 2150 4755495F 		.ascii	"GUI_Font16B_1\000"
 11366      466F6E74 
 11366      3136425F 
 11366      3100
 11367              	.LASF396:
 11368 215e 5953697A 		.ascii	"YSize\000"
 11368      6500
 11369              	.LASF317:
 11370 2164 43595F53 		.ascii	"CY_SCB_I2C_NAK\000"
 11370      43425F49 
 11370      32435F4E 
 11370      414B00
 11371              	.LASF269:
 11372 2173 64774368 		.ascii	"dwChCtlPrioPos\000"
 11372      43746C50 
 11372      72696F50 
 11372      6F7300
 11373              	.LASF228:
 11374 2182 69706342 		.ascii	"ipcBase\000"
 11374      61736500 
 11375              	.LASF88:
 11376 218a 63707573 		.ascii	"cpuss_interrupts_dw1_12_IRQn\000"
 11376      735F696E 
 11376      74657272 
 11376      75707473 
 11376      5F647731 
 11377              	.LASF508:
 11378 21a7 4755495F 		.ascii	"GUI_SetPenSize\000"
 11378      53657450 
 11378      656E5369 
 11378      7A6500
 11379              	.LASF382:
 11380 21b6 73746F70 		.ascii	"stopInput\000"
 11380      496E7075 
 11380      7400
 11381              	.LASF165:
 11382 21c0 73686F72 		.ascii	"short unsigned int\000"
 11382      7420756E 
 11382      7369676E 
 11382      65642069 
 11382      6E7400
 11383              	.LASF406:
 11384 21d3 70547261 		.ascii	"pTransData\000"
 11384      6E734461 
 11384      746100
 11385              	.LASF61:
 11386 21de 63707573 		.ascii	"cpuss_interrupts_dw0_1_IRQn\000"
 11386      735F696E 
 11386      74657272 
 11386      75707473 
 11386      5F647730 
 11387              	.LASF451:
 11388 21fa 62617365 		.ascii	"base\000"
 11388      00
 11389              	.LASF339:
ARM GAS  C:\Users\Mathieu\AppData\Local\Temp\ccqdbTbw.s 			page 301


 11390 21ff 736C6176 		.ascii	"slaveRxBufferIdx\000"
 11390      65527842 
 11390      75666665 
 11390      72496478 
 11390      00
 11391              	.LASF478:
 11392 2210 43595F45 		.ascii	"CY_EINK_Timer_config\000"
 11392      494E4B5F 
 11392      54696D65 
 11392      725F636F 
 11392      6E666967 
 11393              	.LASF259:
 11394 2225 666C6173 		.ascii	"flashWriteDelay\000"
 11394      68577269 
 11394      74654465 
 11394      6C617900 
 11395              	.LASF35:
 11396 2235 63707573 		.ascii	"cpuss_interrupts_ipc_0_IRQn\000"
 11396      735F696E 
 11396      74657272 
 11396      75707473 
 11396      5F697063 
 11397              	.LASF240:
 11398 2251 63707573 		.ascii	"cpussIpcIrqNr\000"
 11398      73497063 
 11398      4972714E 
 11398      7200
 11399              	.LASF136:
 11400 225f 7564625F 		.ascii	"udb_interrupts_4_IRQn\000"
 11400      696E7465 
 11400      72727570 
 11400      74735F34 
 11400      5F495251 
 11401              	.LASF11:
 11402 2275 696F7373 		.ascii	"ioss_interrupts_gpio_1_IRQn\000"
 11402      5F696E74 
 11402      65727275 
 11402      7074735F 
 11402      6770696F 
 11403              	.LASF304:
 11404 2291 69706353 		.ascii	"ipcStructSize\000"
 11404      74727563 
 11404      7453697A 
 11404      6500
 11405              	.LASF467:
 11406 229f 736C6964 		.ascii	"slider_pos\000"
 11406      65725F70 
 11406      6F7300
 11407              	.LASF273:
 11408 22aa 70657269 		.ascii	"periTrCmdOffset\000"
 11408      5472436D 
 11408      644F6666 
 11408      73657400 
 11409              	.LASF393:
 11410 22ba 42797465 		.ascii	"BytesPerLine\000"
 11410      73506572 
 11410      4C696E65 
ARM GAS  C:\Users\Mathieu\AppData\Local\Temp\ccqdbTbw.s 			page 302


 11410      00
 11411              	.LASF98:
 11412 22c7 63707573 		.ascii	"cpuss_interrupts_cm4_cti_0_IRQn\000"
 11412      735F696E 
 11412      74657272 
 11412      75707473 
 11412      5F636D34 
 11413              	.LASF76:
 11414 22e7 63707573 		.ascii	"cpuss_interrupts_dw1_0_IRQn\000"
 11414      735F696E 
 11414      74657272 
 11414      75707473 
 11414      5F647731 
 11415              	.LASF378:
 11416 2303 72656C6F 		.ascii	"reloadInput\000"
 11416      6164496E 
 11416      70757400 
 11417              	.LASF178:
 11418 230f 49534552 		.ascii	"ISER\000"
 11418      00
 11419              	.LASF50:
 11420 2314 63707573 		.ascii	"cpuss_interrupts_ipc_15_IRQn\000"
 11420      735F696E 
 11420      74657272 
 11420      75707473 
 11420      5F697063 
 11421              	.LASF362:
 11422 2331 72785269 		.ascii	"rxRingBufTail\000"
 11422      6E674275 
 11422      66546169 
 11422      6C00
 11423              	.LASF31:
 11424 233f 73727373 		.ascii	"srss_interrupt_backup_IRQn\000"
 11424      5F696E74 
 11424      65727275 
 11424      70745F62 
 11424      61636B75 
 11425              	.LASF394:
 11426 235a 70446174 		.ascii	"pData\000"
 11426      6100
 11427              	.LASF2:
 11428 2360 48617264 		.ascii	"HardFault_IRQn\000"
 11428      4661756C 
 11428      745F4952 
 11428      516E00
 11429              	.LASF129:
 11430 236f 74637077 		.ascii	"tcpwm_1_interrupts_21_IRQn\000"
 11430      6D5F315F 
 11430      696E7465 
 11430      72727570 
 11430      74735F32 
 11431              	.LASF359:
 11432 238a 72785269 		.ascii	"rxRingBuf\000"
 11432      6E674275 
 11432      6600
 11433              	.LASF344:
 11434 2394 63795F73 		.ascii	"cy_stc_scb_i2c_context\000"
ARM GAS  C:\Users\Mathieu\AppData\Local\Temp\ccqdbTbw.s 			page 303


 11434      74635F73 
 11434      63625F69 
 11434      32635F63 
 11434      6F6E7465 
 11435              	.LASF380:
 11436 23ab 73746172 		.ascii	"startInput\000"
 11436      74496E70 
 11436      757400
 11437              	.LASF262:
 11438 23b6 666C6173 		.ascii	"flashCtlMainWs0Freq\000"
 11438      6843746C 
 11438      4D61696E 
 11438      57733046 
 11438      72657100 
 11439              	.LASF235:
 11440 23ca 6873696F 		.ascii	"hsiomVersion\000"
 11440      6D566572 
 11440      73696F6E 
 11440      00
 11441              	.LASF320:
 11442 23d7 63795F63 		.ascii	"cy_cb_scb_i2c_handle_addr_t\000"
 11442      625F7363 
 11442      625F6932 
 11442      635F6861 
 11442      6E646C65 
 11443              	.LASF267:
 11444 23f3 64774368 		.ascii	"dwChOffset\000"
 11444      4F666673 
 11444      657400
 11445              	.LASF518:
 11446 23fe 43795F53 		.ascii	"Cy_SysLib_Delay\000"
 11446      79734C69 
 11446      625F4465 
 11446      6C617900 
 11447              		.ident	"GCC: (GNU Tools for ARM Embedded Processors) 5.4.1 20160609 (release) [ARM/embedded-5-bran
