ARM GAS  C:\Users\Ariane\AppData\Local\Temp\ccDPLWWh.s 			page 1


   1              		.syntax unified
   2              		.cpu cortex-m4
   3              		.eabi_attribute 27, 1
   4              		.fpu fpv4-sp-d16
   5              		.eabi_attribute 20, 1
   6              		.eabi_attribute 21, 1
   7              		.eabi_attribute 23, 3
   8              		.eabi_attribute 24, 1
   9              		.eabi_attribute 25, 1
  10              		.eabi_attribute 26, 1
  11              		.eabi_attribute 30, 1
  12              		.eabi_attribute 34, 1
  13              		.eabi_attribute 18, 4
  14              		.thumb
  15              		.syntax unified
  16              		.file	"main_cm4.c"
  17              		.text
  18              	.Ltext0:
  19              		.cfi_sections	.debug_frame
  20              		.section	.text.UpdateDisplay,"ax",%progbits
  21              		.align	2
  22              		.global	UpdateDisplay
  23              		.thumb
  24              		.thumb_func
  25              		.type	UpdateDisplay, %function
  26              	UpdateDisplay:
  27              	.LFB590:
  28              		.file 1 "main_cm4.c"
   1:main_cm4.c    **** /******************************************************************************
   2:main_cm4.c    **** * File Name: main_cm4.c
   3:main_cm4.c    **** *
   4:main_cm4.c    **** * Version: 1.2
   5:main_cm4.c    **** *
   6:main_cm4.c    **** * Description: This file main application code for the CE223727 EmWin Graphics
   7:main_cm4.c    **** *				library EInk Display 
   8:main_cm4.c    **** 
   9:main_cm4.c    **** ********************************************************************************
  10:main_cm4.c    **** *************MODIFIED by Christophe Cloutier-Tremblay.**************************
  11:main_cm4.c    **** ********************************************************************************
  12:main_cm4.c    **** * 
  13:main_cm4.c    **** *
  14:main_cm4.c    **** * Hardware Dependency: CY8CKIT-028-EPD E-Ink Display Shield
  15:main_cm4.c    **** *					   CY8CKIT-062-BLE PSoC6 BLE Pioneer Kit
  16:main_cm4.c    **** *
  17:main_cm4.c    **** ******************************************************************************* 
  18:main_cm4.c    **** * Copyright (2019), Cypress Semiconductor Corporation. All rights reserved. 
  19:main_cm4.c    **** ******************************************************************************* 
  20:main_cm4.c    **** * This software, including source code, documentation and related materials 
  21:main_cm4.c    **** * (“Software”), is owned by Cypress Semiconductor Corporation or one of its 
  22:main_cm4.c    **** * subsidiaries (“Cypress”) and is protected by and subject to worldwide patent 
  23:main_cm4.c    **** * protection (United States and foreign), United States copyright laws and 
  24:main_cm4.c    **** * international treaty provisions. Therefore, you may use this Software only 
  25:main_cm4.c    **** * as provided in the license agreement accompanying the software package from 
  26:main_cm4.c    **** * which you obtained this Software (“EULA”). 
  27:main_cm4.c    **** * 
  28:main_cm4.c    **** * If no EULA applies, Cypress hereby grants you a personal, non-exclusive, 
  29:main_cm4.c    **** * non-transferable license to copy, modify, and compile the Software source 
ARM GAS  C:\Users\Ariane\AppData\Local\Temp\ccDPLWWh.s 			page 2


  30:main_cm4.c    **** * code solely for use in connection with Cypress’s integrated circuit products. 
  31:main_cm4.c    **** * Any reproduction, modification, translation, compilation, or representation 
  32:main_cm4.c    **** * of this Software except as specified above is prohibited without the express 
  33:main_cm4.c    **** * written permission of Cypress. 
  34:main_cm4.c    **** * 
  35:main_cm4.c    **** * Disclaimer: THIS SOFTWARE IS PROVIDED AS-IS, WITH NO WARRANTY OF ANY KIND, 
  36:main_cm4.c    **** * EXPRESS OR IMPLIED, INCLUDING, BUT NOT LIMITED TO, NONINFRINGEMENT, IMPLIED 
  37:main_cm4.c    **** * WARRANTIES OF MERCHANTABILITY AND FITNESS FOR A PARTICULAR PURPOSE. Cypress 
  38:main_cm4.c    **** * reserves the right to make changes to the Software without notice. Cypress 
  39:main_cm4.c    **** * does not assume any liability arising out of the application or use of the 
  40:main_cm4.c    **** * Software or any product or circuit described in the Software. Cypress does 
  41:main_cm4.c    **** * not authorize its products for use in any products where a malfunction or 
  42:main_cm4.c    **** * failure of the Cypress product may reasonably be expected to result in 
  43:main_cm4.c    **** * significant property damage, injury or death (“High Risk Product”). By 
  44:main_cm4.c    **** * including Cypress’s product in a High Risk Product, the manufacturer of such 
  45:main_cm4.c    **** * system or application assumes all risk of such use and in doing so agrees to 
  46:main_cm4.c    **** * indemnify Cypress against all liability.
  47:main_cm4.c    **** ********************************************************************************/
  48:main_cm4.c    **** 
  49:main_cm4.c    **** #include "project.h"
  50:main_cm4.c    **** #include "GUI.h"
  51:main_cm4.c    **** #include "pervasive_eink_hardware_driver.h"
  52:main_cm4.c    **** #include "cy_eink_library.h"
  53:main_cm4.c    **** 
  54:main_cm4.c    **** #include "traitement.h"
  55:main_cm4.c    **** 
  56:main_cm4.c    **** 
  57:main_cm4.c    **** // Variables globales
  58:main_cm4.c    **** bool processBufferFlag = true;
  59:main_cm4.c    **** 
  60:main_cm4.c    **** //vecteur sinus de 150 élément entre -1 et 1
  61:main_cm4.c    **** float vectorSinus[]={0.099833,0.29552,0.47943,0.64422,0.78333,0.89121,0.96356,0.99749,0.99166,0.946
  62:main_cm4.c    **** 
  63:main_cm4.c    **** /* Image buffer cache */
  64:main_cm4.c    **** uint8 imageBufferCache[CY_EINK_FRAME_SIZE] = {0};
  65:main_cm4.c    **** 
  66:main_cm4.c    **** /*******************************************************************************
  67:main_cm4.c    **** * Function Name: void UpdateDisplay(void)
  68:main_cm4.c    **** ********************************************************************************
  69:main_cm4.c    **** *
  70:main_cm4.c    **** * Summary: This function updates the display with the data in the display 
  71:main_cm4.c    **** *			buffer.  The function first transfers the content of the EmWin
  72:main_cm4.c    **** *			display buffer to the primary EInk display buffer.  Then it calls
  73:main_cm4.c    **** *			the Cy_EINK_ShowFrame function to update the display, and then
  74:main_cm4.c    **** *			it copies the EmWin display buffer to the Eink display cache buffer
  75:main_cm4.c    **** *
  76:main_cm4.c    **** * Parameters:
  77:main_cm4.c    **** *  None
  78:main_cm4.c    **** *
  79:main_cm4.c    **** * Return:
  80:main_cm4.c    **** *  None
  81:main_cm4.c    **** *
  82:main_cm4.c    **** * Side Effects:
  83:main_cm4.c    **** *  It takes about a second to refresh the display.  This is a blocking function
  84:main_cm4.c    **** *  and only returns after the display refresh
  85:main_cm4.c    **** *
  86:main_cm4.c    **** *******************************************************************************/
ARM GAS  C:\Users\Ariane\AppData\Local\Temp\ccDPLWWh.s 			page 3


  87:main_cm4.c    **** void UpdateDisplay(cy_eink_update_t updateMethod, bool powerCycle)
  88:main_cm4.c    **** {
  29              		.loc 1 88 0
  30              		.cfi_startproc
  31              		@ args = 0, pretend = 0, frame = 0
  32              		@ frame_needed = 0, uses_anonymous_args = 0
  33              	.LVL0:
  34 0000 F8B5     		push	{r3, r4, r5, r6, r7, lr}
  35              		.cfi_def_cfa_offset 24
  36              		.cfi_offset 3, -24
  37              		.cfi_offset 4, -20
  38              		.cfi_offset 5, -16
  39              		.cfi_offset 6, -12
  40              		.cfi_offset 7, -8
  41              		.cfi_offset 14, -4
  42 0002 0646     		mov	r6, r0
  43 0004 0F46     		mov	r7, r1
  89:main_cm4.c    ****     cy_eink_frame_t* pEmwinBuffer;
  90:main_cm4.c    **** 
  91:main_cm4.c    ****     /* Get the pointer to Emwin's display buffer */
  92:main_cm4.c    ****     pEmwinBuffer = (cy_eink_frame_t*)LCD_GetDisplayBuffer();
  44              		.loc 1 92 0
  45 0006 FFF7FEFF 		bl	LCD_GetDisplayBuffer
  46              	.LVL1:
  47 000a 0546     		mov	r5, r0
  48              	.LVL2:
  93:main_cm4.c    **** 
  94:main_cm4.c    ****     /* Update the EInk display */
  95:main_cm4.c    ****     Cy_EINK_ShowFrame(imageBufferCache, pEmwinBuffer, updateMethod, powerCycle);
  49              		.loc 1 95 0
  50 000c 064C     		ldr	r4, .L3
  51 000e 3B46     		mov	r3, r7
  52 0010 3246     		mov	r2, r6
  53 0012 0146     		mov	r1, r0
  54 0014 2046     		mov	r0, r4
  55              	.LVL3:
  56 0016 FFF7FEFF 		bl	Cy_EINK_ShowFrame
  57              	.LVL4:
  96:main_cm4.c    **** 
  97:main_cm4.c    ****     /* Copy the EmWin display buffer to the imageBuffer cache*/
  98:main_cm4.c    ****     memcpy(imageBufferCache, pEmwinBuffer, CY_EINK_FRAME_SIZE);
  58              		.loc 1 98 0
  59 001a 41F2B062 		movw	r2, #5808
  60 001e 2946     		mov	r1, r5
  61 0020 2046     		mov	r0, r4
  62 0022 FFF7FEFF 		bl	memcpy
  63              	.LVL5:
  64 0026 F8BD     		pop	{r3, r4, r5, r6, r7, pc}
  65              	.LVL6:
  66              	.L4:
  67              		.align	2
  68              	.L3:
  69 0028 00000000 		.word	.LANCHOR0
  70              		.cfi_endproc
  71              	.LFE590:
  72              		.size	UpdateDisplay, .-UpdateDisplay
  73              		.section	.text.ClearScreen,"ax",%progbits
ARM GAS  C:\Users\Ariane\AppData\Local\Temp\ccDPLWWh.s 			page 4


  74              		.align	2
  75              		.global	ClearScreen
  76              		.thumb
  77              		.thumb_func
  78              		.type	ClearScreen, %function
  79              	ClearScreen:
  80              	.LFB591:
  99:main_cm4.c    **** }
 100:main_cm4.c    **** 
 101:main_cm4.c    **** 
 102:main_cm4.c    **** /*******************************************************************************
 103:main_cm4.c    **** * Function Name: void ClearScreen(void)
 104:main_cm4.c    **** ********************************************************************************
 105:main_cm4.c    **** *
 106:main_cm4.c    **** * Summary: This function clears the screen
 107:main_cm4.c    **** *
 108:main_cm4.c    **** * Parameters:
 109:main_cm4.c    **** *  None
 110:main_cm4.c    **** *
 111:main_cm4.c    **** * Return:
 112:main_cm4.c    **** *  None
 113:main_cm4.c    **** *
 114:main_cm4.c    **** *******************************************************************************/
 115:main_cm4.c    **** void ClearScreen(void)
 116:main_cm4.c    **** {
  81              		.loc 1 116 0
  82              		.cfi_startproc
  83              		@ args = 0, pretend = 0, frame = 0
  84              		@ frame_needed = 0, uses_anonymous_args = 0
  85 0000 08B5     		push	{r3, lr}
  86              		.cfi_def_cfa_offset 8
  87              		.cfi_offset 3, -8
  88              		.cfi_offset 14, -4
 117:main_cm4.c    ****     GUI_SetColor(GUI_BLACK);
  89              		.loc 1 117 0
  90 0002 0020     		movs	r0, #0
  91 0004 FFF7FEFF 		bl	GUI_SetColor
  92              	.LVL7:
 118:main_cm4.c    ****     GUI_SetBkColor(GUI_WHITE);
  93              		.loc 1 118 0
  94 0008 6FF07F40 		mvn	r0, #-16777216
  95 000c FFF7FEFF 		bl	GUI_SetBkColor
  96              	.LVL8:
 119:main_cm4.c    ****     GUI_Clear();
  97              		.loc 1 119 0
  98 0010 FFF7FEFF 		bl	GUI_Clear
  99              	.LVL9:
 120:main_cm4.c    ****     UpdateDisplay(CY_EINK_FULL_4STAGE, true);
 100              		.loc 1 120 0
 101 0014 0121     		movs	r1, #1
 102 0016 0846     		mov	r0, r1
 103 0018 FFF7FEFF 		bl	UpdateDisplay
 104              	.LVL10:
 105 001c 08BD     		pop	{r3, pc}
 106              		.cfi_endproc
 107              	.LFE591:
 108              		.size	ClearScreen, .-ClearScreen
ARM GAS  C:\Users\Ariane\AppData\Local\Temp\ccDPLWWh.s 			page 5


 109 001e 00BF     		.section	.text.WaitforSwitchPressAndRelease,"ax",%progbits
 110              		.align	2
 111              		.global	WaitforSwitchPressAndRelease
 112              		.thumb
 113              		.thumb_func
 114              		.type	WaitforSwitchPressAndRelease, %function
 115              	WaitforSwitchPressAndRelease:
 116              	.LFB592:
 121:main_cm4.c    **** }
 122:main_cm4.c    **** /*******************************************************************************
 123:main_cm4.c    **** * Function Name: void WaitforSwitchPressAndRelease(void)
 124:main_cm4.c    **** ********************************************************************************
 125:main_cm4.c    **** *
 126:main_cm4.c    **** * Summary: This implements a simple "Wait for button press and release"
 127:main_cm4.c    **** *			function.  It first waits for the button to be pressed and then
 128:main_cm4.c    **** *			waits for the button to be released.
 129:main_cm4.c    **** *
 130:main_cm4.c    **** * Parameters:
 131:main_cm4.c    **** *  None
 132:main_cm4.c    **** *
 133:main_cm4.c    **** * Return:
 134:main_cm4.c    **** *  None
 135:main_cm4.c    **** *
 136:main_cm4.c    **** * Side Effects:
 137:main_cm4.c    **** *  This is a blocking function and exits only on a button press and release
 138:main_cm4.c    **** *
 139:main_cm4.c    **** *******************************************************************************/
 140:main_cm4.c    **** void WaitforSwitchPressAndRelease(void)
 141:main_cm4.c    **** {
 117              		.loc 1 141 0
 118              		.cfi_startproc
 119              		@ args = 0, pretend = 0, frame = 0
 120              		@ frame_needed = 0, uses_anonymous_args = 0
 121 0000 08B5     		push	{r3, lr}
 122              		.cfi_def_cfa_offset 8
 123              		.cfi_offset 3, -8
 124              		.cfi_offset 14, -4
 125              	.L8:
 142:main_cm4.c    ****     /* Wait for SW2 to be pressed */
 143:main_cm4.c    ****     while(Status_SW2_Read() != 0);
 126              		.loc 1 143 0 discriminator 1
 127 0002 FFF7FEFF 		bl	Status_SW2_Read
 128              	.LVL11:
 129 0006 0028     		cmp	r0, #0
 130 0008 FBD1     		bne	.L8
 131              	.L9:
 144:main_cm4.c    ****     
 145:main_cm4.c    ****     /* Wait for SW2 to be released */
 146:main_cm4.c    ****     while(Status_SW2_Read() == 0);
 132              		.loc 1 146 0 discriminator 1
 133 000a FFF7FEFF 		bl	Status_SW2_Read
 134              	.LVL12:
 135 000e 0028     		cmp	r0, #0
 136 0010 FBD0     		beq	.L9
 147:main_cm4.c    **** }
 137              		.loc 1 147 0
 138 0012 08BD     		pop	{r3, pc}
ARM GAS  C:\Users\Ariane\AppData\Local\Temp\ccDPLWWh.s 			page 6


 139              		.cfi_endproc
 140              	.LFE592:
 141              		.size	WaitforSwitchPressAndRelease, .-WaitforSwitchPressAndRelease
 142              		.section	.text.main,"ax",%progbits
 143              		.align	2
 144              		.global	main
 145              		.thumb
 146              		.thumb_func
 147              		.type	main, %function
 148              	main:
 149              	.LFB593:
 148:main_cm4.c    **** 
 149:main_cm4.c    **** 
 150:main_cm4.c    **** 
 151:main_cm4.c    **** /*******************************************************************************
 152:main_cm4.c    **** * Function Name: int main(void)
 153:main_cm4.c    **** ********************************************************************************
 154:main_cm4.c    **** *
 155:main_cm4.c    **** * Summary: À Remplir
 156:main_cm4.c    **** *
 157:main_cm4.c    **** * Parameters:
 158:main_cm4.c    **** *  None
 159:main_cm4.c    **** *
 160:main_cm4.c    **** * Return:
 161:main_cm4.c    **** *  None
 162:main_cm4.c    **** *
 163:main_cm4.c    **** *******************************************************************************/
 164:main_cm4.c    **** int main(void)
 165:main_cm4.c    **** {
 150              		.loc 1 165 0
 151              		.cfi_startproc
 152              		@ Volatile: function does not return.
 153              		@ args = 0, pretend = 0, frame = 0
 154              		@ frame_needed = 0, uses_anonymous_args = 0
 155 0000 08B5     		push	{r3, lr}
 156              		.cfi_def_cfa_offset 8
 157              		.cfi_offset 3, -8
 158              		.cfi_offset 14, -4
 159              	.LBB4:
 160              	.LBB5:
 161              		.file 2 ".\\CMSIS\\Core\\Include/cmsis_gcc.h"
   1:.\CMSIS\Core\Include/cmsis_gcc.h **** /**************************************************************************//**
   2:.\CMSIS\Core\Include/cmsis_gcc.h ****  * @file     cmsis_gcc.h
   3:.\CMSIS\Core\Include/cmsis_gcc.h ****  * @brief    CMSIS compiler GCC header file
   4:.\CMSIS\Core\Include/cmsis_gcc.h ****  * @version  V5.0.4
   5:.\CMSIS\Core\Include/cmsis_gcc.h ****  * @date     09. April 2018
   6:.\CMSIS\Core\Include/cmsis_gcc.h ****  ******************************************************************************/
   7:.\CMSIS\Core\Include/cmsis_gcc.h **** /*
   8:.\CMSIS\Core\Include/cmsis_gcc.h ****  * Copyright (c) 2009-2018 Arm Limited. All rights reserved.
   9:.\CMSIS\Core\Include/cmsis_gcc.h ****  *
  10:.\CMSIS\Core\Include/cmsis_gcc.h ****  * SPDX-License-Identifier: Apache-2.0
  11:.\CMSIS\Core\Include/cmsis_gcc.h ****  *
  12:.\CMSIS\Core\Include/cmsis_gcc.h ****  * Licensed under the Apache License, Version 2.0 (the License); you may
  13:.\CMSIS\Core\Include/cmsis_gcc.h ****  * not use this file except in compliance with the License.
  14:.\CMSIS\Core\Include/cmsis_gcc.h ****  * You may obtain a copy of the License at
  15:.\CMSIS\Core\Include/cmsis_gcc.h ****  *
  16:.\CMSIS\Core\Include/cmsis_gcc.h ****  * www.apache.org/licenses/LICENSE-2.0
ARM GAS  C:\Users\Ariane\AppData\Local\Temp\ccDPLWWh.s 			page 7


  17:.\CMSIS\Core\Include/cmsis_gcc.h ****  *
  18:.\CMSIS\Core\Include/cmsis_gcc.h ****  * Unless required by applicable law or agreed to in writing, software
  19:.\CMSIS\Core\Include/cmsis_gcc.h ****  * distributed under the License is distributed on an AS IS BASIS, WITHOUT
  20:.\CMSIS\Core\Include/cmsis_gcc.h ****  * WARRANTIES OR CONDITIONS OF ANY KIND, either express or implied.
  21:.\CMSIS\Core\Include/cmsis_gcc.h ****  * See the License for the specific language governing permissions and
  22:.\CMSIS\Core\Include/cmsis_gcc.h ****  * limitations under the License.
  23:.\CMSIS\Core\Include/cmsis_gcc.h ****  */
  24:.\CMSIS\Core\Include/cmsis_gcc.h **** 
  25:.\CMSIS\Core\Include/cmsis_gcc.h **** #ifndef __CMSIS_GCC_H
  26:.\CMSIS\Core\Include/cmsis_gcc.h **** #define __CMSIS_GCC_H
  27:.\CMSIS\Core\Include/cmsis_gcc.h **** 
  28:.\CMSIS\Core\Include/cmsis_gcc.h **** /* ignore some GCC warnings */
  29:.\CMSIS\Core\Include/cmsis_gcc.h **** #pragma GCC diagnostic push
  30:.\CMSIS\Core\Include/cmsis_gcc.h **** #pragma GCC diagnostic ignored "-Wsign-conversion"
  31:.\CMSIS\Core\Include/cmsis_gcc.h **** #pragma GCC diagnostic ignored "-Wconversion"
  32:.\CMSIS\Core\Include/cmsis_gcc.h **** #pragma GCC diagnostic ignored "-Wunused-parameter"
  33:.\CMSIS\Core\Include/cmsis_gcc.h **** 
  34:.\CMSIS\Core\Include/cmsis_gcc.h **** /* Fallback for __has_builtin */
  35:.\CMSIS\Core\Include/cmsis_gcc.h **** #ifndef __has_builtin
  36:.\CMSIS\Core\Include/cmsis_gcc.h ****   #define __has_builtin(x) (0)
  37:.\CMSIS\Core\Include/cmsis_gcc.h **** #endif
  38:.\CMSIS\Core\Include/cmsis_gcc.h **** 
  39:.\CMSIS\Core\Include/cmsis_gcc.h **** /* CMSIS compiler specific defines */
  40:.\CMSIS\Core\Include/cmsis_gcc.h **** #ifndef   __ASM
  41:.\CMSIS\Core\Include/cmsis_gcc.h ****   #define __ASM                                  __asm
  42:.\CMSIS\Core\Include/cmsis_gcc.h **** #endif
  43:.\CMSIS\Core\Include/cmsis_gcc.h **** #ifndef   __INLINE
  44:.\CMSIS\Core\Include/cmsis_gcc.h ****   #define __INLINE                               inline
  45:.\CMSIS\Core\Include/cmsis_gcc.h **** #endif
  46:.\CMSIS\Core\Include/cmsis_gcc.h **** #ifndef   __STATIC_INLINE
  47:.\CMSIS\Core\Include/cmsis_gcc.h ****   #define __STATIC_INLINE                        static inline
  48:.\CMSIS\Core\Include/cmsis_gcc.h **** #endif
  49:.\CMSIS\Core\Include/cmsis_gcc.h **** #ifndef   __STATIC_FORCEINLINE                 
  50:.\CMSIS\Core\Include/cmsis_gcc.h ****   #define __STATIC_FORCEINLINE                   __attribute__((always_inline)) static inline
  51:.\CMSIS\Core\Include/cmsis_gcc.h **** #endif                                           
  52:.\CMSIS\Core\Include/cmsis_gcc.h **** #ifndef   __NO_RETURN
  53:.\CMSIS\Core\Include/cmsis_gcc.h ****   #define __NO_RETURN                            __attribute__((__noreturn__))
  54:.\CMSIS\Core\Include/cmsis_gcc.h **** #endif
  55:.\CMSIS\Core\Include/cmsis_gcc.h **** #ifndef   __USED
  56:.\CMSIS\Core\Include/cmsis_gcc.h ****   #define __USED                                 __attribute__((used))
  57:.\CMSIS\Core\Include/cmsis_gcc.h **** #endif
  58:.\CMSIS\Core\Include/cmsis_gcc.h **** #ifndef   __WEAK
  59:.\CMSIS\Core\Include/cmsis_gcc.h ****   #define __WEAK                                 __attribute__((weak))
  60:.\CMSIS\Core\Include/cmsis_gcc.h **** #endif
  61:.\CMSIS\Core\Include/cmsis_gcc.h **** #ifndef   __PACKED
  62:.\CMSIS\Core\Include/cmsis_gcc.h ****   #define __PACKED                               __attribute__((packed, aligned(1)))
  63:.\CMSIS\Core\Include/cmsis_gcc.h **** #endif
  64:.\CMSIS\Core\Include/cmsis_gcc.h **** #ifndef   __PACKED_STRUCT
  65:.\CMSIS\Core\Include/cmsis_gcc.h ****   #define __PACKED_STRUCT                        struct __attribute__((packed, aligned(1)))
  66:.\CMSIS\Core\Include/cmsis_gcc.h **** #endif
  67:.\CMSIS\Core\Include/cmsis_gcc.h **** #ifndef   __PACKED_UNION
  68:.\CMSIS\Core\Include/cmsis_gcc.h ****   #define __PACKED_UNION                         union __attribute__((packed, aligned(1)))
  69:.\CMSIS\Core\Include/cmsis_gcc.h **** #endif
  70:.\CMSIS\Core\Include/cmsis_gcc.h **** #ifndef   __UNALIGNED_UINT32        /* deprecated */
  71:.\CMSIS\Core\Include/cmsis_gcc.h ****   #pragma GCC diagnostic push
  72:.\CMSIS\Core\Include/cmsis_gcc.h ****   #pragma GCC diagnostic ignored "-Wpacked"
  73:.\CMSIS\Core\Include/cmsis_gcc.h ****   #pragma GCC diagnostic ignored "-Wattributes"
ARM GAS  C:\Users\Ariane\AppData\Local\Temp\ccDPLWWh.s 			page 8


  74:.\CMSIS\Core\Include/cmsis_gcc.h ****   struct __attribute__((packed)) T_UINT32 { uint32_t v; };
  75:.\CMSIS\Core\Include/cmsis_gcc.h ****   #pragma GCC diagnostic pop
  76:.\CMSIS\Core\Include/cmsis_gcc.h ****   #define __UNALIGNED_UINT32(x)                  (((struct T_UINT32 *)(x))->v)
  77:.\CMSIS\Core\Include/cmsis_gcc.h **** #endif
  78:.\CMSIS\Core\Include/cmsis_gcc.h **** #ifndef   __UNALIGNED_UINT16_WRITE
  79:.\CMSIS\Core\Include/cmsis_gcc.h ****   #pragma GCC diagnostic push
  80:.\CMSIS\Core\Include/cmsis_gcc.h ****   #pragma GCC diagnostic ignored "-Wpacked"
  81:.\CMSIS\Core\Include/cmsis_gcc.h ****   #pragma GCC diagnostic ignored "-Wattributes"
  82:.\CMSIS\Core\Include/cmsis_gcc.h ****   __PACKED_STRUCT T_UINT16_WRITE { uint16_t v; };
  83:.\CMSIS\Core\Include/cmsis_gcc.h ****   #pragma GCC diagnostic pop
  84:.\CMSIS\Core\Include/cmsis_gcc.h ****   #define __UNALIGNED_UINT16_WRITE(addr, val)    (void)((((struct T_UINT16_WRITE *)(void *)(addr))-
  85:.\CMSIS\Core\Include/cmsis_gcc.h **** #endif
  86:.\CMSIS\Core\Include/cmsis_gcc.h **** #ifndef   __UNALIGNED_UINT16_READ
  87:.\CMSIS\Core\Include/cmsis_gcc.h ****   #pragma GCC diagnostic push
  88:.\CMSIS\Core\Include/cmsis_gcc.h ****   #pragma GCC diagnostic ignored "-Wpacked"
  89:.\CMSIS\Core\Include/cmsis_gcc.h ****   #pragma GCC diagnostic ignored "-Wattributes"
  90:.\CMSIS\Core\Include/cmsis_gcc.h ****   __PACKED_STRUCT T_UINT16_READ { uint16_t v; };
  91:.\CMSIS\Core\Include/cmsis_gcc.h ****   #pragma GCC diagnostic pop
  92:.\CMSIS\Core\Include/cmsis_gcc.h ****   #define __UNALIGNED_UINT16_READ(addr)          (((const struct T_UINT16_READ *)(const void *)(add
  93:.\CMSIS\Core\Include/cmsis_gcc.h **** #endif
  94:.\CMSIS\Core\Include/cmsis_gcc.h **** #ifndef   __UNALIGNED_UINT32_WRITE
  95:.\CMSIS\Core\Include/cmsis_gcc.h ****   #pragma GCC diagnostic push
  96:.\CMSIS\Core\Include/cmsis_gcc.h ****   #pragma GCC diagnostic ignored "-Wpacked"
  97:.\CMSIS\Core\Include/cmsis_gcc.h ****   #pragma GCC diagnostic ignored "-Wattributes"
  98:.\CMSIS\Core\Include/cmsis_gcc.h ****   __PACKED_STRUCT T_UINT32_WRITE { uint32_t v; };
  99:.\CMSIS\Core\Include/cmsis_gcc.h ****   #pragma GCC diagnostic pop
 100:.\CMSIS\Core\Include/cmsis_gcc.h ****   #define __UNALIGNED_UINT32_WRITE(addr, val)    (void)((((struct T_UINT32_WRITE *)(void *)(addr))-
 101:.\CMSIS\Core\Include/cmsis_gcc.h **** #endif
 102:.\CMSIS\Core\Include/cmsis_gcc.h **** #ifndef   __UNALIGNED_UINT32_READ
 103:.\CMSIS\Core\Include/cmsis_gcc.h ****   #pragma GCC diagnostic push
 104:.\CMSIS\Core\Include/cmsis_gcc.h ****   #pragma GCC diagnostic ignored "-Wpacked"
 105:.\CMSIS\Core\Include/cmsis_gcc.h ****   #pragma GCC diagnostic ignored "-Wattributes"
 106:.\CMSIS\Core\Include/cmsis_gcc.h ****   __PACKED_STRUCT T_UINT32_READ { uint32_t v; };
 107:.\CMSIS\Core\Include/cmsis_gcc.h ****   #pragma GCC diagnostic pop
 108:.\CMSIS\Core\Include/cmsis_gcc.h ****   #define __UNALIGNED_UINT32_READ(addr)          (((const struct T_UINT32_READ *)(const void *)(add
 109:.\CMSIS\Core\Include/cmsis_gcc.h **** #endif
 110:.\CMSIS\Core\Include/cmsis_gcc.h **** #ifndef   __ALIGNED
 111:.\CMSIS\Core\Include/cmsis_gcc.h ****   #define __ALIGNED(x)                           __attribute__((aligned(x)))
 112:.\CMSIS\Core\Include/cmsis_gcc.h **** #endif
 113:.\CMSIS\Core\Include/cmsis_gcc.h **** #ifndef   __RESTRICT
 114:.\CMSIS\Core\Include/cmsis_gcc.h ****   #define __RESTRICT                             __restrict
 115:.\CMSIS\Core\Include/cmsis_gcc.h **** #endif
 116:.\CMSIS\Core\Include/cmsis_gcc.h **** 
 117:.\CMSIS\Core\Include/cmsis_gcc.h **** 
 118:.\CMSIS\Core\Include/cmsis_gcc.h **** /* ###########################  Core Function Access  ########################### */
 119:.\CMSIS\Core\Include/cmsis_gcc.h **** /** \ingroup  CMSIS_Core_FunctionInterface
 120:.\CMSIS\Core\Include/cmsis_gcc.h ****     \defgroup CMSIS_Core_RegAccFunctions CMSIS Core Register Access Functions
 121:.\CMSIS\Core\Include/cmsis_gcc.h ****   @{
 122:.\CMSIS\Core\Include/cmsis_gcc.h ****  */
 123:.\CMSIS\Core\Include/cmsis_gcc.h **** 
 124:.\CMSIS\Core\Include/cmsis_gcc.h **** /**
 125:.\CMSIS\Core\Include/cmsis_gcc.h ****   \brief   Enable IRQ Interrupts
 126:.\CMSIS\Core\Include/cmsis_gcc.h ****   \details Enables IRQ interrupts by clearing the I-bit in the CPSR.
 127:.\CMSIS\Core\Include/cmsis_gcc.h ****            Can only be executed in Privileged modes.
 128:.\CMSIS\Core\Include/cmsis_gcc.h ****  */
 129:.\CMSIS\Core\Include/cmsis_gcc.h **** __STATIC_FORCEINLINE void __enable_irq(void)
 130:.\CMSIS\Core\Include/cmsis_gcc.h **** {
ARM GAS  C:\Users\Ariane\AppData\Local\Temp\ccDPLWWh.s 			page 9


 131:.\CMSIS\Core\Include/cmsis_gcc.h ****   __ASM volatile ("cpsie i" : : : "memory");
 162              		.loc 2 131 0
 163              		.syntax unified
 164              	@ 131 ".\CMSIS\Core\Include/cmsis_gcc.h" 1
 165 0002 62B6     		cpsie i
 166              	@ 0 "" 2
 167              		.thumb
 168              		.syntax unified
 169              	.LBE5:
 170              	.LBE4:
 166:main_cm4.c    ****     
 167:main_cm4.c    ****     __enable_irq(); /* Enable global interrupts. */
 168:main_cm4.c    ****     
 169:main_cm4.c    ****     /* Initialize emWin Graphics */
 170:main_cm4.c    ****     GUI_Init();
 171              		.loc 1 170 0
 172 0004 FFF7FEFF 		bl	GUI_Init
 173              	.LVL13:
 171:main_cm4.c    **** 
 172:main_cm4.c    ****     /* Start the eInk display interface and turn on the display power */
 173:main_cm4.c    ****     Cy_EINK_Start(20);
 174              		.loc 1 173 0
 175 0008 1420     		movs	r0, #20
 176 000a FFF7FEFF 		bl	Cy_EINK_Start
 177              	.LVL14:
 174:main_cm4.c    ****     Cy_EINK_Power(1);
 178              		.loc 1 174 0
 179 000e 0120     		movs	r0, #1
 180 0010 FFF7FEFF 		bl	Cy_EINK_Power
 181              	.LVL15:
 175:main_cm4.c    ****     
 176:main_cm4.c    ****     GUI_SetPenSize(1);
 182              		.loc 1 176 0
 183 0014 0120     		movs	r0, #1
 184 0016 FFF7FEFF 		bl	GUI_SetPenSize
 185              	.LVL16:
 177:main_cm4.c    ****     GUI_SetColor(GUI_BLACK);
 186              		.loc 1 177 0
 187 001a 0020     		movs	r0, #0
 188 001c FFF7FEFF 		bl	GUI_SetColor
 189              	.LVL17:
 178:main_cm4.c    ****     GUI_SetBkColor(GUI_WHITE);
 190              		.loc 1 178 0
 191 0020 6FF07F40 		mvn	r0, #-16777216
 192 0024 FFF7FEFF 		bl	GUI_SetBkColor
 193              	.LVL18:
 179:main_cm4.c    ****     GUI_Clear();
 194              		.loc 1 179 0
 195 0028 FFF7FEFF 		bl	GUI_Clear
 196              	.LVL19:
 180:main_cm4.c    ****     
 181:main_cm4.c    ****     //Draw a rectangle
 182:main_cm4.c    ****     GUI_DrawRect(1,1,263,175);
 197              		.loc 1 182 0
 198 002c AF23     		movs	r3, #175
 199 002e 40F20712 		movw	r2, #263
 200 0032 0121     		movs	r1, #1
ARM GAS  C:\Users\Ariane\AppData\Local\Temp\ccDPLWWh.s 			page 10


 201 0034 0846     		mov	r0, r1
 202 0036 FFF7FEFF 		bl	GUI_DrawRect
 203              	.LVL20:
 183:main_cm4.c    ****     
 184:main_cm4.c    ****     //Draw a line
 185:main_cm4.c    ****     GUI_SetPenSize(4);
 204              		.loc 1 185 0
 205 003a 0420     		movs	r0, #4
 206 003c FFF7FEFF 		bl	GUI_SetPenSize
 207              	.LVL21:
 186:main_cm4.c    ****     GUI_DrawLine(20,65,243,65);
 208              		.loc 1 186 0
 209 0040 4123     		movs	r3, #65
 210 0042 F322     		movs	r2, #243
 211 0044 1946     		mov	r1, r3
 212 0046 1420     		movs	r0, #20
 213 0048 FFF7FEFF 		bl	GUI_DrawLine
 214              	.LVL22:
 187:main_cm4.c    ****     
 188:main_cm4.c    ****     GUI_SetColor(GUI_BLACK);
 215              		.loc 1 188 0
 216 004c 0020     		movs	r0, #0
 217 004e FFF7FEFF 		bl	GUI_SetColor
 218              	.LVL23:
 189:main_cm4.c    ****     GUI_SetBkColor(GUI_WHITE);
 219              		.loc 1 189 0
 220 0052 6FF07F40 		mvn	r0, #-16777216
 221 0056 FFF7FEFF 		bl	GUI_SetBkColor
 222              	.LVL24:
 190:main_cm4.c    ****     
 191:main_cm4.c    ****    //Write a title and subtile	
 192:main_cm4.c    ****     GUI_SetFont(GUI_FONT_32B_1);
 223              		.loc 1 192 0
 224 005a 0C48     		ldr	r0, .L14
 225 005c FFF7FEFF 		bl	GUI_SetFont
 226              	.LVL25:
 193:main_cm4.c    ****     GUI_SetTextAlign(GUI_TA_CENTER);
 227              		.loc 1 193 0
 228 0060 0220     		movs	r0, #2
 229 0062 FFF7FEFF 		bl	GUI_SetTextAlign
 230              	.LVL26:
 194:main_cm4.c    ****     GUI_DispStringAt("GBM2100", 132, 30);
 231              		.loc 1 194 0
 232 0066 1E22     		movs	r2, #30
 233 0068 8421     		movs	r1, #132
 234 006a 0948     		ldr	r0, .L14+4
 235 006c FFF7FEFF 		bl	GUI_DispStringAt
 236              	.LVL27:
 195:main_cm4.c    ****     GUI_SetFont(GUI_FONT_16_1);
 237              		.loc 1 195 0
 238 0070 0848     		ldr	r0, .L14+8
 239 0072 FFF7FEFF 		bl	GUI_SetFont
 240              	.LVL28:
 196:main_cm4.c    ****     GUI_DispStringAt("Projet", 132, 70);
 241              		.loc 1 196 0
 242 0076 4622     		movs	r2, #70
 243 0078 8421     		movs	r1, #132
ARM GAS  C:\Users\Ariane\AppData\Local\Temp\ccDPLWWh.s 			page 11


 244 007a 0748     		ldr	r0, .L14+12
 245 007c FFF7FEFF 		bl	GUI_DispStringAt
 246              	.LVL29:
 197:main_cm4.c    ****     
 198:main_cm4.c    ****     UpdateDisplay(CY_EINK_FULL_4STAGE, true);
 247              		.loc 1 198 0
 248 0080 0121     		movs	r1, #1
 249 0082 0846     		mov	r0, r1
 250 0084 FFF7FEFF 		bl	UpdateDisplay
 251              	.LVL30:
 252              	.L12:
 253 0088 FEE7     		b	.L12
 254              	.L15:
 255 008a 00BF     		.align	2
 256              	.L14:
 257 008c 00000000 		.word	GUI_Font32B_1
 258 0090 00000000 		.word	.LC0
 259 0094 00000000 		.word	GUI_Font16_1
 260 0098 08000000 		.word	.LC1
 261              		.cfi_endproc
 262              	.LFE593:
 263              		.size	main, .-main
 264              		.global	imageBufferCache
 265              		.global	vectorSinus
 266              		.global	processBufferFlag
 267              		.data
 268              		.align	2
 269              		.type	vectorSinus, %object
 270              		.size	vectorSinus, 500
 271              	vectorSinus:
 272 0000 3E75CC3D 		.word	1036809534
 273 0004 664E973E 		.word	1050103398
 274 0008 D977F53E 		.word	1056274393
 275 000c 9AEB243F 		.word	1059384218
 276 0010 5188483F 		.word	1061718097
 277 0014 5726643F 		.word	1063528023
 278 0018 DEAB763F 		.word	1064741854
 279 001c 815B7F3F 		.word	1065311105
 280 0020 6EDD7D3F 		.word	1065213294
 281 0024 B840723F 		.word	1064452280
 282 0028 55FB5C3F 		.word	1063058261
 283 002c DAE63E3F 		.word	1061086938
 284 0030 5435193F 		.word	1058616660
 285 0034 8DD1DA3E 		.word	1054527885
 286 0038 F4FD743E 		.word	1047854580
 287 003c D7502A3D 		.word	1026183383
 288 0040 378921BE 		.word	-1105098441
 289 0044 7099B3BE 		.word	-1095526032
 290 0048 98A307BF 		.word	-1090018408
 291 004c B21130BF 		.word	-1087368782
 292 0050 CC7A51BF 		.word	-1085179188
 293 0054 1E8A6ABF 		.word	-1083536866
 294 0058 683F7ABF 		.word	-1082507416
 295 005c C2FA7FBF 		.word	-1082131774
 296 0060 D8817BBF 		.word	-1082424872
 297 0064 E2016DBF 		.word	-1083375134
 298 0068 A60F55BF 		.word	-1084944474
ARM GAS  C:\Users\Ariane\AppData\Local\Temp\ccDPLWWh.s 			page 12


 299 006c 459E34BF 		.word	-1087070651
 300 0070 05FA0CBF 		.word	-1089668603
 301 0074 336DBFBE 		.word	-1094750925
 302 0078 27883ABE 		.word	-1103460313
 303 007c 84BD893C 		.word	1015659908
 304 0080 6B485C3E 		.word	1046235243
 305 0084 8048CF3E 		.word	1053771904
 306 0088 A514143F 		.word	1058280613
 307 008c C79D3A3F 		.word	1060806087
 308 0090 70B6593F 		.word	1062844016
 309 0094 C520703F 		.word	1064313029
 310 0098 B6F87C3F 		.word	1065154742
 311 009c 88BA7F3F 		.word	1065335432
 312 00a0 B64A783F 		.word	1064848054
 313 00a4 9DF4663F 		.word	1063711901
 314 00a8 D7694C3F 		.word	1061972439
 315 00ac 67B8293F 		.word	1059698791
 316 00b0 D942003F 		.word	1056981721
 317 00b4 1361A33E 		.word	1050894611
 318 00b8 A4DFFE3D 		.word	1040113572
 319 00bc C4E899BD 		.word	-1113986876
 320 00c0 20248BBE 		.word	-1098177504
 321 00c4 AF42EABE 		.word	-1091943761
 322 00c8 960420BF 		.word	-1088420714
 323 00cc 558744BF 		.word	-1086027947
 324 00d0 053461BF 		.word	-1084148731
 325 00d4 5CE674BF 		.word	-1082857892
 326 00d8 28D57EBF 		.word	-1082206936
 327 00dc D49A7EBF 		.word	-1082221868
 328 00e0 A83A74BF 		.word	-1082901848
 329 00e4 7E1D60BF 		.word	-1084220034
 330 00e8 1F1143BF 		.word	-1086123745
 331 00ec 6C3E1EBF 		.word	-1088536980
 332 00f0 8638E6BE 		.word	-1092208506
 333 00f4 15C686BE 		.word	-1098463723
 334 00f8 D4D387BD 		.word	-1115171884
 335 00fc 726D083E 		.word	1040739698
 336 0100 26AAA73E 		.word	1051175462
 337 0104 8B37023F 		.word	1057109899
 338 0108 F1682B3F 		.word	1059809521
 339 010c 87C44D3F 		.word	1062061191
 340 0110 57EC673F 		.word	1063775319
 341 0114 A6D5783F 		.word	1064883622
 342 0118 C8D27F3F 		.word	1065341640
 343 011c F59C7C3F 		.word	1065131253
 344 0120 9B556F3F 		.word	1064261019
 345 0124 1283583F 		.word	1062765330
 346 0128 AA0E393F 		.word	1060703914
 347 012c 2A3A123F 		.word	1058159146
 348 0130 8121CB3E 		.word	1053499777
 349 0134 DF6C533E 		.word	1045654751
 350 0138 1578023C 		.word	1006794773
 351 013c CE7043BE 		.word	-1102876466
 352 0140 AE9EC3BE 		.word	-1094476114
 353 0144 5DDC0EBF 		.word	-1089545123
 354 0148 DF3736BF 		.word	-1086965793
 355 014c CF4E56BF 		.word	-1084862769
ARM GAS  C:\Users\Ariane\AppData\Local\Temp\ccDPLWWh.s 			page 13


 356 0150 CFDA6DBF 		.word	-1083319601
 357 0154 03EC7BBF 		.word	-1082397693
 358 0158 EDF07FBF 		.word	-1082134291
 359 015c E3C279BF 		.word	-1082539293
 360 0160 D89E69BF 		.word	-1083597096
 361 0164 412B50BF 		.word	-1085265087
 362 0168 556A2EBF 		.word	-1087477163
 363 016c 1CB605BF 		.word	-1090144740
 364 0170 8A59AFBE 		.word	-1095804534
 365 0174 759318BE 		.word	-1105685643
 366 0178 59884E3D 		.word	1028556889
 367 017c 26C77D3E 		.word	1048430374
 368 0180 D1E8DE3E 		.word	1054795985
 369 0184 AB041B3F 		.word	1058735275
 370 0188 E466403F 		.word	1061185252
 371 018c A81D5E3F 		.word	1063132584
 372 0190 87F9723F 		.word	1064499591
 373 0194 2D267E3F 		.word	1065231917
 374 0198 40307F3F 		.word	1065300032
 375 019c ED0D763F 		.word	1064701421
 376 01a0 EB1C633F 		.word	1063460075
 377 01a4 3F1D473F 		.word	1061625151
 378 01a8 F52D233F 		.word	1059270133
 379 01ac CC7AF13E 		.word	1056013004
 380 01b0 38F8923E 		.word	1049819192
 381 01b4 BE69BA3D 		.word	1035626942
 382 01b8 A67EDEBD 		.word	-1109492058
 383 01bc A5A09BBE 		.word	-1097097051
 384 01c0 596EF9BE 		.word	-1090949543
 385 01c4 51A526BF 		.word	-1087986351
 386 01c8 CCEE49BF 		.word	-1085673780
 387 01cc 2C2B65BF 		.word	-1083888852
 388 01d0 914477BF 		.word	-1082702703
 389 01d4 2C827FBF 		.word	-1082162644
 390 01d8 C1907DBF 		.word	-1082289983
 391 01dc AA8271BF 		.word	-1083080022
 392 01e0 6BD45BBF 		.word	-1084500885
 393 01e4 39623DBF 		.word	-1086496199
 394 01e8 5E6317BF 		.word	-1088986274
 395 01ec 5BB6D6BE 		.word	-1093224869
 396 01f0 832F6CBE 		.word	-1100206205
 397              		.type	processBufferFlag, %object
 398              		.size	processBufferFlag, 1
 399              	processBufferFlag:
 400 01f4 01       		.byte	1
 401              		.section	.rodata.str1.4,"aMS",%progbits,1
 402              		.align	2
 403              	.LC0:
 404 0000 47424D32 		.ascii	"GBM2100\000"
 404      31303000 
 405              	.LC1:
 406 0008 50726F6A 		.ascii	"Projet\000"
 406      657400
 407              		.bss
 408              		.align	2
 409              		.set	.LANCHOR0,. + 0
 410              		.type	imageBufferCache, %object
ARM GAS  C:\Users\Ariane\AppData\Local\Temp\ccDPLWWh.s 			page 14


 411              		.size	imageBufferCache, 5808
 412              	imageBufferCache:
 413 0000 00000000 		.space	5808
 413      00000000 
 413      00000000 
 413      00000000 
 413      00000000 
 414              		.text
 415              	.Letext0:
 416              		.file 3 "c:\\program files (x86)\\cypress\\psoc creator\\4.4\\psoc creator\\import\\gnu\\arm\\5.4.
 417              		.file 4 "c:\\program files (x86)\\cypress\\psoc creator\\4.4\\psoc creator\\import\\gnu\\arm\\5.4.
 418              		.file 5 "Generated_Source\\PSoC6\\pdl\\drivers/peripheral/device/cy_device.h"
 419              		.file 6 "Generated_Source\\PSoC6\\pdl\\drivers/peripheral/syslib/cy_syslib.h"
 420              		.file 7 "Generated_Source\\PSoC6\\pdl\\drivers/peripheral/scb/cy_scb_spi.h"
 421              		.file 8 "Generated_Source\\PSoC6\\pdl\\drivers/peripheral/tcpwm/cy_tcpwm_counter.h"
 422              		.file 9 "Generated_Source\\PSoC6\\pdl\\middleware/emWin/code/include/GUI_Type.h"
 423              		.file 10 ".\\eInk Library/pervasive_eink_hardware_driver.h"
 424              		.file 11 ".\\eInk Library/cy_eink_library.h"
 425              		.file 12 ".\\CMSIS\\Core\\Include/core_cm4.h"
 426              		.file 13 "Generated_Source\\PSoC6/CY_EINK_SPIM.h"
 427              		.file 14 "Generated_Source\\PSoC6/CY_EINK_Timer.h"
 428              		.file 15 "Generated_Source\\PSoC6\\pdl\\middleware/emWin/code/include/GUI.h"
 429              		.file 16 "LCDConf.h"
 430              		.file 17 "Generated_Source\\PSoC6/Status_SW2.h"