ARM GAS  C:\Users\Mathieu\AppData\Local\Temp\ccddlgB4.s 			page 1


   1              		.syntax unified
   2              		.cpu cortex-m4
   3              		.eabi_attribute 27, 1
   4              		.fpu fpv4-sp-d16
   5              		.eabi_attribute 20, 1
   6              		.eabi_attribute 21, 1
   7              		.eabi_attribute 23, 3
   8              		.eabi_attribute 24, 1
   9              		.eabi_attribute 25, 1
  10              		.eabi_attribute 26, 1
  11              		.eabi_attribute 30, 1
  12              		.eabi_attribute 34, 1
  13              		.eabi_attribute 18, 4
  14              		.thumb
  15              		.syntax unified
  16              		.file	"traitement.c"
  17              		.text
  18              	.Ltext0:
  19              		.cfi_sections	.debug_frame
  20              		.section	.text.traitement,"ax",%progbits
  21              		.align	2
  22              		.global	traitement
  23              		.thumb
  24              		.thumb_func
  25              		.type	traitement, %function
  26              	traitement:
  27              	.LFB656:
  28              		.file 1 "traitement.c"
   1:traitement.c  **** /* ========================================
   2:traitement.c  ****  *
   3:traitement.c  ****  * Copyright YOUR COMPANY, THE YEAR
   4:traitement.c  ****  * All Rights Reserved
   5:traitement.c  ****  * UNPUBLISHED, LICENSED SOFTWARE.
   6:traitement.c  ****  *
   7:traitement.c  ****  * CONFIDENTIAL AND PROPRIETARY INFORMATION
   8:traitement.c  ****  * WHICH IS THE PROPERTY OF your company.
   9:traitement.c  ****  *
  10:traitement.c  ****  * ========================================
  11:traitement.c  **** */
  12:traitement.c  **** #include "traitement.h"
  13:traitement.c  **** 
  14:traitement.c  **** 
  15:traitement.c  **** void traitement(uint32_t *signal, int *HR, uint32_t *AC, uint32_t *DC)
  16:traitement.c  **** {
  29              		.loc 1 16 0
  30              		.cfi_startproc
  31              		@ args = 0, pretend = 0, frame = 16008
  32              		@ frame_needed = 0, uses_anonymous_args = 0
  33              	.LVL0:
  34 0000 2DE9F041 		push	{r4, r5, r6, r7, r8, lr}
  35              		.cfi_def_cfa_offset 24
  36              		.cfi_offset 4, -24
  37              		.cfi_offset 5, -20
  38              		.cfi_offset 6, -16
  39              		.cfi_offset 7, -12
  40              		.cfi_offset 8, -8
  41              		.cfi_offset 14, -4
ARM GAS  C:\Users\Mathieu\AppData\Local\Temp\ccddlgB4.s 			page 2


  42 0004 ADF57A5D 		sub	sp, sp, #16000
  43              		.cfi_def_cfa_offset 16024
  44 0008 82B0     		sub	sp, sp, #8
  45              		.cfi_def_cfa_offset 16032
  46 000a 0746     		mov	r7, r0
  47 000c 0E46     		mov	r6, r1
  48 000e 1446     		mov	r4, r2
  49 0010 1D46     		mov	r5, r3
  17:traitement.c  ****     uint32_t cleaned[2000] = {};
  50              		.loc 1 17 0
  51 0012 4FF4FA58 		mov	r8, #8000
  52 0016 4246     		mov	r2, r8
  53              	.LVL1:
  54 0018 0021     		movs	r1, #0
  55              	.LVL2:
  56 001a 0DF5FA50 		add	r0, sp, #8000
  57              	.LVL3:
  58 001e 0830     		adds	r0, r0, #8
  59 0020 FFF7FEFF 		bl	memset
  60              	.LVL4:
  18:traitement.c  ****     float redressed[2000] = {};   
  61              		.loc 1 18 0
  62 0024 4246     		mov	r2, r8
  63 0026 0021     		movs	r1, #0
  64 0028 02A8     		add	r0, sp, #8
  65 002a FFF7FEFF 		bl	memset
  66              	.LVL5:
  67              	.LBB2:
  19:traitement.c  **** 
  20:traitement.c  ****     //Nettoyer le signal avec une moyenne mobile sur 8 données
  21:traitement.c  ****     int w = 8; //Window size
  22:traitement.c  ****     
  23:traitement.c  ****     for (int i=0;i<2000-w;i++)
  68              		.loc 1 23 0
  69 002e 0021     		movs	r1, #0
  70 0030 19E0     		b	.L2
  71              	.LVL6:
  72              	.L3:
  73              	.LBB3:
  24:traitement.c  ****     {
  25:traitement.c  ****         for (int j=1;j<w+1;j++)
  26:traitement.c  ****         {
  27:traitement.c  ****             cleaned[i]=cleaned[i]+signal[i+j];
  74              		.loc 1 27 0 discriminator 3
  75 0032 0DF5FA5E 		add	lr, sp, #8000
  76 0036 0EF1080E 		add	lr, lr, #8
  77 003a 5EF82100 		ldr	r0, [lr, r1, lsl #2]
  78 003e CA18     		adds	r2, r1, r3
  79 0040 57F82220 		ldr	r2, [r7, r2, lsl #2]
  80 0044 0244     		add	r2, r2, r0
  81 0046 4EF82120 		str	r2, [lr, r1, lsl #2]
  25:traitement.c  ****         {
  82              		.loc 1 25 0 discriminator 3
  83 004a 0133     		adds	r3, r3, #1
  84              	.LVL7:
  85 004c 00E0     		b	.L4
  86              	.LVL8:
ARM GAS  C:\Users\Mathieu\AppData\Local\Temp\ccddlgB4.s 			page 3


  87              	.L34:
  88              	.LBE3:
  89 004e 0123     		movs	r3, #1
  90              	.L4:
  91              	.LVL9:
  92              	.LBB4:
  25:traitement.c  ****         {
  93              		.loc 1 25 0 is_stmt 0 discriminator 1
  94 0050 082B     		cmp	r3, #8
  95 0052 EEDD     		ble	.L3
  96              	.LBE4:
  28:traitement.c  ****         }
  29:traitement.c  ****         cleaned[i]=cleaned[i]/w;
  97              		.loc 1 29 0 is_stmt 1 discriminator 2
  98 0054 0DF5FA52 		add	r2, sp, #8000
  99 0058 0832     		adds	r2, r2, #8
 100 005a 52F82130 		ldr	r3, [r2, r1, lsl #2]
 101              	.LVL10:
 102 005e DB08     		lsrs	r3, r3, #3
 103 0060 42F82130 		str	r3, [r2, r1, lsl #2]
  23:traitement.c  ****     {
 104              		.loc 1 23 0 discriminator 2
 105 0064 0131     		adds	r1, r1, #1
 106              	.LVL11:
 107              	.L2:
  23:traitement.c  ****     {
 108              		.loc 1 23 0 is_stmt 0 discriminator 1
 109 0066 B1F5F96F 		cmp	r1, #1992
 110 006a F0DB     		blt	.L34
 111 006c 4FF4F963 		mov	r3, #1992
 112 0070 07E0     		b	.L5
 113              	.LVL12:
 114              	.L6:
 115              	.LBE2:
 116              	.LBB5:
  30:traitement.c  ****     }
  31:traitement.c  ****     for (int i=2000-w;i<2000;i++)
  32:traitement.c  ****     {
  33:traitement.c  ****         cleaned[i] = signal[i];
 117              		.loc 1 33 0 is_stmt 1 discriminator 3
 118 0072 57F82310 		ldr	r1, [r7, r3, lsl #2]
 119 0076 0DF5FA52 		add	r2, sp, #8000
 120 007a 0832     		adds	r2, r2, #8
 121 007c 42F82310 		str	r1, [r2, r3, lsl #2]
  31:traitement.c  ****     {
 122              		.loc 1 31 0 discriminator 3
 123 0080 0133     		adds	r3, r3, #1
 124              	.LVL13:
 125              	.L5:
  31:traitement.c  ****     {
 126              		.loc 1 31 0 is_stmt 0 discriminator 1
 127 0082 B3F5FA6F 		cmp	r3, #2000
 128 0086 F4DB     		blt	.L6
 129 0088 0023     		movs	r3, #0
 130              	.LVL14:
 131 008a 00E0     		b	.L7
 132              	.LVL15:
ARM GAS  C:\Users\Mathieu\AppData\Local\Temp\ccddlgB4.s 			page 4


 133              	.L8:
 134              	.LBE5:
 135              	.LBB6:
  34:traitement.c  ****     }
  35:traitement.c  ****     
  36:traitement.c  ****     for (int i =0;i<2000;i++)
 136              		.loc 1 36 0 is_stmt 1 discriminator 3
 137 008c 0133     		adds	r3, r3, #1
 138              	.LVL16:
 139              	.L7:
 140              		.loc 1 36 0 is_stmt 0 discriminator 1
 141 008e B3F5FA6F 		cmp	r3, #2000
 142 0092 FBDB     		blt	.L8
 143              	.LVL17:
 144              	.LBE6:
  37:traitement.c  ****     {
  38:traitement.c  ****         //printf("%d\r\n",cleaned[i]);
  39:traitement.c  ****     }
  40:traitement.c  ****     
  41:traitement.c  ****     //Redresser avec un min/max mobile
  42:traitement.c  ****     int s = 400; 
  43:traitement.c  ****     *DC = 0;
 145              		.loc 1 43 0 is_stmt 1
 146 0094 0023     		movs	r3, #0
 147              	.LVL18:
 148 0096 2B60     		str	r3, [r5]
  44:traitement.c  ****     *AC = 0;
 149              		.loc 1 44 0
 150 0098 2360     		str	r3, [r4]
 151              	.LVL19:
 152              	.LBB7:
  45:traitement.c  ****     
  46:traitement.c  ****     //Fenêtre du min/max mobile : 
  47:traitement.c  ****     //400 échantillons = 2 secondes à 200 hz
  48:traitement.c  ****     //Un espacement de plus de 2 secondes entre 2 battements signifie un HR < 30 BPM.
  49:traitement.c  **** 
  50:traitement.c  ****     for (int i = 0; i<2000/s;i++)
 153              		.loc 1 50 0
 154 009a 9C46     		mov	ip, r3
 155 009c 40E0     		b	.L9
 156              	.LVL20:
 157              	.L16:
 158              	.LBB8:
 159              	.LBB9:
  51:traitement.c  ****     {
  52:traitement.c  ****         uint32_t MAX = 0;
  53:traitement.c  ****         uint32_t MIN = 300000;
  54:traitement.c  ****         
  55:traitement.c  ****         for(int j=i*s;j<i*s+s;j++)
 160              		.loc 1 55 0
 161 009e 4FF4C871 		mov	r1, #400
 162 00a2 01FB0CF1 		mul	r1, r1, ip
 163              	.LVL21:
 164 00a6 0B46     		mov	r3, r1
 165              	.LBE9:
  53:traitement.c  ****         
 166              		.loc 1 53 0
ARM GAS  C:\Users\Mathieu\AppData\Local\Temp\ccddlgB4.s 			page 5


 167 00a8 8648     		ldr	r0, .L48
  52:traitement.c  ****         uint32_t MIN = 300000;
 168              		.loc 1 52 0
 169 00aa 0027     		movs	r7, #0
 170              	.LBB10:
 171              		.loc 1 55 0
 172 00ac 0BE0     		b	.L10
 173              	.LVL22:
 174              	.L13:
  56:traitement.c  ****         {
  57:traitement.c  ****             if (cleaned[j] >MAX)
 175              		.loc 1 57 0
 176 00ae 0DF5FA52 		add	r2, sp, #8000
 177 00b2 0832     		adds	r2, r2, #8
 178 00b4 52F82320 		ldr	r2, [r2, r3, lsl #2]
 179 00b8 9742     		cmp	r7, r2
 180 00ba 00D2     		bcs	.L11
  58:traitement.c  ****             {
  59:traitement.c  ****                 MAX = cleaned[j];
 181              		.loc 1 59 0
 182 00bc 1746     		mov	r7, r2
 183              	.LVL23:
 184              	.L11:
  60:traitement.c  ****             }
  61:traitement.c  ****              if (cleaned[j] < MIN)
 185              		.loc 1 61 0
 186 00be 9042     		cmp	r0, r2
 187 00c0 00D9     		bls	.L12
  62:traitement.c  ****             {
  63:traitement.c  ****                 MIN = cleaned[j];
 188              		.loc 1 63 0
 189 00c2 1046     		mov	r0, r2
 190              	.LVL24:
 191              	.L12:
  55:traitement.c  ****         {
 192              		.loc 1 55 0 discriminator 2
 193 00c4 0133     		adds	r3, r3, #1
 194              	.LVL25:
 195              	.L10:
  55:traitement.c  ****         {
 196              		.loc 1 55 0 is_stmt 0 discriminator 1
 197 00c6 0CF1010E 		add	lr, ip, #1
 198 00ca 4FF4C872 		mov	r2, #400
 199 00ce 02FB0EF2 		mul	r2, r2, lr
 200 00d2 9342     		cmp	r3, r2
 201 00d4 EBDB     		blt	.L13
 202 00d6 16E0     		b	.L14
 203              	.LVL26:
 204              	.L15:
 205              	.LBE10:
 206              	.LBB11:
  64:traitement.c  ****             }
  65:traitement.c  ****             
  66:traitement.c  ****         }
  67:traitement.c  ****         
  68:traitement.c  ****         //printf("MAX = %d\r\n",MAX);
  69:traitement.c  ****         //printf("MIN = %d\r\n",MIN);
ARM GAS  C:\Users\Mathieu\AppData\Local\Temp\ccddlgB4.s 			page 6


  70:traitement.c  ****         
  71:traitement.c  ****         for(int j=i*s;j<i*s+s;j++)
  72:traitement.c  ****         {
  73:traitement.c  ****            redressed[j] = (float) (cleaned[j]-MIN)/(MAX-MIN);
 207              		.loc 1 73 0 is_stmt 1 discriminator 3
 208 00d8 0DF5FA53 		add	r3, sp, #8000
 209 00dc 0833     		adds	r3, r3, #8
 210 00de 53F82130 		ldr	r3, [r3, r1, lsl #2]
 211 00e2 1B1A     		subs	r3, r3, r0
 212 00e4 07EE903A 		vmov	s15, r3	@ int
 213 00e8 F8EE677A 		vcvt.f32.u32	s15, s15
 214 00ec 3B1A     		subs	r3, r7, r0
 215 00ee 07EE103A 		vmov	s14, r3	@ int
 216 00f2 B8EE477A 		vcvt.f32.u32	s14, s14
 217 00f6 C7EE876A 		vdiv.f32	s13, s15, s14
 218 00fa 02AB     		add	r3, sp, #8
 219 00fc 03EB8103 		add	r3, r3, r1, lsl #2
 220 0100 C3ED006A 		vstr.32	s13, [r3]
  71:traitement.c  ****         {
 221              		.loc 1 71 0 discriminator 3
 222 0104 0131     		adds	r1, r1, #1
 223              	.LVL27:
 224              	.L14:
  71:traitement.c  ****         {
 225              		.loc 1 71 0 is_stmt 0 discriminator 1
 226 0106 9142     		cmp	r1, r2
 227 0108 E6DB     		blt	.L15
 228              	.LBE11:
  74:traitement.c  ****            //printf("%f\r\n",redressed[j]);
  75:traitement.c  ****         }
  76:traitement.c  **** 
  77:traitement.c  ****         *DC = *DC + (MAX+MIN)/2;
 229              		.loc 1 77 0 is_stmt 1 discriminator 2
 230 010a 2B68     		ldr	r3, [r5]
 231 010c 3A18     		adds	r2, r7, r0
 232 010e 03EB5203 		add	r3, r3, r2, lsr #1
 233 0112 2B60     		str	r3, [r5]
  78:traitement.c  ****         //printf("DC: %d\r\n",DC);
  79:traitement.c  ****         *AC = *AC + (MAX-MIN)/2;
 234              		.loc 1 79 0 discriminator 2
 235 0114 2368     		ldr	r3, [r4]
 236 0116 381A     		subs	r0, r7, r0
 237              	.LVL28:
 238 0118 03EB5000 		add	r0, r3, r0, lsr #1
 239 011c 2060     		str	r0, [r4]
 240              	.LVL29:
 241              	.LBE8:
  50:traitement.c  ****     {
 242              		.loc 1 50 0 discriminator 2
 243 011e F446     		mov	ip, lr
 244              	.LVL30:
 245              	.L9:
  50:traitement.c  ****     {
 246              		.loc 1 50 0 is_stmt 0 discriminator 1
 247 0120 BCF1040F 		cmp	ip, #4
 248 0124 BBDD     		ble	.L16
 249              	.LBE7:
ARM GAS  C:\Users\Mathieu\AppData\Local\Temp\ccddlgB4.s 			page 7


  80:traitement.c  ****         
  81:traitement.c  ****     }
  82:traitement.c  ****     *DC = (uint32_t) *DC/(2000/s);
 250              		.loc 1 82 0 is_stmt 1
 251 0126 2A68     		ldr	r2, [r5]
 252 0128 6749     		ldr	r1, .L48+4
 253 012a A1FB0232 		umull	r3, r2, r1, r2
 254 012e 9208     		lsrs	r2, r2, #2
 255 0130 2A60     		str	r2, [r5]
  83:traitement.c  ****     *AC = (uint32_t) *AC/(2000/s);
 256              		.loc 1 83 0
 257 0132 2368     		ldr	r3, [r4]
 258 0134 A1FB0323 		umull	r2, r3, r1, r3
 259 0138 9B08     		lsrs	r3, r3, #2
 260 013a 2360     		str	r3, [r4]
 261              	.LVL31:
 262              	.LBB12:
  84:traitement.c  ****     //printf("AC : %d, DC : %d\r\n",AC,DC);
  85:traitement.c  ****     
  86:traitement.c  ****     //Arrondir le vecteur redressé pour mettre en valeur les pics
  87:traitement.c  ****     for(int i=1;i<2000;i++)
 263              		.loc 1 87 0
 264 013c 0123     		movs	r3, #1
 265 013e 18E0     		b	.L17
 266              	.LVL32:
 267              	.L21:
  88:traitement.c  ****     {
  89:traitement.c  ****        if(redressed[i]<0.5)
 268              		.loc 1 89 0
 269 0140 02AA     		add	r2, sp, #8
 270 0142 02EB8302 		add	r2, r2, r3, lsl #2
 271 0146 92ED007A 		vldr.32	s14, [r2]
 272 014a F6EE007A 		vmov.f32	s15, #5.0e-1
 273 014e B4EEE77A 		vcmpe.f32	s14, s15
 274 0152 F1EE10FA 		vmrs	APSR_nzcv, FPSCR
 275 0156 05D5     		bpl	.L45
  90:traitement.c  ****        {
  91:traitement.c  ****             redressed[i] =0;
 276              		.loc 1 91 0
 277 0158 02AA     		add	r2, sp, #8
 278 015a 02EB8302 		add	r2, r2, r3, lsl #2
 279 015e 0021     		movs	r1, #0
 280 0160 1160     		str	r1, [r2]	@ float
 281 0162 05E0     		b	.L20
 282              	.L45:
  92:traitement.c  ****        }
  93:traitement.c  ****        else
  94:traitement.c  ****        {
  95:traitement.c  ****             redressed[i] =1;
 283              		.loc 1 95 0
 284 0164 02AA     		add	r2, sp, #8
 285 0166 02EB8302 		add	r2, r2, r3, lsl #2
 286 016a 4FF07E51 		mov	r1, #1065353216
 287 016e 1160     		str	r1, [r2]	@ float
 288              	.L20:
  87:traitement.c  ****     {
 289              		.loc 1 87 0 discriminator 2
ARM GAS  C:\Users\Mathieu\AppData\Local\Temp\ccddlgB4.s 			page 8


 290 0170 0133     		adds	r3, r3, #1
 291              	.LVL33:
 292              	.L17:
  87:traitement.c  ****     {
 293              		.loc 1 87 0 is_stmt 0 discriminator 1
 294 0172 B3F5FA6F 		cmp	r3, #2000
 295 0176 E3DB     		blt	.L21
 296              	.LVL34:
 297              	.LBE12:
  96:traitement.c  ****        }
  97:traitement.c  ****        redressed[i] = redressed[i];
  98:traitement.c  ****        //printf("%f\r\n",redressed[i]);
  99:traitement.c  ****     }
 100:traitement.c  ****        
 101:traitement.c  ****     int nb_spike = 0;
 102:traitement.c  ****     int last_state_change = 0;
 103:traitement.c  ****     int state = 0; //high or low
 104:traitement.c  ****     float L = 0; //average length of high pulse
 105:traitement.c  ****     
 106:traitement.c  ****     state = redressed[0];
 298              		.loc 1 106 0 is_stmt 1
 299 0178 DDED027A 		vldr.32	s15, [sp, #8]
 300 017c FDEEE77A 		vcvt.s32.f32	s15, s15
 301 0180 17EE900A 		vmov	r0, s15	@ int
 302              	.LVL35:
 303 0184 17EE904A 		vmov	r4, s15	@ int
 304              	.LVL36:
 305              	.LBB13:
 107:traitement.c  ****     last_state_change = 0;
 108:traitement.c  ****     for(int i=1;i<2000;i++)
 306              		.loc 1 108 0
 307 0188 0123     		movs	r3, #1
 308              	.LVL37:
 309              	.LBE13:
 104:traitement.c  ****     
 310              		.loc 1 104 0
 311 018a DFED506A 		vldr.32	s13, .L48+8
 107:traitement.c  ****     last_state_change = 0;
 312              		.loc 1 107 0
 313 018e 0022     		movs	r2, #0
 314 0190 0192     		str	r2, [sp, #4]
 101:traitement.c  ****     int last_state_change = 0;
 315              		.loc 1 101 0
 316 0192 1146     		mov	r1, r2
 317              	.LBB14:
 318              		.loc 1 108 0
 319 0194 25E0     		b	.L22
 320              	.LVL38:
 321              	.L25:
 109:traitement.c  ****     {
 110:traitement.c  ****         if(redressed[i]==!state)
 322              		.loc 1 110 0
 323 0196 02AA     		add	r2, sp, #8
 324 0198 02EB8302 		add	r2, r2, r3, lsl #2
 325 019c D2ED007A 		vldr.32	s15, [r2]
 326 01a0 14B9     		cbnz	r4, .L37
 327 01a2 B7EE007A 		vmov.f32	s14, #1.0e+0
ARM GAS  C:\Users\Mathieu\AppData\Local\Temp\ccddlgB4.s 			page 9


 328 01a6 01E0     		b	.L23
 329              	.L37:
 330 01a8 9FED487A 		vldr.32	s14, .L48+8
 331              	.L23:
 332              		.loc 1 110 0 is_stmt 0 discriminator 4
 333 01ac B4EE677A 		vcmp.f32	s14, s15
 334 01b0 F1EE10FA 		vmrs	APSR_nzcv, FPSCR
 335 01b4 14D1     		bne	.L24
 111:traitement.c  ****         {
 112:traitement.c  ****             state = !state;
 336              		.loc 1 112 0 is_stmt 1
 337 01b6 002C     		cmp	r4, #0
 338 01b8 0CBF     		ite	eq
 339 01ba 0124     		moveq	r4, #1
 340              	.LVL39:
 341 01bc 0024     		movne	r4, #0
 342              	.LVL40:
 113:traitement.c  ****             if(state == 0)
 343              		.loc 1 113 0
 344 01be 0ED0     		beq	.L38
 114:traitement.c  ****             {
 115:traitement.c  ****                 L = L + i - last_state_change;
 345              		.loc 1 115 0
 346 01c0 07EE903A 		vmov	s15, r3	@ int
 347 01c4 F8EEE77A 		vcvt.f32.s32	s15, s15
 348 01c8 77EEA66A 		vadd.f32	s13, s15, s13
 349              	.LVL41:
 350 01cc DDED017A 		vldr.32	s15, [sp, #4]	@ int
 351 01d0 F8EEE77A 		vcvt.f32.s32	s15, s15
 352 01d4 76EEE76A 		vsub.f32	s13, s13, s15
 353              	.LVL42:
 116:traitement.c  ****                 nb_spike +=1;
 354              		.loc 1 116 0
 355 01d8 0131     		adds	r1, r1, #1
 356              	.LVL43:
 117:traitement.c  ****                 
 118:traitement.c  ****             }
 119:traitement.c  ****             last_state_change = i;
 357              		.loc 1 119 0
 358 01da 0193     		str	r3, [sp, #4]
 359              	.LVL44:
 360 01dc 00E0     		b	.L24
 361              	.LVL45:
 362              	.L38:
 363 01de 0193     		str	r3, [sp, #4]
 364              	.LVL46:
 365              	.L24:
 108:traitement.c  ****     {
 366              		.loc 1 108 0 discriminator 2
 367 01e0 0133     		adds	r3, r3, #1
 368              	.LVL47:
 369              	.L22:
 108:traitement.c  ****     {
 370              		.loc 1 108 0 is_stmt 0 discriminator 1
 371 01e2 B3F5FA6F 		cmp	r3, #2000
 372 01e6 D6DB     		blt	.L25
 373              	.LBE14:
ARM GAS  C:\Users\Mathieu\AppData\Local\Temp\ccddlgB4.s 			page 10


 120:traitement.c  ****             
 121:traitement.c  ****         }
 122:traitement.c  ****     }
 123:traitement.c  ****     if(redressed[1999]==1 && state ==1)
 374              		.loc 1 123 0 is_stmt 1
 375 01e8 0DF5FA53 		add	r3, sp, #8000
 376              	.LVL48:
 377 01ec 0433     		adds	r3, r3, #4
 378 01ee 93ED006A 		vldr.32	s12, [r3]
 379 01f2 F7EE007A 		vmov.f32	s15, #1.0e+0
 380 01f6 B4EE676A 		vcmp.f32	s12, s15
 381 01fa F1EE10FA 		vmrs	APSR_nzcv, FPSCR
 382 01fe 0CD1     		bne	.L26
 383              		.loc 1 123 0 is_stmt 0 discriminator 1
 384 0200 012C     		cmp	r4, #1
 385 0202 0AD1     		bne	.L26
 124:traitement.c  ****     {
 125:traitement.c  ****         L = L + 1999 - last_state_change;
 386              		.loc 1 125 0 is_stmt 1
 387 0204 DFED327A 		vldr.32	s15, .L48+12
 388 0208 76EEA76A 		vadd.f32	s13, s13, s15
 389              	.LVL49:
 390 020c DDED017A 		vldr.32	s15, [sp, #4]	@ int
 391 0210 F8EEE77A 		vcvt.f32.s32	s15, s15
 392 0214 76EEE76A 		vsub.f32	s13, s13, s15
 393              	.LVL50:
 126:traitement.c  ****         nb_spike +=1;
 394              		.loc 1 126 0
 395 0218 0131     		adds	r1, r1, #1
 396              	.LVL51:
 397              	.L26:
 127:traitement.c  ****     }
 128:traitement.c  ****     
 129:traitement.c  ****     L = L/nb_spike;
 398              		.loc 1 129 0
 399 021a 07EE901A 		vmov	s15, r1	@ int
 400 021e B8EEE77A 		vcvt.f32.s32	s14, s15
 401 0222 C6EE877A 		vdiv.f32	s15, s13, s14
 402              	.LVL52:
 130:traitement.c  ****     L = L/2;
 403              		.loc 1 130 0
 404 0226 F6EE006A 		vmov.f32	s13, #5.0e-1
 405 022a 67EEA66A 		vmul.f32	s13, s15, s13
 406              	.LVL53:
 407              	.LBB15:
 131:traitement.c  ****     //printf("%f\r\n",L);
 132:traitement.c  ****     
 133:traitement.c  ****     state = redressed[0];
 134:traitement.c  ****     last_state_change = 0;
 135:traitement.c  ****     for(int i=0;i<2000;i++)
 408              		.loc 1 135 0
 409 022e 0023     		movs	r3, #0
 410              	.LBE15:
 134:traitement.c  ****     for(int i=0;i<2000;i++)
 411              		.loc 1 134 0
 412 0230 1C46     		mov	r4, r3
 413              	.LBB16:
ARM GAS  C:\Users\Mathieu\AppData\Local\Temp\ccddlgB4.s 			page 11


 414              		.loc 1 135 0
 415 0232 25E0     		b	.L27
 416              	.LVL54:
 417              	.L31:
 136:traitement.c  ****     {
 137:traitement.c  ****         if(redressed[i]==!state)
 418              		.loc 1 137 0
 419 0234 02AA     		add	r2, sp, #8
 420 0236 02EB8302 		add	r2, r2, r3, lsl #2
 421 023a D2ED007A 		vldr.32	s15, [r2]
 422 023e 10B9     		cbnz	r0, .L39
 423 0240 B7EE007A 		vmov.f32	s14, #1.0e+0
 424 0244 01E0     		b	.L28
 425              	.L39:
 426 0246 9FED217A 		vldr.32	s14, .L48+8
 427              	.L28:
 428              		.loc 1 137 0 is_stmt 0 discriminator 4
 429 024a B4EE677A 		vcmp.f32	s14, s15
 430 024e F1EE10FA 		vmrs	APSR_nzcv, FPSCR
 431 0252 14D1     		bne	.L29
 138:traitement.c  ****         {
 139:traitement.c  ****             state = !state;
 432              		.loc 1 139 0 is_stmt 1
 433 0254 0028     		cmp	r0, #0
 434 0256 0CBF     		ite	eq
 435 0258 0120     		moveq	r0, #1
 436              	.LVL55:
 437 025a 0020     		movne	r0, #0
 438              	.LVL56:
 140:traitement.c  ****             
 141:traitement.c  ****             if(state == 0 && i-last_state_change < L)
 439              		.loc 1 141 0
 440 025c 0CD0     		beq	.L40
 441              		.loc 1 141 0 is_stmt 0 discriminator 1
 442 025e 1C1B     		subs	r4, r3, r4
 443              	.LVL57:
 444 0260 07EE904A 		vmov	s15, r4	@ int
 445 0264 F8EEE77A 		vcvt.f32.s32	s15, s15
 446 0268 F4EEE76A 		vcmpe.f32	s13, s15
 447 026c F1EE10FA 		vmrs	APSR_nzcv, FPSCR
 448 0270 04DD     		ble	.L46
 142:traitement.c  ****             {
 143:traitement.c  ****                 nb_spike -=1;
 449              		.loc 1 143 0 is_stmt 1
 450 0272 0139     		subs	r1, r1, #1
 451              	.LVL58:
 144:traitement.c  ****             }
 145:traitement.c  ****             last_state_change = i;
 452              		.loc 1 145 0
 453 0274 1C46     		mov	r4, r3
 454 0276 02E0     		b	.L29
 455              	.LVL59:
 456              	.L40:
 457 0278 1C46     		mov	r4, r3
 458              	.LVL60:
 459 027a 00E0     		b	.L29
 460              	.L46:
ARM GAS  C:\Users\Mathieu\AppData\Local\Temp\ccddlgB4.s 			page 12


 461 027c 1C46     		mov	r4, r3
 462              	.L29:
 463              	.LVL61:
 135:traitement.c  ****     {
 464              		.loc 1 135 0 discriminator 2
 465 027e 0133     		adds	r3, r3, #1
 466              	.LVL62:
 467              	.L27:
 135:traitement.c  ****     {
 468              		.loc 1 135 0 is_stmt 0 discriminator 1
 469 0280 B3F5FA6F 		cmp	r3, #2000
 470 0284 D6DB     		blt	.L31
 471              	.LBE16:
 146:traitement.c  ****         }
 147:traitement.c  ****     }
 148:traitement.c  ****     
 149:traitement.c  ****     if(redressed[1999]==1 && state ==1 && 1999 - last_state_change < L)
 472              		.loc 1 149 0 is_stmt 1
 473 0286 F7EE007A 		vmov.f32	s15, #1.0e+0
 474 028a B4EE676A 		vcmp.f32	s12, s15
 475 028e F1EE10FA 		vmrs	APSR_nzcv, FPSCR
 476 0292 0ED1     		bne	.L32
 477              		.loc 1 149 0 is_stmt 0 discriminator 1
 478 0294 0128     		cmp	r0, #1
 479 0296 0CD1     		bne	.L32
 480              		.loc 1 149 0 discriminator 2
 481 0298 C4F5F964 		rsb	r4, r4, #1992
 482              	.LVL63:
 483 029c 0734     		adds	r4, r4, #7
 484 029e 07EE904A 		vmov	s15, r4	@ int
 485 02a2 F8EEE77A 		vcvt.f32.s32	s15, s15
 486 02a6 F4EEE76A 		vcmpe.f32	s13, s15
 487 02aa F1EE10FA 		vmrs	APSR_nzcv, FPSCR
 488 02ae 00DD     		ble	.L32
 150:traitement.c  ****     {
 151:traitement.c  ****         nb_spike -=1;
 489              		.loc 1 151 0 is_stmt 1
 490 02b0 0139     		subs	r1, r1, #1
 491              	.LVL64:
 492              	.L32:
 152:traitement.c  ****     }
 153:traitement.c  ****     *HR = nb_spike;
 493              		.loc 1 153 0
 494 02b2 3160     		str	r1, [r6]
 154:traitement.c  ****     printf("HR:%d\r\n",*HR);
 495              		.loc 1 154 0
 496 02b4 0748     		ldr	r0, .L48+16
 497              	.LVL65:
 498 02b6 FFF7FEFF 		bl	printf
 499              	.LVL66:
 155:traitement.c  **** 
 156:traitement.c  **** }
 500              		.loc 1 156 0
 501 02ba 0DF57A5D 		add	sp, sp, #16000
 502 02be 02B0     		add	sp, sp, #8
 503              		.cfi_def_cfa_offset 24
 504              		@ sp needed
ARM GAS  C:\Users\Mathieu\AppData\Local\Temp\ccddlgB4.s 			page 13


 505 02c0 BDE8F081 		pop	{r4, r5, r6, r7, r8, pc}
 506              	.LVL67:
 507              	.L49:
 508              		.align	2
 509              	.L48:
 510 02c4 E0930400 		.word	300000
 511 02c8 CDCCCCCC 		.word	-858993459
 512 02cc 00000000 		.word	0
 513 02d0 00E0F944 		.word	1157226496
 514 02d4 00000000 		.word	.LC0
 515              		.cfi_endproc
 516              	.LFE656:
 517              		.size	traitement, .-traitement
 518              		.section	.text.interpretation,"ax",%progbits
 519              		.align	2
 520              		.global	interpretation
 521              		.thumb
 522              		.thumb_func
 523              		.type	interpretation, %function
 524              	interpretation:
 525              	.LFB657:
 157:traitement.c  **** 
 158:traitement.c  **** 
 159:traitement.c  **** void interpretation(int HR_RED, int HR_IR, uint32_t AC_RED, uint32_t DC_RED, uint32_t DC_IR, uint32
 160:traitement.c  **** {
 526              		.loc 1 160 0
 527              		.cfi_startproc
 528              		@ args = 16, pretend = 0, frame = 0
 529              		@ frame_needed = 0, uses_anonymous_args = 0
 530              		@ link register save eliminated.
 531              	.LVL68:
 532 0000 F0B4     		push	{r4, r5, r6, r7}
 533              		.cfi_def_cfa_offset 16
 534              		.cfi_offset 4, -16
 535              		.cfi_offset 5, -12
 536              		.cfi_offset 6, -8
 537              		.cfi_offset 7, -4
 538 0002 07EE102A 		vmov	s14, r2	@ int
 539 0006 049A     		ldr	r2, [sp, #16]
 540              	.LVL69:
 541 0008 069C     		ldr	r4, [sp, #24]
 542 000a 079D     		ldr	r5, [sp, #28]
 161:traitement.c  ****     
 162:traitement.c  ****     //HR 
 163:traitement.c  ****     
 164:traitement.c  ****     //1200 : seuil où je considère que le signal d'entrée n'est que du bruit
 165:traitement.c  ****     if(DC_RED < 1200 && DC_IR > 1200)
 543              		.loc 1 165 0
 544 000c B3F5966F 		cmp	r3, #1200
 545 0010 06D2     		bcs	.L51
 546              		.loc 1 165 0 is_stmt 0 discriminator 1
 547 0012 B2F5966F 		cmp	r2, #1200
 548 0016 03D9     		bls	.L51
 166:traitement.c  ****     {
 167:traitement.c  ****         *HR = HR_IR*6;
 549              		.loc 1 167 0 is_stmt 1
 550 0018 01EB4107 		add	r7, r1, r1, lsl #1
ARM GAS  C:\Users\Mathieu\AppData\Local\Temp\ccddlgB4.s 			page 14


 551 001c 7E00     		lsls	r6, r7, #1
 552 001e 2660     		str	r6, [r4]
 553              	.L51:
 168:traitement.c  ****     }
 169:traitement.c  ****     if(DC_RED > 1200 && DC_IR < 1200)
 554              		.loc 1 169 0
 555 0020 B3F5966F 		cmp	r3, #1200
 556 0024 06D9     		bls	.L52
 557              		.loc 1 169 0 is_stmt 0 discriminator 1
 558 0026 B2F5966F 		cmp	r2, #1200
 559 002a 03D2     		bcs	.L52
 170:traitement.c  ****     {
 171:traitement.c  ****         *HR = HR_RED*6;
 560              		.loc 1 171 0 is_stmt 1
 561 002c 00EB4007 		add	r7, r0, r0, lsl #1
 562 0030 7E00     		lsls	r6, r7, #1
 563 0032 2660     		str	r6, [r4]
 564              	.L52:
 172:traitement.c  ****     }
 173:traitement.c  ****     if(DC_RED > 1200 && DC_IR > 1200)
 565              		.loc 1 173 0
 566 0034 B3F5966F 		cmp	r3, #1200
 567 0038 08D9     		bls	.L53
 568              		.loc 1 173 0 is_stmt 0 discriminator 1
 569 003a B2F5966F 		cmp	r2, #1200
 570 003e 05D9     		bls	.L53
 174:traitement.c  ****     {
 175:traitement.c  ****         *HR = (HR_RED + HR_IR)*6/2; //Moyenne
 571              		.loc 1 175 0 is_stmt 1
 572 0040 0844     		add	r0, r0, r1
 573              	.LVL70:
 574 0042 00EB4000 		add	r0, r0, r0, lsl #1
 575 0046 4100     		lsls	r1, r0, #1
 576              	.LVL71:
 577 0048 4910     		asrs	r1, r1, #1
 578 004a 2160     		str	r1, [r4]
 579              	.L53:
 176:traitement.c  ****     }
 177:traitement.c  ****     if(DC_RED < 1200 && DC_IR < 1200)
 580              		.loc 1 177 0
 581 004c B3F5966F 		cmp	r3, #1200
 582 0050 04D2     		bcs	.L54
 583              		.loc 1 177 0 is_stmt 0 discriminator 1
 584 0052 B2F5966F 		cmp	r2, #1200
 585 0056 01D2     		bcs	.L54
 178:traitement.c  ****     {
 179:traitement.c  ****         *HR = 0; //Moyenne
 586              		.loc 1 179 0 is_stmt 1
 587 0058 0021     		movs	r1, #0
 588 005a 2160     		str	r1, [r4]
 589              	.L54:
 180:traitement.c  ****     }
 181:traitement.c  ****         
 182:traitement.c  ****     //SPO2
 183:traitement.c  ****     float R = ((float)AC_RED/(float)DC_RED)/((float)AC_IR/(float)DC_IR);
 590              		.loc 1 183 0
 591 005c B8EE477A 		vcvt.f32.u32	s14, s14
ARM GAS  C:\Users\Mathieu\AppData\Local\Temp\ccddlgB4.s 			page 15


 592              	.LVL72:
 593 0060 07EE903A 		vmov	s15, r3	@ int
 594 0064 F8EE677A 		vcvt.f32.u32	s15, s15
 595 0068 C7EE275A 		vdiv.f32	s11, s14, s15
 596 006c DDED057A 		vldr.32	s15, [sp, #20]	@ int
 597 0070 B8EE677A 		vcvt.f32.u32	s14, s15
 598 0074 07EE902A 		vmov	s15, r2	@ int
 599 0078 F8EE677A 		vcvt.f32.u32	s15, s15
 600 007c 87EE276A 		vdiv.f32	s12, s14, s15
 601 0080 C5EE866A 		vdiv.f32	s13, s11, s12
 602              	.LVL73:
 184:traitement.c  ****     float a = 1.5958422;
 185:traitement.c  ****     float b = -34.6596622;
 186:traitement.c  ****     float c = 112.6898759;
 187:traitement.c  ****     
 188:traitement.c  ****     *SPO2 = a*R*R+b*R+c;
 603              		.loc 1 188 0
 604 0084 9FED117A 		vldr.32	s14, .L59
 605 0088 66EE877A 		vmul.f32	s15, s13, s14
 606 008c 26EEA77A 		vmul.f32	s14, s13, s15
 607 0090 DFED0F7A 		vldr.32	s15, .L59+4
 608 0094 66EEA77A 		vmul.f32	s15, s13, s15
 609 0098 77EE277A 		vadd.f32	s15, s14, s15
 610 009c 9FED0D7A 		vldr.32	s14, .L59+8
 611 00a0 77EE877A 		vadd.f32	s15, s15, s14
 612 00a4 FCEEE77A 		vcvt.u32.f32	s15, s15
 613 00a8 17EE903A 		vmov	r3, s15	@ int
 614              	.LVL74:
 615 00ac C5ED007A 		vstr.32	s15, [r5]	@ int
 189:traitement.c  ****     
 190:traitement.c  ****     //Interprétation des cas extrêmes 
 191:traitement.c  ****     //Si une valeur n'a pas de sens physiologiquement, le paramètre sera mis à 0.
 192:traitement.c  ****     
 193:traitement.c  ****     //Gestion si HR < 27 BPM ou >220 BPM (données incohérentes)
 194:traitement.c  ****     if(*HR<27 && *HR>220)
 195:traitement.c  ****     {
 196:traitement.c  ****        *HR = 0;
 197:traitement.c  ****     }
 198:traitement.c  ****     //Gestion si SPO2>100 ou <85% (plus faible que le minimum de la littérature)
 199:traitement.c  ****     if(*SPO2>100)
 616              		.loc 1 199 0
 617 00b0 642B     		cmp	r3, #100
 618 00b2 01D9     		bls	.L55
 200:traitement.c  ****     {
 201:traitement.c  ****         *SPO2=0;
 619              		.loc 1 201 0
 620 00b4 0023     		movs	r3, #0
 621 00b6 2B60     		str	r3, [r5]
 622              	.L55:
 202:traitement.c  ****     }
 203:traitement.c  ****    
 204:traitement.c  ****    //Gestion si un des deux paramètres est nul
 205:traitement.c  ****     if(*HR==0 || *SPO2 ==0)
 623              		.loc 1 205 0
 624 00b8 2368     		ldr	r3, [r4]
 625 00ba 0BB1     		cbz	r3, .L56
 626              		.loc 1 205 0 is_stmt 0 discriminator 1
ARM GAS  C:\Users\Mathieu\AppData\Local\Temp\ccddlgB4.s 			page 16


 627 00bc 2B68     		ldr	r3, [r5]
 628 00be 13B9     		cbnz	r3, .L50
 629              	.L56:
 206:traitement.c  ****     {
 207:traitement.c  ****         *SPO2 = 0;
 630              		.loc 1 207 0 is_stmt 1
 631 00c0 0023     		movs	r3, #0
 632 00c2 2B60     		str	r3, [r5]
 208:traitement.c  ****         *HR = 0;
 633              		.loc 1 208 0
 634 00c4 2360     		str	r3, [r4]
 635              	.L50:
 209:traitement.c  ****     }
 210:traitement.c  **** 
 211:traitement.c  **** }
 636              		.loc 1 211 0
 637 00c6 F0BC     		pop	{r4, r5, r6, r7}
 638              		.cfi_restore 7
 639              		.cfi_restore 6
 640              		.cfi_restore 5
 641              		.cfi_restore 4
 642              		.cfi_def_cfa_offset 0
 643              	.LVL75:
 644 00c8 7047     		bx	lr
 645              	.L60:
 646 00ca 00BF     		.align	2
 647              	.L59:
 648 00cc 8F44CC3F 		.word	1070351503
 649 00d0 7EA30AC2 		.word	-1039490178
 650 00d4 3761E142 		.word	1122066743
 651              		.cfi_endproc
 652              	.LFE657:
 653              		.size	interpretation, .-interpretation
 654              		.section	.rodata.str1.4,"aMS",%progbits,1
 655              		.align	2
 656              	.LC0:
 657 0000 48523A25 		.ascii	"HR:%d\015\012\000"
 657      640D0A00 
 658              		.text
 659              	.Letext0:
 660              		.file 2 "c:\\program files (x86)\\cypress\\psoc creator\\4.4\\psoc creator\\import\\gnu\\arm\\5.4.
 661              		.file 3 "c:\\program files (x86)\\cypress\\psoc creator\\4.4\\psoc creator\\import\\gnu\\arm\\5.4.
 662              		.file 4 "Generated_Source\\PSoC6\\pdl\\drivers/peripheral/device/cy_device.h"
 663              		.file 5 "Generated_Source\\PSoC6\\pdl\\drivers/peripheral/scb/cy_scb_i2c.h"
 664              		.file 6 "Generated_Source\\PSoC6\\pdl\\drivers/peripheral/scb/cy_scb_spi.h"
 665              		.file 7 "Generated_Source\\PSoC6\\pdl\\drivers/peripheral/scb/cy_scb_uart.h"
 666              		.file 8 "Generated_Source\\PSoC6\\pdl\\drivers/peripheral/tcpwm/cy_tcpwm_counter.h"
 667              		.file 9 "Generated_Source\\PSoC6\\pdl\\cmsis/include/core_cm4.h"
 668              		.file 10 "Generated_Source\\PSoC6/CY_EINK_SPIM.h"
 669              		.file 11 "Generated_Source\\PSoC6/CY_EINK_Timer.h"
 670              		.file 12 "Generated_Source\\PSoC6/UART.h"
 671              		.file 13 "Generated_Source\\PSoC6/MAX_I2C.h"
 672              		.file 14 "Generated_Source\\PSoC6/BMI_I2C.h"
 673              		.file 15 "c:\\program files (x86)\\cypress\\psoc creator\\4.4\\psoc creator\\import\\gnu\\arm\\5.4