ARM GAS  C:\Users\Andrea\AppData\Local\Temp\ccMowLlQ.s 			page 1


   1              		.syntax unified
   2              		.cpu cortex-m4
   3              		.eabi_attribute 27, 1
   4              		.fpu fpv4-sp-d16
   5              		.eabi_attribute 20, 1
   6              		.eabi_attribute 21, 1
   7              		.eabi_attribute 23, 3
   8              		.eabi_attribute 24, 1
   9              		.eabi_attribute 25, 1
  10              		.eabi_attribute 26, 1
  11              		.eabi_attribute 30, 1
  12              		.eabi_attribute 34, 1
  13              		.eabi_attribute 18, 4
  14              		.thumb
  15              		.syntax unified
  16              		.file	"main_cm4.c"
  17              		.text
  18              	.Ltext0:
  19              		.cfi_sections	.debug_frame
  20              		.section	.text.main,"ax",%progbits
  21              		.align	2
  22              		.global	main
  23              		.thumb
  24              		.thumb_func
  25              		.type	main, %function
  26              	main:
  27              	.LFB642:
  28              		.file 1 "main_cm4.c"
   1:main_cm4.c    **** /******************************************************************************
   2:main_cm4.c    **** * File Name: main_cm4.c
   3:main_cm4.c    **** *
   4:main_cm4.c    **** * Version: 1.2
   5:main_cm4.c    **** *
   6:main_cm4.c    **** * Description: This file main application code for the CE223727 EmWin Graphics
   7:main_cm4.c    **** *				library EInk Display 
   8:main_cm4.c    **** 
   9:main_cm4.c    **** ********************************************************************************
  10:main_cm4.c    **** *************MODIFIED by Christophe Cloutier-Tremblay.**************************
  11:main_cm4.c    **** ********************************************************************************
  12:main_cm4.c    **** * 
  13:main_cm4.c    **** *
  14:main_cm4.c    **** * Hardware Dependency: CY8CKIT-028-EPD E-Ink Display Shield
  15:main_cm4.c    **** *					   CY8CKIT-062-BLE PSoC6 BLE Pioneer Kit
  16:main_cm4.c    **** *
  17:main_cm4.c    **** ******************************************************************************* 
  18:main_cm4.c    **** * Copyright (2019), Cypress Semiconductor Corporation. All rights reserved. 
  19:main_cm4.c    **** ******************************************************************************* 
  20:main_cm4.c    **** * This software, including source code, documentation and related materials 
  21:main_cm4.c    **** * (“Software”), is owned by Cypress Semiconductor Corporation or one of its 
  22:main_cm4.c    **** * subsidiaries (“Cypress”) and is protected by and subject to worldwide patent 
  23:main_cm4.c    **** * protection (United States and foreign), United States copyright laws and 
  24:main_cm4.c    **** * international treaty provisions. Therefore, you may use this Software only 
  25:main_cm4.c    **** * as provided in the license agreement accompanying the software package from 
  26:main_cm4.c    **** * which you obtained this Software (“EULA”). 
  27:main_cm4.c    **** * 
  28:main_cm4.c    **** * If no EULA applies, Cypress hereby grants you a personal, non-exclusive, 
  29:main_cm4.c    **** * non-transferable license to copy, modify, and compile the Software source 
ARM GAS  C:\Users\Andrea\AppData\Local\Temp\ccMowLlQ.s 			page 2


  30:main_cm4.c    **** * code solely for use in connection with Cypress’s integrated circuit products. 
  31:main_cm4.c    **** * Any reproduction, modification, translation, compilation, or representation 
  32:main_cm4.c    **** * of this Software except as specified above is prohibited without the express 
  33:main_cm4.c    **** * written permission of Cypress. 
  34:main_cm4.c    **** * 
  35:main_cm4.c    **** * Disclaimer: THIS SOFTWARE IS PROVIDED AS-IS, WITH NO WARRANTY OF ANY KIND, 
  36:main_cm4.c    **** * EXPRESS OR IMPLIED, INCLUDING, BUT NOT LIMITED TO, NONINFRINGEMENT, IMPLIED 
  37:main_cm4.c    **** * WARRANTIES OF MERCHANTABILITY AND FITNESS FOR A PARTICULAR PURPOSE. Cypress 
  38:main_cm4.c    **** * reserves the right to make changes to the Software without notice. Cypress 
  39:main_cm4.c    **** * does not assume any liability arising out of the application or use of the 
  40:main_cm4.c    **** * Software or any product or circuit described in the Software. Cypress does 
  41:main_cm4.c    **** * not authorize its products for use in any products where a malfunction or 
  42:main_cm4.c    **** * failure of the Cypress product may reasonably be expected to result in 
  43:main_cm4.c    **** * significant property damage, injury or death (“High Risk Product”). By 
  44:main_cm4.c    **** * including Cypress’s product in a High Risk Product, the manufacturer of such 
  45:main_cm4.c    **** * system or application assumes all risk of such use and in doing so agrees to 
  46:main_cm4.c    **** * indemnify Cypress against all liability.
  47:main_cm4.c    **** ********************************************************************************/
  48:main_cm4.c    **** 
  49:main_cm4.c    **** #include "project.h"
  50:main_cm4.c    **** #include "GUI.h"
  51:main_cm4.c    **** #include "pervasive_eink_hardware_driver.h"
  52:main_cm4.c    **** #include "cy_eink_library.h"
  53:main_cm4.c    **** #include "LCDConf.h"
  54:main_cm4.c    **** #include <stdlib.h>
  55:main_cm4.c    **** #include <math.h>
  56:main_cm4.c    **** #include "interface.h"
  57:main_cm4.c    **** #include "project.h" 
  58:main_cm4.c    **** #include "FreeRTOS.h"
  59:main_cm4.c    **** #include "task.h" 
  60:main_cm4.c    **** #include "queue.h"
  61:main_cm4.c    **** //#include "params.h"
  62:main_cm4.c    **** 
  63:main_cm4.c    **** // Variables globales
  64:main_cm4.c    **** volatile int    compteur = 0;
  65:main_cm4.c    **** volatile float  bufferCirculaire[4000];
  66:main_cm4.c    **** volatile int    indexEcriture = 0;
  67:main_cm4.c    **** volatile int    processBufferIdx = 0;
  68:main_cm4.c    **** volatile bool   processBufferFlag = false; 
  69:main_cm4.c    **** volatile int bonneLongueur = 0;
  70:main_cm4.c    **** 
  71:main_cm4.c    **** 
  72:main_cm4.c    **** 
  73:main_cm4.c    **** /* POUR PROJET :
  74:main_cm4.c    **** 
  75:main_cm4.c    **** uint16_t *ptrSignal = &signalCourt[0];
  76:main_cm4.c    **** 
  77:main_cm4.c    **** // graphe du signal : s'affiche sur 100x250 (y,x) mais je le veux pas direct en haut... Espace
  78:main_cm4.c    **** // de 20 pixels environ à partir du top avant de commencer dessin
  79:main_cm4.c    **** 
  80:main_cm4.c    **** 
  81:main_cm4.c    **** 
  82:main_cm4.c    **** Attention,drawGraph prend des uint16, donc convertir le 32 en 16
  83:main_cm4.c    **** avec bitshift par exemple et somme des 2 ensuite :
  84:main_cm4.c    **** 
  85:main_cm4.c    **** uint terme1 = []
  86:main_cm4.c    **** uint16_t terme1_1 = terme1 & 00000000000000001111111111111111
ARM GAS  C:\Users\Andrea\AppData\Local\Temp\ccMowLlQ.s 			page 3


  87:main_cm4.c    **** uint16_t terme1_2 = terme1 & 11111111111111110000000000000000
  88:main_cm4.c    **** 
  89:main_cm4.c    **** Créer une fonction qui fait le graphique en prenant en paramètre un uint
  90:main_cm4.c    **** avec drawLine entre 2 pts
  91:main_cm4.c    **** 
  92:main_cm4.c    **** 
  93:main_cm4.c    **** void drawGraph(uint* pointeur)
  94:main_cm4.c    **** {
  95:main_cm4.c    ****     
  96:main_cm4.c    ****     for (int i=0; i<=124; i++)
  97:main_cm4.c    ****     {
  98:main_cm4.c    ****         int x0 = 2*(i);
  99:main_cm4.c    ****         int x1 = 2*(i+1);
 100:main_cm4.c    ****         int y0 = (int) (pointeur[i]*50)+64;
 101:main_cm4.c    ****         int y1 = (int) (pointeur[i+1]*50)+64;
 102:main_cm4.c    ****         GUI_DrawLine (x0, y0, x1, y1);
 103:main_cm4.c    ****     }
 104:main_cm4.c    ****     
 105:main_cm4.c    **** }
 106:main_cm4.c    **** 
 107:main_cm4.c    **** */
 108:main_cm4.c    **** 
 109:main_cm4.c    **** // fonction pour afficher HR et SpO2
 110:main_cm4.c    **** 
 111:main_cm4.c    **** //
 112:main_cm4.c    **** //// PARTIE 1, code 1.2
 113:main_cm4.c    **** //void updateParameters(int param1, int param2){
 114:main_cm4.c    **** //
 115:main_cm4.c    **** //    char str[100];
 116:main_cm4.c    **** //    sprintf(str,"DutyCycle: %d %%       Moyenne: %d mV",param1, param2);
 117:main_cm4.c    **** //    
 118:main_cm4.c    **** //    GUI_DispStringHCenterAt(str, 129, 160);
 119:main_cm4.c    **** //    UpdateDisplay(CY_EINK_FULL_4STAGE, true);
 120:main_cm4.c    **** //}
 121:main_cm4.c    **** 
 122:main_cm4.c    **** //// PARTIE 3, code 3.2 et 3.3
 123:main_cm4.c    **** //void adc_handler(){
 124:main_cm4.c    **** //    bufferCirculaire[indexEcriture] = ADC_GetResult16(0);
 125:main_cm4.c    **** //    indexEcriture=indexEcriture+1;
 126:main_cm4.c    **** //    if(indexEcriture==2000){
 127:main_cm4.c    **** //        processBufferFlag=true;
 128:main_cm4.c    **** //        processBufferIdx = indexEcriture;
 129:main_cm4.c    **** //    }
 130:main_cm4.c    **** //    else if(indexEcriture==4000){
 131:main_cm4.c    **** //        processBufferFlag=true;
 132:main_cm4.c    **** //        processBufferIdx = indexEcriture;
 133:main_cm4.c    **** //        
 134:main_cm4.c    **** //        indexEcriture=0;
 135:main_cm4.c    **** //    }
 136:main_cm4.c    **** //    
 137:main_cm4.c    **** //    NVIC_ClearPendingIRQ(adc_int_cfg.intrSrc);
 138:main_cm4.c    **** //}
 139:main_cm4.c    **** //
 140:main_cm4.c    **** //// PARTIE 3, code 3.4 et 3.5
 141:main_cm4.c    **** //void traitementSignal(){
 142:main_cm4.c    **** //
 143:main_cm4.c    **** //    compteur++;  
ARM GAS  C:\Users\Andrea\AppData\Local\Temp\ccMowLlQ.s 			page 4


 144:main_cm4.c    **** //    
 145:main_cm4.c    **** //    double somme=0;
 146:main_cm4.c    **** //    double resultatConvertit=0;
 147:main_cm4.c    **** //    int i = 2000;
 148:main_cm4.c    **** //    
 149:main_cm4.c    **** //    while(i>0){
 150:main_cm4.c    **** //        resultatConvertit=Cy_SAR_CountsTo_mVolts(SAR, 0 , bufferCirculaire[i--]);
 151:main_cm4.c    **** //        somme += resultatConvertit; 
 152:main_cm4.c    **** //    }
 153:main_cm4.c    **** //    double moyenne = somme/2000;
 154:main_cm4.c    **** //    double dutyCycle = moyenne*100/3300; 
 155:main_cm4.c    **** //    
 156:main_cm4.c    **** //    int moyenne_int = round(moyenne);
 157:main_cm4.c    **** //    int dutyCycle_int = round(dutyCycle);
 158:main_cm4.c    **** //    
 159:main_cm4.c    **** //    if(compteur==3){
 160:main_cm4.c    **** //        GUI_SetPenSize(1);
 161:main_cm4.c    **** //        GUI_SetColor(GUI_BLACK);
 162:main_cm4.c    **** //        GUI_SetBkColor(GUI_WHITE);
 163:main_cm4.c    **** //        GUI_Clear();
 164:main_cm4.c    **** //        
 165:main_cm4.c    **** //        GUI_DrawRect(7, 5, 257, 155);
 166:main_cm4.c    **** //        
 167:main_cm4.c    **** //        int x = dutyCycle_int*2+17;
 168:main_cm4.c    **** //        
 169:main_cm4.c    **** //        GUI_DrawLine(17,145,17,15);
 170:main_cm4.c    **** //        GUI_DrawLine(17,15,x,15);
 171:main_cm4.c    **** //        GUI_DrawLine(x,15,x,145);
 172:main_cm4.c    **** //        GUI_DrawLine(x,145,217,145);
 173:main_cm4.c    **** //        
 174:main_cm4.c    **** //        ADC_Stop();
 175:main_cm4.c    **** //        updateParameters(dutyCycle_int,moyenne_int);
 176:main_cm4.c    **** //        ADC_Start();
 177:main_cm4.c    **** //        
 178:main_cm4.c    **** //        compteur = 0;
 179:main_cm4.c    **** //    }
 180:main_cm4.c    **** //    
 181:main_cm4.c    **** //    processBufferFlag = false;
 182:main_cm4.c    **** //
 183:main_cm4.c    **** //}
 184:main_cm4.c    **** 
 185:main_cm4.c    **** /*******************************************************************************
 186:main_cm4.c    **** * Function Name: int main(void)
 187:main_cm4.c    **** ********************************************************************************
 188:main_cm4.c    **** *
 189:main_cm4.c    **** * Summary: À Remplir
 190:main_cm4.c    **** *
 191:main_cm4.c    **** * Parameters:
 192:main_cm4.c    **** *  None
 193:main_cm4.c    **** *
 194:main_cm4.c    **** * Return:
 195:main_cm4.c    **** *  None
 196:main_cm4.c    **** *
 197:main_cm4.c    **** *******************************************************************************/
 198:main_cm4.c    **** int main(void)
 199:main_cm4.c    **** {
  29              		.loc 1 199 0
ARM GAS  C:\Users\Andrea\AppData\Local\Temp\ccMowLlQ.s 			page 5


  30              		.cfi_startproc
  31              		@ args = 0, pretend = 0, frame = 0
  32              		@ frame_needed = 0, uses_anonymous_args = 0
  33 0000 10B5     		push	{r4, lr}
  34              		.cfi_def_cfa_offset 8
  35              		.cfi_offset 4, -8
  36              		.cfi_offset 14, -4
  37 0002 82B0     		sub	sp, sp, #8
  38              		.cfi_def_cfa_offset 16
 200:main_cm4.c    ****    
 201:main_cm4.c    ****     xTaskCreate(interface,"Tache_main",1000,NULL,3, NULL);  
  39              		.loc 1 201 0
  40 0004 0024     		movs	r4, #0
  41 0006 0194     		str	r4, [sp, #4]
  42 0008 0323     		movs	r3, #3
  43 000a 0093     		str	r3, [sp]
  44 000c 2346     		mov	r3, r4
  45 000e 4FF47A72 		mov	r2, #1000
  46 0012 0449     		ldr	r1, .L3
  47 0014 0448     		ldr	r0, .L3+4
  48 0016 FFF7FEFF 		bl	xTaskCreate
  49              	.LVL0:
 202:main_cm4.c    ****     vTaskStartScheduler();
  50              		.loc 1 202 0
  51 001a FFF7FEFF 		bl	vTaskStartScheduler
  52              	.LVL1:
 203:main_cm4.c    ****     
 204:main_cm4.c    **** //    __enable_irq(); /* Enable global interrupts. */
 205:main_cm4.c    **** //    
 206:main_cm4.c    **** //    /* Initialize emWin Graphics */
 207:main_cm4.c    **** //    GUI_Init();
 208:main_cm4.c    **** //
 209:main_cm4.c    **** //    /* Start the eInk display interface and turn on the display power */
 210:main_cm4.c    **** //    Cy_EINK_Start(20);
 211:main_cm4.c    **** //    Cy_EINK_Power(1);
 212:main_cm4.c    **** //    
 213:main_cm4.c    **** //    GUI_SetPenSize(1);
 214:main_cm4.c    **** //    GUI_SetColor(GUI_BLACK);
 215:main_cm4.c    **** //    GUI_SetBkColor(GUI_WHITE);
 216:main_cm4.c    **** //    GUI_Clear();
 217:main_cm4.c    **** //    
 218:main_cm4.c    **** //    //Draw a rectangle
 219:main_cm4.c    **** //    GUI_DrawRect(1,1,263,175);
 220:main_cm4.c    **** //    
 221:main_cm4.c    **** //    //Draw a line
 222:main_cm4.c    **** //    GUI_SetPenSize(4);
 223:main_cm4.c    **** //    GUI_DrawLine(20,65,243,65);
 224:main_cm4.c    **** //    
 225:main_cm4.c    **** //    GUI_SetColor(GUI_BLACK);
 226:main_cm4.c    **** //    GUI_SetBkColor(GUI_WHITE);
 227:main_cm4.c    **** //    
 228:main_cm4.c    **** //   //Write a title and subtile	
 229:main_cm4.c    **** //    GUI_SetFont(GUI_FONT_32B_1);
 230:main_cm4.c    **** //    GUI_SetTextAlign(GUI_TA_CENTER);
 231:main_cm4.c    **** //    GUI_DispStringAt("GBM2100", 132, 30);
 232:main_cm4.c    **** //    GUI_SetFont(GUI_FONT_16_1);
 233:main_cm4.c    **** //    GUI_DispStringAt("Laboratoire 3", 132, 70);
ARM GAS  C:\Users\Andrea\AppData\Local\Temp\ccMowLlQ.s 			page 6


 234:main_cm4.c    **** //    
 235:main_cm4.c    **** //    UpdateDisplay(CY_EINK_FULL_4STAGE, true);
 236:main_cm4.c    **** //    
 237:main_cm4.c    **** //    // Test du code partie 1 
 238:main_cm4.c    **** //    GUI_Clear();                 
 239:main_cm4.c    **** //    drawGraph(vectorSinus);      
 240:main_cm4.c    **** //    updateParameters(10,1666); 
 241:main_cm4.c    **** //    GUI_Clear(); 
 242:main_cm4.c    **** //    
 243:main_cm4.c    **** //    // Démarrage du module PWM (LED clignote) pour la partie 2
 244:main_cm4.c    **** //    PWM_Start();
 245:main_cm4.c    **** //    
 246:main_cm4.c    **** //    // Démarrage de l'ADC pour la partie 3
 247:main_cm4.c    **** //    Cy_SysInt_Init(&adc_int_cfg,adc_handler);   // Init reference
 248:main_cm4.c    **** //    NVIC_EnableIRQ(adc_int_cfg.intrSrc);        // Enable interrupt
 249:main_cm4.c    **** //    ADC_Start();
 250:main_cm4.c    **** //    ADC_StartConvert();
 251:main_cm4.c    **** //    
 252:main_cm4.c    **** //    for(;;)
 253:main_cm4.c    **** //    {
 254:main_cm4.c    **** //        // Vérification du flag et traitement si activé (PARTIE 3, code 3.3)
 255:main_cm4.c    **** //        if(processBufferFlag==true){
 256:main_cm4.c    **** //            traitementSignal();
 257:main_cm4.c    **** //        }
 258:main_cm4.c    **** //    }
 259:main_cm4.c    **** //}
 260:main_cm4.c    **** }
  53              		.loc 1 260 0
  54 001e 2046     		mov	r0, r4
  55 0020 02B0     		add	sp, sp, #8
  56              		.cfi_def_cfa_offset 8
  57              		@ sp needed
  58 0022 10BD     		pop	{r4, pc}
  59              	.L4:
  60              		.align	2
  61              	.L3:
  62 0024 00000000 		.word	.LC0
  63 0028 00000000 		.word	interface
  64              		.cfi_endproc
  65              	.LFE642:
  66              		.size	main, .-main
  67              		.global	bonneLongueur
  68              		.global	processBufferFlag
  69              		.global	processBufferIdx
  70              		.global	indexEcriture
  71              		.comm	bufferCirculaire,16000,4
  72              		.global	compteur
  73              		.section	.rodata.str1.4,"aMS",%progbits,1
  74              		.align	2
  75              	.LC0:
  76 0000 54616368 		.ascii	"Tache_main\000"
  76      655F6D61 
  76      696E00
  77              		.bss
  78              		.align	2
  79              		.type	bonneLongueur, %object
  80              		.size	bonneLongueur, 4
ARM GAS  C:\Users\Andrea\AppData\Local\Temp\ccMowLlQ.s 			page 7


  81              	bonneLongueur:
  82 0000 00000000 		.space	4
  83              		.type	processBufferFlag, %object
  84              		.size	processBufferFlag, 1
  85              	processBufferFlag:
  86 0004 00       		.space	1
  87 0005 000000   		.space	3
  88              		.type	processBufferIdx, %object
  89              		.size	processBufferIdx, 4
  90              	processBufferIdx:
  91 0008 00000000 		.space	4
  92              		.type	indexEcriture, %object
  93              		.size	indexEcriture, 4
  94              	indexEcriture:
  95 000c 00000000 		.space	4
  96              		.type	compteur, %object
  97              		.size	compteur, 4
  98              	compteur:
  99 0010 00000000 		.space	4
 100              		.text
 101              	.Letext0:
 102              		.file 2 "c:\\program files (x86)\\cypress\\psoc creator\\4.4\\psoc creator\\import\\gnu\\arm\\5.4.
 103              		.file 3 "c:\\program files (x86)\\cypress\\psoc creator\\4.4\\psoc creator\\import\\gnu\\arm\\5.4.
 104              		.file 4 "Generated_Source\\PSoC6\\pdl\\drivers/peripheral/device/cy_device.h"
 105              		.file 5 "Generated_Source\\PSoC6\\pdl\\drivers/peripheral/sar/cy_sar.h"
 106              		.file 6 "Generated_Source\\PSoC6\\pdl\\drivers/peripheral/scb/cy_scb_spi.h"
 107              		.file 7 "Generated_Source\\PSoC6\\pdl\\drivers/peripheral/tcpwm/cy_tcpwm_counter.h"
 108              		.file 8 "Generated_Source\\PSoC6\\pdl\\drivers/peripheral/tcpwm/cy_tcpwm_pwm.h"
 109              		.file 9 "Generated_Source\\PSoC6/ADC.h"
 110              		.file 10 "Generated_Source\\PSoC6\\pdl\\cmsis/include/core_cm4.h"
 111              		.file 11 "Generated_Source\\PSoC6/CY_EINK_SPIM.h"
 112              		.file 12 "Generated_Source\\PSoC6/CY_EINK_Timer.h"
 113              		.file 13 "Generated_Source\\PSoC6/PWM.h"
 114              		.file 14 "Generated_Source\\PSoC6\\pdl\\rtos/FreeRTOS/10.0.1/Source/include/task.h"